	.file	"ajit_access_routines.c"
	.section	".text"
.Ltext0:
	.cfi_sections	.debug_frame
	.align 4
	.global __ajit_clear_all_gp_registers__
	.type	__ajit_clear_all_gp_registers__, #function
	.proc	020
__ajit_clear_all_gp_registers__:
.LFB0:
	.file 1 "/home/madhav/AjitToolChain/AjitPublicResources/tools/ajit_access_routines_mt/src/ajit_access_routines.c"
	.loc 1 10 0
	.cfi_startproc
	save	%sp, -104, %sp
.LCFI0:
	.cfi_window_save
	.cfi_register 15, 31
	.cfi_def_cfa_register 30
	.loc 1 12 0
#APP
! 12 "/home/madhav/AjitToolChain/AjitPublicResources/tools/ajit_access_routines_mt/src/ajit_access_routines.c" 1
	mov %g0, %g1 
	 
! 0 "" 2
! 12 "/home/madhav/AjitToolChain/AjitPublicResources/tools/ajit_access_routines_mt/src/ajit_access_routines.c" 1
	mov %g0, %g2 
	 
! 0 "" 2
	.loc 1 13 0
! 13 "/home/madhav/AjitToolChain/AjitPublicResources/tools/ajit_access_routines_mt/src/ajit_access_routines.c" 1
	mov %g0, %g3 
	 
! 0 "" 2
! 13 "/home/madhav/AjitToolChain/AjitPublicResources/tools/ajit_access_routines_mt/src/ajit_access_routines.c" 1
	mov %g0, %g4 
	 
! 0 "" 2
	.loc 1 14 0
! 14 "/home/madhav/AjitToolChain/AjitPublicResources/tools/ajit_access_routines_mt/src/ajit_access_routines.c" 1
	mov %g0, %g5 
	 
! 0 "" 2
! 14 "/home/madhav/AjitToolChain/AjitPublicResources/tools/ajit_access_routines_mt/src/ajit_access_routines.c" 1
	mov %g0, %g6 
	 
! 0 "" 2
	.loc 1 15 0
! 15 "/home/madhav/AjitToolChain/AjitPublicResources/tools/ajit_access_routines_mt/src/ajit_access_routines.c" 1
	mov %g0, %g7 
	 
! 0 "" 2
	.loc 1 17 0
! 17 "/home/madhav/AjitToolChain/AjitPublicResources/tools/ajit_access_routines_mt/src/ajit_access_routines.c" 1
	mov %g0, %i0 
	 
! 0 "" 2
! 17 "/home/madhav/AjitToolChain/AjitPublicResources/tools/ajit_access_routines_mt/src/ajit_access_routines.c" 1
	mov %g0, %i1 
	 
! 0 "" 2
	.loc 1 18 0
! 18 "/home/madhav/AjitToolChain/AjitPublicResources/tools/ajit_access_routines_mt/src/ajit_access_routines.c" 1
	mov %g0, %i2 
	 
! 0 "" 2
! 18 "/home/madhav/AjitToolChain/AjitPublicResources/tools/ajit_access_routines_mt/src/ajit_access_routines.c" 1
	mov %g0, %i3 
	 
! 0 "" 2
	.loc 1 19 0
! 19 "/home/madhav/AjitToolChain/AjitPublicResources/tools/ajit_access_routines_mt/src/ajit_access_routines.c" 1
	mov %g0, %i4 
	 
! 0 "" 2
! 19 "/home/madhav/AjitToolChain/AjitPublicResources/tools/ajit_access_routines_mt/src/ajit_access_routines.c" 1
	mov %g0, %i5 
	 
! 0 "" 2
	.loc 1 20 0
! 20 "/home/madhav/AjitToolChain/AjitPublicResources/tools/ajit_access_routines_mt/src/ajit_access_routines.c" 1
	mov %g0, %i6 
	 
! 0 "" 2
! 20 "/home/madhav/AjitToolChain/AjitPublicResources/tools/ajit_access_routines_mt/src/ajit_access_routines.c" 1
	mov %g0, %i7 
	 
! 0 "" 2
	.loc 1 22 0
! 22 "/home/madhav/AjitToolChain/AjitPublicResources/tools/ajit_access_routines_mt/src/ajit_access_routines.c" 1
	mov %g0, %l0 
	 
! 0 "" 2
! 22 "/home/madhav/AjitToolChain/AjitPublicResources/tools/ajit_access_routines_mt/src/ajit_access_routines.c" 1
	mov %g0, %l1 
	 
! 0 "" 2
	.loc 1 23 0
! 23 "/home/madhav/AjitToolChain/AjitPublicResources/tools/ajit_access_routines_mt/src/ajit_access_routines.c" 1
	mov %g0, %l2 
	 
! 0 "" 2
! 23 "/home/madhav/AjitToolChain/AjitPublicResources/tools/ajit_access_routines_mt/src/ajit_access_routines.c" 1
	mov %g0, %l3 
	 
! 0 "" 2
	.loc 1 24 0
! 24 "/home/madhav/AjitToolChain/AjitPublicResources/tools/ajit_access_routines_mt/src/ajit_access_routines.c" 1
	mov %g0, %l4 
	 
! 0 "" 2
! 24 "/home/madhav/AjitToolChain/AjitPublicResources/tools/ajit_access_routines_mt/src/ajit_access_routines.c" 1
	mov %g0, %l5 
	 
! 0 "" 2
	.loc 1 25 0
! 25 "/home/madhav/AjitToolChain/AjitPublicResources/tools/ajit_access_routines_mt/src/ajit_access_routines.c" 1
	mov %g0, %l6 
	 
! 0 "" 2
! 25 "/home/madhav/AjitToolChain/AjitPublicResources/tools/ajit_access_routines_mt/src/ajit_access_routines.c" 1
	mov %g0, %l7 
	 
! 0 "" 2
	.loc 1 27 0
! 27 "/home/madhav/AjitToolChain/AjitPublicResources/tools/ajit_access_routines_mt/src/ajit_access_routines.c" 1
	mov %g0, %o0 
	 
! 0 "" 2
! 27 "/home/madhav/AjitToolChain/AjitPublicResources/tools/ajit_access_routines_mt/src/ajit_access_routines.c" 1
	mov %g0, %o1 
	 
! 0 "" 2
	.loc 1 28 0
! 28 "/home/madhav/AjitToolChain/AjitPublicResources/tools/ajit_access_routines_mt/src/ajit_access_routines.c" 1
	mov %g0, %o2 
	 
! 0 "" 2
! 28 "/home/madhav/AjitToolChain/AjitPublicResources/tools/ajit_access_routines_mt/src/ajit_access_routines.c" 1
	mov %g0, %o3 
	 
! 0 "" 2
	.loc 1 29 0
! 29 "/home/madhav/AjitToolChain/AjitPublicResources/tools/ajit_access_routines_mt/src/ajit_access_routines.c" 1
	mov %g0, %o4 
	 
! 0 "" 2
! 29 "/home/madhav/AjitToolChain/AjitPublicResources/tools/ajit_access_routines_mt/src/ajit_access_routines.c" 1
	mov %g0, %o5 
	 
! 0 "" 2
	.loc 1 30 0
! 30 "/home/madhav/AjitToolChain/AjitPublicResources/tools/ajit_access_routines_mt/src/ajit_access_routines.c" 1
	mov %g0, %o6 
	 
! 0 "" 2
! 30 "/home/madhav/AjitToolChain/AjitPublicResources/tools/ajit_access_routines_mt/src/ajit_access_routines.c" 1
	mov %g0, %o7 
	 
! 0 "" 2
	.loc 1 33 0
#NO_APP
	st	%g0, [%fp-4]
	.loc 1 34 0
	st	%g0, [%fp-4]
	b	.L2
	 nop
.L3:
	.loc 1 36 0 discriminator 2
#APP
! 36 "/home/madhav/AjitToolChain/AjitPublicResources/tools/ajit_access_routines_mt/src/ajit_access_routines.c" 1
	save
	 
! 0 "" 2
	.loc 1 38 0 discriminator 2
! 38 "/home/madhav/AjitToolChain/AjitPublicResources/tools/ajit_access_routines_mt/src/ajit_access_routines.c" 1
	mov %g0, %l0 
	 
! 0 "" 2
! 38 "/home/madhav/AjitToolChain/AjitPublicResources/tools/ajit_access_routines_mt/src/ajit_access_routines.c" 1
	mov %g0, %l1 
	 
! 0 "" 2
	.loc 1 39 0 discriminator 2
! 39 "/home/madhav/AjitToolChain/AjitPublicResources/tools/ajit_access_routines_mt/src/ajit_access_routines.c" 1
	mov %g0, %l2 
	 
! 0 "" 2
! 39 "/home/madhav/AjitToolChain/AjitPublicResources/tools/ajit_access_routines_mt/src/ajit_access_routines.c" 1
	mov %g0, %l3 
	 
! 0 "" 2
	.loc 1 40 0 discriminator 2
! 40 "/home/madhav/AjitToolChain/AjitPublicResources/tools/ajit_access_routines_mt/src/ajit_access_routines.c" 1
	mov %g0, %l4 
	 
! 0 "" 2
! 40 "/home/madhav/AjitToolChain/AjitPublicResources/tools/ajit_access_routines_mt/src/ajit_access_routines.c" 1
	mov %g0, %l5 
	 
! 0 "" 2
	.loc 1 41 0 discriminator 2
! 41 "/home/madhav/AjitToolChain/AjitPublicResources/tools/ajit_access_routines_mt/src/ajit_access_routines.c" 1
	mov %g0, %l6 
	 
! 0 "" 2
! 41 "/home/madhav/AjitToolChain/AjitPublicResources/tools/ajit_access_routines_mt/src/ajit_access_routines.c" 1
	mov %g0, %l7 
	 
! 0 "" 2
	.loc 1 43 0 discriminator 2
! 43 "/home/madhav/AjitToolChain/AjitPublicResources/tools/ajit_access_routines_mt/src/ajit_access_routines.c" 1
	mov %g0, %o0 
	 
! 0 "" 2
! 43 "/home/madhav/AjitToolChain/AjitPublicResources/tools/ajit_access_routines_mt/src/ajit_access_routines.c" 1
	mov %g0, %o1 
	 
! 0 "" 2
	.loc 1 44 0 discriminator 2
! 44 "/home/madhav/AjitToolChain/AjitPublicResources/tools/ajit_access_routines_mt/src/ajit_access_routines.c" 1
	mov %g0, %o2 
	 
! 0 "" 2
! 44 "/home/madhav/AjitToolChain/AjitPublicResources/tools/ajit_access_routines_mt/src/ajit_access_routines.c" 1
	mov %g0, %o3 
	 
! 0 "" 2
	.loc 1 45 0 discriminator 2
! 45 "/home/madhav/AjitToolChain/AjitPublicResources/tools/ajit_access_routines_mt/src/ajit_access_routines.c" 1
	mov %g0, %o4 
	 
! 0 "" 2
! 45 "/home/madhav/AjitToolChain/AjitPublicResources/tools/ajit_access_routines_mt/src/ajit_access_routines.c" 1
	mov %g0, %o5 
	 
! 0 "" 2
	.loc 1 46 0 discriminator 2
! 46 "/home/madhav/AjitToolChain/AjitPublicResources/tools/ajit_access_routines_mt/src/ajit_access_routines.c" 1
	mov %g0, %o6 
	 
! 0 "" 2
! 46 "/home/madhav/AjitToolChain/AjitPublicResources/tools/ajit_access_routines_mt/src/ajit_access_routines.c" 1
	mov %g0, %o7 
	 
! 0 "" 2
	.loc 1 34 0 discriminator 2
#NO_APP
	ld	[%fp-4], %g1
	add	%g1, 1, %g1
	st	%g1, [%fp-4]
.L2:
	.loc 1 34 0 is_stmt 0 discriminator 1
	ld	[%fp-4], %g1
	cmp	%g1, 6
	ble	.L3
	 nop
	.loc 1 50 0 is_stmt 1
	st	%g0, [%fp-4]
	b	.L4
	 nop
.L5:
	.loc 1 52 0 discriminator 2
#APP
! 52 "/home/madhav/AjitToolChain/AjitPublicResources/tools/ajit_access_routines_mt/src/ajit_access_routines.c" 1
	restore
	 
! 0 "" 2
	.loc 1 50 0 discriminator 2
#NO_APP
	ld	[%fp-4], %g1
	add	%g1, 1, %g1
	st	%g1, [%fp-4]
.L4:
	.loc 1 50 0 is_stmt 0 discriminator 1
	ld	[%fp-4], %g1
	cmp	%g1, 6
	ble	.L5
	 nop
	.loc 1 56 0 is_stmt 1
	restore
	jmp	%o7+8
	 nop
	.cfi_endproc
.LFE0:
	.size	__ajit_clear_all_gp_registers__, .-__ajit_clear_all_gp_registers__
	.align 4
	.global __ajit_read_core_thread_id_word__
	.type	__ajit_read_core_thread_id_word__, #function
	.proc	016
__ajit_read_core_thread_id_word__:
.LFB1:
	.loc 1 68 0
	.cfi_startproc
	save	%sp, -104, %sp
.LCFI1:
	.cfi_window_save
	.cfi_register 15, 31
	.cfi_def_cfa_register 30
	.loc 1 70 0
#APP
! 70 "/home/madhav/AjitToolChain/AjitPublicResources/tools/ajit_access_routines_mt/src/ajit_access_routines.c" 1
	rd %asr29, %i5 
! 0 "" 2
#NO_APP
	st	%i5, [%fp-4]
	.loc 1 71 0
	ld	[%fp-4], %g1
	.loc 1 72 0
	mov	%g1, %i0
	restore
	jmp	%o7+8
	 nop
	.cfi_endproc
.LFE1:
	.size	__ajit_read_core_thread_id_word__, .-__ajit_read_core_thread_id_word__
	.align 4
	.global ajit_get_core_and_thread_id
	.type	ajit_get_core_and_thread_id, #function
	.proc	020
ajit_get_core_and_thread_id:
.LFB2:
	.loc 1 78 0
	.cfi_startproc
	save	%sp, -104, %sp
.LCFI2:
	.cfi_window_save
	.cfi_register 15, 31
	.cfi_def_cfa_register 30
	st	%i0, [%fp+68]
	st	%i1, [%fp+72]
	.loc 1 79 0
	call	__ajit_read_core_thread_id_word__, 0
	 nop
	st	%o0, [%fp-4]
	.loc 1 80 0
	ld	[%fp-4], %g1
	srl	%g1, 8, %g1
	mov	%g1, %g2
	ld	[%fp+68], %g1
	stb	%g2, [%g1]
	.loc 1 81 0
	ld	[%fp-4], %g1
	mov	%g1, %g2
	ld	[%fp+72], %g1
	stb	%g2, [%g1]
	.loc 1 82 0
	restore
	jmp	%o7+8
	 nop
	.cfi_endproc
.LFE2:
	.size	ajit_get_core_and_thread_id, .-ajit_get_core_and_thread_id
	.align 4
	.global __ajit_read_cycle_count_register_high__
	.type	__ajit_read_cycle_count_register_high__, #function
	.proc	016
__ajit_read_cycle_count_register_high__:
.LFB3:
	.loc 1 92 0
	.cfi_startproc
	save	%sp, -104, %sp
.LCFI3:
	.cfi_window_save
	.cfi_register 15, 31
	.cfi_def_cfa_register 30
	.loc 1 94 0
#APP
! 94 "/home/madhav/AjitToolChain/AjitPublicResources/tools/ajit_access_routines_mt/src/ajit_access_routines.c" 1
	rd %asr30, %i5 
! 0 "" 2
#NO_APP
	st	%i5, [%fp-4]
	.loc 1 95 0
	ld	[%fp-4], %g1
	.loc 1 96 0
	mov	%g1, %i0
	restore
	jmp	%o7+8
	 nop
	.cfi_endproc
.LFE3:
	.size	__ajit_read_cycle_count_register_high__, .-__ajit_read_cycle_count_register_high__
	.align 4
	.global __ajit_read_cycle_count_register_low__
	.type	__ajit_read_cycle_count_register_low__, #function
	.proc	016
__ajit_read_cycle_count_register_low__:
.LFB4:
	.loc 1 99 0
	.cfi_startproc
	save	%sp, -104, %sp
.LCFI4:
	.cfi_window_save
	.cfi_register 15, 31
	.cfi_def_cfa_register 30
	.loc 1 101 0
#APP
! 101 "/home/madhav/AjitToolChain/AjitPublicResources/tools/ajit_access_routines_mt/src/ajit_access_routines.c" 1
	rd %asr31, %i5 
! 0 "" 2
#NO_APP
	st	%i5, [%fp-4]
	.loc 1 102 0
	ld	[%fp-4], %g1
	.loc 1 103 0
	mov	%g1, %i0
	restore
	jmp	%o7+8
	 nop
	.cfi_endproc
.LFE4:
	.size	__ajit_read_cycle_count_register_low__, .-__ajit_read_cycle_count_register_low__
	.align 4
	.global __ajit_get_clock_time
	.type	__ajit_get_clock_time, #function
	.proc	017
__ajit_get_clock_time:
.LFB5:
	.loc 1 106 0
	.cfi_startproc
	save	%sp, -112, %sp
.LCFI5:
	.cfi_window_save
	.cfi_register 15, 31
	.cfi_def_cfa_register 30
	.loc 1 108 0
	call	__ajit_read_cycle_count_register_low__, 0
	 nop
	st	%o0, [%fp-4]
	.loc 1 109 0
	call	__ajit_read_cycle_count_register_high__, 0
	 nop
	st	%o0, [%fp-8]
	.loc 1 111 0
	ld	[%fp-8], %g1
	mov	0, %g2
	mov	%g1, %g3
	std	%g2, [%fp-16]
	.loc 1 112 0
	ld	[%fp-12], %g1
	sll	%g1, 0, %g1
	st	%g1, [%fp-16]
	st	%g0, [%fp-12]
	.loc 1 113 0
	ld	[%fp-4], %g1
	mov	0, %g2
	mov	%g1, %g3
	ldd	[%fp-16], %i4
	or	%i4, %g2, %g2
	or	%i5, %g3, %g3
	std	%g2, [%fp-16]
	.loc 1 115 0
	ldd	[%fp-16], %g2
	.loc 1 116 0
	mov	%g2, %i0
	mov	%g3, %i1
	restore
	jmp	%o7+8
	 nop
	.cfi_endproc
.LFE5:
	.size	__ajit_get_clock_time, .-__ajit_get_clock_time
	.align 4
	.global __ajit_sleep__
	.type	__ajit_sleep__, #function
	.proc	020
__ajit_sleep__:
.LFB6:
	.loc 1 125 0
	.cfi_startproc
	save	%sp, -112, %sp
.LCFI6:
	.cfi_window_save
	.cfi_register 15, 31
	.cfi_def_cfa_register 30
	st	%i0, [%fp+68]
	.loc 1 126 0
	call	__ajit_get_clock_time, 0
	 nop
	std	%o0, [%fp-8]
	.loc 1 127 0
	ld	[%fp+68], %g1
	mov	0, %i2
	mov	%g1, %i3
	ldd	[%fp-8], %i4
	addcc	%i3, %i5, %g3
	addx	%i2, %i4, %g2
	std	%g2, [%fp-16]
	.loc 1 129 0
	b	.L16
	 nop
.L17:
	.loc 1 131 0
	call	__ajit_get_clock_time, 0
	 nop
	std	%o0, [%fp-8]
.L16:
	.loc 1 129 0 discriminator 1
	ld	[%fp-16], %g2
	ld	[%fp-8], %g1
	cmp	%g2, %g1
	bgu	.L17
	 nop
	ld	[%fp-16], %g2
	ld	[%fp-8], %g1
	cmp	%g2, %g1
	bne	.L20
	 nop
	ld	[%fp-12], %g2
	ld	[%fp-4], %g1
	cmp	%g2, %g1
	bgu	.L17
	 nop
.L20:
	.loc 1 133 0
	nop
.L15:
	.loc 1 134 0
	restore
	jmp	%o7+8
	 nop
	.cfi_endproc
.LFE6:
	.size	__ajit_sleep__, .-__ajit_sleep__
	.align 4
	.global __ajit_set_mmu_default_cacheable_bit__
	.type	__ajit_set_mmu_default_cacheable_bit__, #function
	.proc	020
__ajit_set_mmu_default_cacheable_bit__:
.LFB7:
	.loc 1 165 0
	.cfi_startproc
	save	%sp, -104, %sp
.LCFI7:
	.cfi_window_save
	.cfi_register 15, 31
	.cfi_def_cfa_register 30
	mov	%i0, %g1
	stb	%g1, [%fp+68]
	.loc 1 166 0
	ldub	[%fp+68], %g1
	and	%g1, 0xff, %g1
	cmp	%g1, 0
	be	.L22
	 nop
	.loc 1 166 0 is_stmt 0 discriminator 1
	mov	256, %g1
	b	.L23
	 nop
.L22:
	.loc 1 166 0 discriminator 2
	mov	0, %g1
.L23:
	.loc 1 166 0 discriminator 3
	st	%g1, [%fp-4]
	.loc 1 167 0 is_stmt 1 discriminator 3
	st	%g0, [%fp-8]
	.loc 1 168 0 discriminator 3
	ld	[%fp-4], %g1
	ld	[%fp-8], %g2
#APP
! 168 "/home/madhav/AjitToolChain/AjitPublicResources/tools/ajit_access_routines_mt/src/ajit_access_routines.c" 1
	sta %g1, [%g2] 4
	
! 0 "" 2
	.loc 1 170 0 discriminator 3
#NO_APP
	restore
	jmp	%o7+8
	 nop
	.cfi_endproc
.LFE7:
	.size	__ajit_set_mmu_default_cacheable_bit__, .-__ajit_set_mmu_default_cacheable_bit__
	.align 4
	.global __ajit_store_word_mmu_reg__
	.type	__ajit_store_word_mmu_reg__, #function
	.proc	020
__ajit_store_word_mmu_reg__:
.LFB8:
	.loc 1 178 0
	.cfi_startproc
	save	%sp, -96, %sp
.LCFI8:
	.cfi_window_save
	.cfi_register 15, 31
	.cfi_def_cfa_register 30
	st	%i0, [%fp+68]
	st	%i1, [%fp+72]
	.loc 1 179 0
	ld	[%fp+68], %g1
	ld	[%fp+72], %g2
#APP
! 179 "/home/madhav/AjitToolChain/AjitPublicResources/tools/ajit_access_routines_mt/src/ajit_access_routines.c" 1
	sta %g1, [%g2] 4
	
! 0 "" 2
	.loc 1 181 0
#NO_APP
	restore
	jmp	%o7+8
	 nop
	.cfi_endproc
.LFE8:
	.size	__ajit_store_word_mmu_reg__, .-__ajit_store_word_mmu_reg__
	.align 4
	.global __ajit_store_word_mmu_bypass__
	.type	__ajit_store_word_mmu_bypass__, #function
	.proc	020
__ajit_store_word_mmu_bypass__:
.LFB9:
	.loc 1 184 0
	.cfi_startproc
	save	%sp, -96, %sp
.LCFI9:
	.cfi_window_save
	.cfi_register 15, 31
	.cfi_def_cfa_register 30
	st	%i0, [%fp+68]
	st	%i1, [%fp+72]
	.loc 1 186 0
	ld	[%fp+68], %g1
	ld	[%fp+72], %g2
#APP
! 186 "/home/madhav/AjitToolChain/AjitPublicResources/tools/ajit_access_routines_mt/src/ajit_access_routines.c" 1
	sta %g1, [%g2] 32
	
! 0 "" 2
	.loc 1 188 0
#NO_APP
	restore
	jmp	%o7+8
	 nop
	.cfi_endproc
.LFE9:
	.size	__ajit_store_word_mmu_bypass__, .-__ajit_store_word_mmu_bypass__
	.align 4
	.global __ajit_load_word_mmu_reg__
	.type	__ajit_load_word_mmu_reg__, #function
	.proc	016
__ajit_load_word_mmu_reg__:
.LFB10:
	.loc 1 196 0
	.cfi_startproc
	save	%sp, -104, %sp
.LCFI10:
	.cfi_window_save
	.cfi_register 15, 31
	.cfi_def_cfa_register 30
	st	%i0, [%fp+68]
	.loc 1 198 0
	ld	[%fp+68], %g1
#APP
! 198 "/home/madhav/AjitToolChain/AjitPublicResources/tools/ajit_access_routines_mt/src/ajit_access_routines.c" 1
	lda [%g1] 4, %i5
	
! 0 "" 2
#NO_APP
	st	%i5, [%fp-4]
	.loc 1 200 0
	ld	[%fp-4], %g1
	.loc 1 201 0
	mov	%g1, %i0
	restore
	jmp	%o7+8
	 nop
	.cfi_endproc
.LFE10:
	.size	__ajit_load_word_mmu_reg__, .-__ajit_load_word_mmu_reg__
	.align 4
	.global __ajit_load_word_mmu_bypass__
	.type	__ajit_load_word_mmu_bypass__, #function
	.proc	016
__ajit_load_word_mmu_bypass__:
.LFB11:
	.loc 1 205 0
	.cfi_startproc
	save	%sp, -104, %sp
.LCFI11:
	.cfi_window_save
	.cfi_register 15, 31
	.cfi_def_cfa_register 30
	st	%i0, [%fp+68]
	.loc 1 207 0
	ld	[%fp+68], %g1
#APP
! 207 "/home/madhav/AjitToolChain/AjitPublicResources/tools/ajit_access_routines_mt/src/ajit_access_routines.c" 1
	lda [%g1] 32, %i5
	
! 0 "" 2
#NO_APP
	st	%i5, [%fp-4]
	.loc 1 209 0
	ld	[%fp-4], %g1
	.loc 1 210 0
	mov	%g1, %i0
	restore
	jmp	%o7+8
	 nop
	.cfi_endproc
.LFE11:
	.size	__ajit_load_word_mmu_bypass__, .-__ajit_load_word_mmu_bypass__
	.align 4
	.global __ajit_flush_icache__
	.type	__ajit_flush_icache__, #function
	.proc	020
__ajit_flush_icache__:
.LFB12:
	.loc 1 220 0
	.cfi_startproc
	save	%sp, -96, %sp
.LCFI12:
	.cfi_window_save
	.cfi_register 15, 31
	.cfi_def_cfa_register 30
	.loc 1 221 0
#APP
! 221 "/home/madhav/AjitToolChain/AjitPublicResources/tools/ajit_access_routines_mt/src/ajit_access_routines.c" 1
	 flush 
! 0 "" 2
	.loc 1 222 0
#NO_APP
	restore
	jmp	%o7+8
	 nop
	.cfi_endproc
.LFE12:
	.size	__ajit_flush_icache__, .-__ajit_flush_icache__
	.align 4
	.global __ajit_flush_dcache__
	.type	__ajit_flush_dcache__, #function
	.proc	020
__ajit_flush_dcache__:
.LFB13:
	.loc 1 229 0
	.cfi_startproc
	save	%sp, -96, %sp
.LCFI13:
	.cfi_window_save
	.cfi_register 15, 31
	.cfi_def_cfa_register 30
	.loc 1 230 0
#APP
! 230 "/home/madhav/AjitToolChain/AjitPublicResources/tools/ajit_access_routines_mt/src/ajit_access_routines.c" 1
	sta %g0, [%g0] 19
	
! 0 "" 2
	.loc 1 232 0
#NO_APP
	restore
	jmp	%o7+8
	 nop
	.cfi_endproc
.LFE13:
	.size	__ajit_flush_dcache__, .-__ajit_flush_dcache__
	.align 4
	.global __ajit_write_timer_control_register__
	.type	__ajit_write_timer_control_register__, #function
	.proc	020
__ajit_write_timer_control_register__:
.LFB14:
	.loc 1 245 0
	.cfi_startproc
	save	%sp, -104, %sp
.LCFI14:
	.cfi_window_save
	.cfi_register 15, 31
	.cfi_def_cfa_register 30
	st	%i0, [%fp+68]
	.loc 1 246 0
	sethi	%hi(-53248), %g1
	or	%g1, 256, %g1
	st	%g1, [%fp-4]
	.loc 1 247 0
	ld	[%fp+68], %o0
	ld	[%fp-4], %o1
	call	__ajit_store_word_mmu_bypass__, 0
	 nop
	.loc 1 249 0
	restore
	jmp	%o7+8
	 nop
	.cfi_endproc
.LFE14:
	.size	__ajit_write_timer_control_register__, .-__ajit_write_timer_control_register__
	.align 4
	.global __ajit_read_timer_control_register__
	.type	__ajit_read_timer_control_register__, #function
	.proc	016
__ajit_read_timer_control_register__:
.LFB15:
	.loc 1 252 0
	.cfi_startproc
	save	%sp, -104, %sp
.LCFI15:
	.cfi_window_save
	.cfi_register 15, 31
	.cfi_def_cfa_register 30
	.loc 1 253 0
	sethi	%hi(-53248), %g1
	or	%g1, 256, %o0
	call	__ajit_load_word_mmu_bypass__, 0
	 nop
	st	%o0, [%fp-4]
	.loc 1 254 0
	ld	[%fp-4], %g1
	.loc 1 255 0
	mov	%g1, %i0
	restore
	jmp	%o7+8
	 nop
	.cfi_endproc
.LFE15:
	.size	__ajit_read_timer_control_register__, .-__ajit_read_timer_control_register__
	.align 4
	.global __ajit_write_timer_control_register_via_vmap__
	.type	__ajit_write_timer_control_register_via_vmap__, #function
	.proc	020
__ajit_write_timer_control_register_via_vmap__:
.LFB16:
	.loc 1 258 0
	.cfi_startproc
	save	%sp, -96, %sp
.LCFI16:
	.cfi_window_save
	.cfi_register 15, 31
	.cfi_def_cfa_register 30
	st	%i0, [%fp+68]
	.loc 1 259 0
	sethi	%hi(-53248), %g1
	or	%g1, 256, %g1
	ld	[%fp+68], %g2
	st	%g2, [%g1]
	.loc 1 260 0
	restore
	jmp	%o7+8
	 nop
	.cfi_endproc
.LFE16:
	.size	__ajit_write_timer_control_register_via_vmap__, .-__ajit_write_timer_control_register_via_vmap__
	.align 4
	.global __ajit_read_timer_control_register_via_vmap__
	.type	__ajit_read_timer_control_register_via_vmap__, #function
	.proc	016
__ajit_read_timer_control_register_via_vmap__:
.LFB17:
	.loc 1 263 0
	.cfi_startproc
	save	%sp, -104, %sp
.LCFI17:
	.cfi_window_save
	.cfi_register 15, 31
	.cfi_def_cfa_register 30
	.loc 1 264 0
	sethi	%hi(-53248), %g1
	or	%g1, 256, %g1
	ld	[%g1], %g1
	st	%g1, [%fp-4]
	.loc 1 265 0
	ld	[%fp-4], %g1
	.loc 1 266 0
	mov	%g1, %i0
	restore
	jmp	%o7+8
	 nop
	.cfi_endproc
.LFE17:
	.size	__ajit_read_timer_control_register_via_vmap__, .-__ajit_read_timer_control_register_via_vmap__
	.align 4
	.global __ajit_write_serial_control_register__
	.type	__ajit_write_serial_control_register__, #function
	.proc	020
__ajit_write_serial_control_register__:
.LFB18:
	.loc 1 273 0
	.cfi_startproc
	save	%sp, -104, %sp
.LCFI18:
	.cfi_window_save
	.cfi_register 15, 31
	.cfi_def_cfa_register 30
	st	%i0, [%fp+68]
	.loc 1 274 0
	sethi	%hi(-53248), %g1
	or	%g1, 512, %g1
	st	%g1, [%fp-4]
	.loc 1 275 0
	ld	[%fp+68], %g1
	ld	[%fp-4], %g2
#APP
! 275 "/home/madhav/AjitToolChain/AjitPublicResources/tools/ajit_access_routines_mt/src/ajit_access_routines.c" 1
	sta %g1, [%g2] 32
	
! 0 "" 2
	.loc 1 276 0
#NO_APP
	restore
	jmp	%o7+8
	 nop
	.cfi_endproc
.LFE18:
	.size	__ajit_write_serial_control_register__, .-__ajit_write_serial_control_register__
	.align 4
	.global __ajit_serial_configure__
	.type	__ajit_serial_configure__, #function
	.proc	020
__ajit_serial_configure__:
.LFB19:
	.loc 1 279 0
	.cfi_startproc
	save	%sp, -104, %sp
.LCFI19:
	.cfi_window_save
	.cfi_register 15, 31
	.cfi_def_cfa_register 30
	mov	%i0, %g3
	mov	%i1, %g2
	mov	%i2, %g1
	stb	%g3, [%fp+68]
	stb	%g2, [%fp+72]
	stb	%g1, [%fp+76]
	.loc 1 280 0
	st	%g0, [%fp-4]
	.loc 1 281 0
	sethi	%hi(-53248), %g1
	or	%g1, 512, %g1
#APP
! 281 "/home/madhav/AjitToolChain/AjitPublicResources/tools/ajit_access_routines_mt/src/ajit_access_routines.c" 1
	lda [%g1] 32, %i5
	
! 0 "" 2
#NO_APP
	st	%i5, [%fp-4]
	.loc 1 283 0
	ldub	[%fp+68], %g1
	and	%g1, 0xff, %g1
	cmp	%g1, 0
	be	.L40
	 nop
	.loc 1 285 0
	ld	[%fp-4], %g1
	or	%g1, 1, %g1
	st	%g1, [%fp-4]
	b	.L41
	 nop
.L40:
	.loc 1 289 0
	ld	[%fp-4], %g1
	and	%g1, -2, %g1
	st	%g1, [%fp-4]
.L41:
	.loc 1 292 0
	ldub	[%fp+72], %g1
	and	%g1, 0xff, %g1
	cmp	%g1, 0
	be	.L42
	 nop
	.loc 1 294 0
	ld	[%fp-4], %g1
	or	%g1, 2, %g1
	st	%g1, [%fp-4]
	b	.L43
	 nop
.L42:
	.loc 1 298 0
	ld	[%fp-4], %g1
	and	%g1, -3, %g1
	st	%g1, [%fp-4]
.L43:
	.loc 1 301 0
	ldub	[%fp+76], %g1
	and	%g1, 0xff, %g1
	cmp	%g1, 0
	be	.L44
	 nop
	.loc 1 303 0
	ld	[%fp-4], %g1
	or	%g1, 4, %g1
	st	%g1, [%fp-4]
	b	.L45
	 nop
.L44:
	.loc 1 307 0
	ld	[%fp-4], %g1
	and	%g1, -5, %g1
	st	%g1, [%fp-4]
.L45:
	.loc 1 309 0
	ld	[%fp-4], %g1
	sethi	%hi(-53248), %g2
	or	%g2, 512, %g2
#APP
! 309 "/home/madhav/AjitToolChain/AjitPublicResources/tools/ajit_access_routines_mt/src/ajit_access_routines.c" 1
	sta %g1, [%g2] 32
	
! 0 "" 2
	.loc 1 311 0
#NO_APP
	restore
	jmp	%o7+8
	 nop
	.cfi_endproc
.LFE19:
	.size	__ajit_serial_configure__, .-__ajit_serial_configure__
	.align 4
	.global __ajit_serial_uart_reset__
	.type	__ajit_serial_uart_reset__, #function
	.proc	020
__ajit_serial_uart_reset__:
.LFB20:
	.loc 1 314 0
	.cfi_startproc
	save	%sp, -96, %sp
.LCFI20:
	.cfi_window_save
	.cfi_register 15, 31
	.cfi_def_cfa_register 30
	.loc 1 315 0
	mov	0, %o0
	call	__ajit_serial_uart_reset_inner__, 0
	 nop
	.loc 1 316 0
	restore
	jmp	%o7+8
	 nop
	.cfi_endproc
.LFE20:
	.size	__ajit_serial_uart_reset__, .-__ajit_serial_uart_reset__
	.align 4
	.global __ajit_serial_set_baudrate__
	.type	__ajit_serial_set_baudrate__, #function
	.proc	020
__ajit_serial_set_baudrate__:
.LFB21:
	.loc 1 319 0
	.cfi_startproc
	save	%sp, -96, %sp
.LCFI21:
	.cfi_window_save
	.cfi_register 15, 31
	.cfi_def_cfa_register 30
	st	%i0, [%fp+68]
	st	%i1, [%fp+72]
	.loc 1 320 0
	mov	0, %o0
	ld	[%fp+68], %o1
	ld	[%fp+72], %o2
	call	__ajit_serial_set_baudrate_inner__, 0
	 nop
	.loc 1 321 0
	restore
	jmp	%o7+8
	 nop
	.cfi_endproc
.LFE21:
	.size	__ajit_serial_set_baudrate__, .-__ajit_serial_set_baudrate__
	.align 4
	.global __ajit_serial_set_baudrate_via_vmap__
	.type	__ajit_serial_set_baudrate_via_vmap__, #function
	.proc	020
__ajit_serial_set_baudrate_via_vmap__:
.LFB22:
	.loc 1 324 0
	.cfi_startproc
	save	%sp, -96, %sp
.LCFI22:
	.cfi_window_save
	.cfi_register 15, 31
	.cfi_def_cfa_register 30
	st	%i0, [%fp+68]
	st	%i1, [%fp+72]
	.loc 1 325 0
	mov	1, %o0
	ld	[%fp+68], %o1
	ld	[%fp+72], %o2
	call	__ajit_serial_set_baudrate_inner__, 0
	 nop
	.loc 1 326 0
	restore
	jmp	%o7+8
	 nop
	.cfi_endproc
.LFE22:
	.size	__ajit_serial_set_baudrate_via_vmap__, .-__ajit_serial_set_baudrate_via_vmap__
	.align 4
	.global calculate_baud_control_word_for_uart
	.type	calculate_baud_control_word_for_uart, #function
	.proc	016
calculate_baud_control_word_for_uart:
.LFB23:
	.loc 1 335 0
	.cfi_startproc
	save	%sp, -120, %sp
.LCFI23:
	.cfi_window_save
	.cfi_register 15, 31
	.cfi_def_cfa_register 30
	st	%i0, [%fp+68]
	st	%i1, [%fp+72]
	.loc 1 336 0
	st	%g0, [%fp-4]
	.loc 1 339 0
	ld	[%fp+68], %g1
	sll	%g1, 4, %g1
	st	%g1, [%fp-8]
	.loc 1 340 0
	ld	[%fp+72], %g1
	st	%g1, [%fp-12]
	.loc 1 342 0
	ld	[%fp-8], %g1
	cmp	%g1, 0
	be	.L50
	 nop
	.loc 1 342 0 is_stmt 0 discriminator 1
	ld	[%fp-8], %g2
	ld	[%fp-12], %g1
	cmp	%g2, %g1
	bgeu	.L50
	 nop
	b	.L53
	 nop
.L55:
.LBB2:
	.loc 1 352 0 is_stmt 1
	nop
.L53:
.LBB3:
	.loc 1 346 0
	ld	[%fp-12], %g1
	wr	%g0, 0, %y
	ld	[%fp-8], %g3
	nop
	nop
	udiv	%g1, %g3, %g3
	ld	[%fp-8], %g2
	smul	%g3, %g2, %g2
	sub	%g1, %g2, %g1
	st	%g1, [%fp-16]
	.loc 1 347 0
	ld	[%fp-8], %g1
	st	%g1, [%fp-12]
	.loc 1 348 0
	ld	[%fp-16], %g1
	st	%g1, [%fp-8]
	.loc 1 350 0
	ld	[%fp-16], %g1
	cmp	%g1, 0
	bne	.L55
	 nop
	.loc 1 351 0
	nop
.LBE3:
	.loc 1 355 0
	ld	[%fp+68], %g1
	sll	%g1, 4, %g2
	wr	%g0, 0, %y
	ld	[%fp-12], %g1
	nop
	nop
	udiv	%g2, %g1, %g1
	st	%g1, [%fp-20]
	.loc 1 356 0
	ld	[%fp+72], %g1
	wr	%g0, 0, %y
	ld	[%fp-12], %g2
	nop
	nop
	udiv	%g1, %g2, %g2
	ld	[%fp-20], %g1
	sub	%g2, %g1, %g1
	st	%g1, [%fp-24]
	.loc 1 357 0
	ld	[%fp-24], %g1
	sll	%g1, 16, %g2
	ld	[%fp-20], %g1
	and	%g1, 4095, %g1
	or	%g2, %g1, %g1
	st	%g1, [%fp-4]
.L50:
.LBE2:
	.loc 1 360 0
	ld	[%fp-4], %g1
	.loc 1 361 0
	mov	%g1, %i0
	restore
	jmp	%o7+8
	 nop
	.cfi_endproc
.LFE23:
	.size	calculate_baud_control_word_for_uart, .-calculate_baud_control_word_for_uart
	.align 4
	.global __ajit_serial_set_baudrate_inner__
	.type	__ajit_serial_set_baudrate_inner__, #function
	.proc	020
__ajit_serial_set_baudrate_inner__:
.LFB24:
	.loc 1 365 0
	.cfi_startproc
	save	%sp, -104, %sp
.LCFI24:
	.cfi_window_save
	.cfi_register 15, 31
	.cfi_def_cfa_register 30
	mov	%i0, %g1
	st	%i1, [%fp+72]
	st	%i2, [%fp+76]
	stb	%g1, [%fp+68]
	.loc 1 366 0
	sethi	%hi(-52224), %g1
	or	%g1, 8, %g1
	st	%g1, [%fp-4]
	.loc 1 367 0
	ld	[%fp+72], %o0
	ld	[%fp+76], %o1
	call	calculate_baud_control_word_for_uart, 0
	 nop
	st	%o0, [%fp-8]
	.loc 1 369 0
	ldub	[%fp+68], %g1
	and	%g1, 0xff, %g1
	cmp	%g1, 0
	be	.L57
	 nop
	.loc 1 371 0
	ld	[%fp-4], %g1
	ld	[%fp-8], %g2
	st	%g2, [%g1]
	b	.L56
	 nop
.L57:
	.loc 1 375 0
	ld	[%fp-8], %o0
	ld	[%fp-4], %o1
	call	__ajit_store_word_mmu_bypass__, 0
	 nop
.L56:
	.loc 1 377 0
	restore
	jmp	%o7+8
	 nop
	.cfi_endproc
.LFE24:
	.size	__ajit_serial_set_baudrate_inner__, .-__ajit_serial_set_baudrate_inner__
	.align 4
	.global __ajit_read_serial_control_register__
	.type	__ajit_read_serial_control_register__, #function
	.proc	016
__ajit_read_serial_control_register__:
.LFB25:
	.loc 1 381 0
	.cfi_startproc
	save	%sp, -104, %sp
.LCFI25:
	.cfi_window_save
	.cfi_register 15, 31
	.cfi_def_cfa_register 30
	.loc 1 382 0
	sethi	%hi(-53248), %g1
	or	%g1, 512, %g1
	st	%g1, [%fp-4]
	.loc 1 383 0
	st	%g0, [%fp-8]
	.loc 1 384 0
	ld	[%fp-4], %g1
#APP
! 384 "/home/madhav/AjitToolChain/AjitPublicResources/tools/ajit_access_routines_mt/src/ajit_access_routines.c" 1
	lda [%g1] 32, %i5
	
! 0 "" 2
#NO_APP
	st	%i5, [%fp-8]
	.loc 1 385 0
	ld	[%fp-8], %g1
	.loc 1 386 0
	mov	%g1, %i0
	restore
	jmp	%o7+8
	 nop
	.cfi_endproc
.LFE25:
	.size	__ajit_read_serial_control_register__, .-__ajit_read_serial_control_register__
	.align 4
	.global __ajit_write_serial_tx_register__
	.type	__ajit_write_serial_tx_register__, #function
	.proc	020
__ajit_write_serial_tx_register__:
.LFB26:
	.loc 1 390 0
	.cfi_startproc
	save	%sp, -104, %sp
.LCFI26:
	.cfi_window_save
	.cfi_register 15, 31
	.cfi_def_cfa_register 30
	mov	%i0, %g1
	stb	%g1, [%fp+68]
	.loc 1 391 0
	sethi	%hi(-53248), %g1
	or	%g1, 516, %g1
	st	%g1, [%fp-4]
	.loc 1 392 0
	ldub	[%fp+68], %g1
	ld	[%fp-4], %g2
#APP
! 392 "/home/madhav/AjitToolChain/AjitPublicResources/tools/ajit_access_routines_mt/src/ajit_access_routines.c" 1
	stuba %g1, [%g2] 32
	
! 0 "" 2
	.loc 1 393 0
#NO_APP
	restore
	jmp	%o7+8
	 nop
	.cfi_endproc
.LFE26:
	.size	__ajit_write_serial_tx_register__, .-__ajit_write_serial_tx_register__
	.align 4
	.global __ajit_read_serial_tx_register__
	.type	__ajit_read_serial_tx_register__, #function
	.proc	014
__ajit_read_serial_tx_register__:
.LFB27:
	.loc 1 396 0
	.cfi_startproc
	save	%sp, -104, %sp
.LCFI27:
	.cfi_window_save
	.cfi_register 15, 31
	.cfi_def_cfa_register 30
	.loc 1 397 0
	sethi	%hi(-53248), %g1
	or	%g1, 516, %g1
	st	%g1, [%fp-4]
	.loc 1 398 0
	stb	%g0, [%fp-5]
	.loc 1 399 0
	ld	[%fp-4], %g1
#APP
! 399 "/home/madhav/AjitToolChain/AjitPublicResources/tools/ajit_access_routines_mt/src/ajit_access_routines.c" 1
	lduba [%g1] 32, %i5
	
! 0 "" 2
#NO_APP
	stb	%i5, [%fp-5]
	.loc 1 400 0
	ldub	[%fp-5], %g1
	and	%g1, 0xff, %g1
	.loc 1 401 0
	mov	%g1, %i0
	restore
	jmp	%o7+8
	 nop
	.cfi_endproc
.LFE27:
	.size	__ajit_read_serial_tx_register__, .-__ajit_read_serial_tx_register__
	.align 4
	.global __ajit_read_serial_rx_register__
	.type	__ajit_read_serial_rx_register__, #function
	.proc	014
__ajit_read_serial_rx_register__:
.LFB28:
	.loc 1 404 0
	.cfi_startproc
	save	%sp, -104, %sp
.LCFI28:
	.cfi_window_save
	.cfi_register 15, 31
	.cfi_def_cfa_register 30
	.loc 1 405 0
	sethi	%hi(-53248), %g1
	or	%g1, 520, %g1
	st	%g1, [%fp-4]
	.loc 1 406 0
	stb	%g0, [%fp-5]
	.loc 1 407 0
	ld	[%fp-4], %g1
#APP
! 407 "/home/madhav/AjitToolChain/AjitPublicResources/tools/ajit_access_routines_mt/src/ajit_access_routines.c" 1
	lduba [%g1] 32, %i5
	
! 0 "" 2
#NO_APP
	stb	%i5, [%fp-5]
	.loc 1 408 0
	ldub	[%fp-5], %g1
	and	%g1, 0xff, %g1
	.loc 1 409 0
	mov	%g1, %i0
	restore
	jmp	%o7+8
	 nop
	.cfi_endproc
.LFE28:
	.size	__ajit_read_serial_rx_register__, .-__ajit_read_serial_rx_register__
	.align 4
	.global __ajit_serial_putchar__
	.type	__ajit_serial_putchar__, #function
	.proc	04
__ajit_serial_putchar__:
.LFB29:
	.loc 1 414 0
	.cfi_startproc
	save	%sp, -104, %sp
.LCFI29:
	.cfi_window_save
	.cfi_register 15, 31
	.cfi_def_cfa_register 30
	mov	%i0, %g1
	stb	%g1, [%fp+68]
	.loc 1 415 0
	st	%g0, [%fp-8]
	.loc 1 416 0
	sethi	%hi(-53248), %g1
	or	%g1, 512, %g1
#APP
! 416 "/home/madhav/AjitToolChain/AjitPublicResources/tools/ajit_access_routines_mt/src/ajit_access_routines.c" 1
	lda [%g1] 32, %i5
	
! 0 "" 2
#NO_APP
	st	%i5, [%fp-8]
	.loc 1 418 0
	st	%g0, [%fp-4]
	.loc 1 419 0
	ld	[%fp-8], %g1
	and	%g1, 1, %g1
	cmp	%g1, 0
	be	.L67
	 nop
	.loc 1 421 0
	ld	[%fp-8], %g1
	and	%g1, 8, %g1
	cmp	%g1, 0
	bne	.L67
	 nop
	.loc 1 423 0
	ldub	[%fp+68], %g1
	sethi	%hi(-53248), %g2
	or	%g2, 516, %g2
#APP
! 423 "/home/madhav/AjitToolChain/AjitPublicResources/tools/ajit_access_routines_mt/src/ajit_access_routines.c" 1
	stuba %g1, [%g2] 32
	
! 0 "" 2
	.loc 1 425 0
#NO_APP
	ldub	[%fp+68], %g1
	sll	%g1, 24, %g1
	sra	%g1, 24, %g1
	st	%g1, [%fp-4]
.L67:
	.loc 1 428 0
	ld	[%fp-4], %g1
	.loc 1 429 0
	mov	%g1, %i0
	restore
	jmp	%o7+8
	 nop
	.cfi_endproc
.LFE29:
	.size	__ajit_serial_putchar__, .-__ajit_serial_putchar__
	.align 4
	.global __ajit_serial_getchar__
	.type	__ajit_serial_getchar__, #function
	.proc	04
__ajit_serial_getchar__:
.LFB30:
	.loc 1 434 0
	.cfi_startproc
	save	%sp, -112, %sp
.LCFI30:
	.cfi_window_save
	.cfi_register 15, 31
	.cfi_def_cfa_register 30
	.loc 1 435 0
	st	%g0, [%fp-4]
	.loc 1 436 0
	call	__ajit_read_serial_control_register__, 0
	 nop
	st	%o0, [%fp-8]
	.loc 1 437 0
	ld	[%fp-8], %g1
	and	%g1, 2, %g1
	cmp	%g1, 0
	be	.L70
	 nop
	.loc 1 439 0
	ld	[%fp-8], %g1
	and	%g1, 16, %g1
	cmp	%g1, 0
	be	.L70
	 nop
.LBB4:
	.loc 1 441 0
	st	%g0, [%fp-12]
	.loc 1 442 0
	sethi	%hi(-53248), %g1
	or	%g1, 520, %g1
#APP
! 442 "/home/madhav/AjitToolChain/AjitPublicResources/tools/ajit_access_routines_mt/src/ajit_access_routines.c" 1
	lduba [%g1] 32, %i5
	
! 0 "" 2
#NO_APP
	st	%i5, [%fp-12]
	.loc 1 443 0
	ld	[%fp-12], %g1
	st	%g1, [%fp-4]
.L70:
.LBE4:
	.loc 1 446 0
	ld	[%fp-4], %g1
	.loc 1 447 0
	mov	%g1, %i0
	restore
	jmp	%o7+8
	 nop
	.cfi_endproc
.LFE30:
	.size	__ajit_serial_getchar__, .-__ajit_serial_getchar__
	.align 4
	.global __ajit_serial_puts__
	.type	__ajit_serial_puts__, #function
	.proc	020
__ajit_serial_puts__:
.LFB31:
	.loc 1 450 0
	.cfi_startproc
	save	%sp, -104, %sp
.LCFI31:
	.cfi_window_save
	.cfi_register 15, 31
	.cfi_def_cfa_register 30
	st	%i0, [%fp+68]
	st	%i1, [%fp+72]
	.loc 1 452 0
	st	%g0, [%fp-4]
	b	.L73
	 nop
.L76:
.LBB5:
	.loc 1 454 0
	st	%g0, [%fp-8]
	.loc 1 455 0
	b	.L74
	 nop
.L75:
	.loc 1 456 0
	ld	[%fp-4], %g1
	ld	[%fp+68], %g2
	add	%g2, %g1, %g1
	ldub	[%g1], %g1
	sll	%g1, 24, %g1
	sra	%g1, 24, %g1
	mov	%g1, %o0
	call	__ajit_serial_putchar__, 0
	 nop
	st	%o0, [%fp-8]
.L74:
	.loc 1 455 0 discriminator 1
	ld	[%fp-8], %g1
	cmp	%g1, 0
	be	.L75
	 nop
.LBE5:
	.loc 1 452 0
	ld	[%fp-4], %g1
	add	%g1, 1, %g1
	st	%g1, [%fp-4]
.L73:
	.loc 1 452 0 is_stmt 0 discriminator 1
	ld	[%fp-4], %g2
	ld	[%fp+72], %g1
	cmp	%g2, %g1
	blu	.L76
	 nop
	.loc 1 458 0 is_stmt 1
	restore
	jmp	%o7+8
	 nop
	.cfi_endproc
.LFE31:
	.size	__ajit_serial_puts__, .-__ajit_serial_puts__
	.align 4
	.global __ajit_serial_gets__
	.type	__ajit_serial_gets__, #function
	.proc	020
__ajit_serial_gets__:
.LFB32:
	.loc 1 461 0
	.cfi_startproc
	save	%sp, -104, %sp
.LCFI32:
	.cfi_window_save
	.cfi_register 15, 31
	.cfi_def_cfa_register 30
	st	%i0, [%fp+68]
	st	%i1, [%fp+72]
	.loc 1 463 0
	st	%g0, [%fp-4]
	b	.L78
	 nop
.L81:
.LBB6:
	.loc 1 465 0
	st	%g0, [%fp-8]
	.loc 1 466 0
	b	.L79
	 nop
.L80:
	.loc 1 467 0
	call	__ajit_serial_getchar__, 0
	 nop
	st	%o0, [%fp-8]
.L79:
	.loc 1 466 0 discriminator 1
	ld	[%fp-8], %g1
	cmp	%g1, 0
	be	.L80
	 nop
	.loc 1 469 0
	ld	[%fp-4], %g1
	ld	[%fp+68], %g2
	add	%g2, %g1, %g1
	ld	[%fp-8], %g2
	stb	%g2, [%g1]
.LBE6:
	.loc 1 463 0
	ld	[%fp-4], %g1
	add	%g1, 1, %g1
	st	%g1, [%fp-4]
.L78:
	.loc 1 463 0 is_stmt 0 discriminator 1
	ld	[%fp-4], %g2
	ld	[%fp+72], %g1
	cmp	%g2, %g1
	blu	.L81
	 nop
	.loc 1 471 0 is_stmt 1
	restore
	jmp	%o7+8
	 nop
	.cfi_endproc
.LFE32:
	.size	__ajit_serial_gets__, .-__ajit_serial_gets__
	.align 4
	.global __ajit_write_serial_control_register_via_vmap__
	.type	__ajit_write_serial_control_register_via_vmap__, #function
	.proc	020
__ajit_write_serial_control_register_via_vmap__:
.LFB33:
	.loc 1 474 0
	.cfi_startproc
	save	%sp, -96, %sp
.LCFI33:
	.cfi_window_save
	.cfi_register 15, 31
	.cfi_def_cfa_register 30
	st	%i0, [%fp+68]
	.loc 1 475 0
	sethi	%hi(-53248), %g1
	or	%g1, 512, %g1
	ld	[%fp+68], %g2
	st	%g2, [%g1]
	.loc 1 476 0
	restore
	jmp	%o7+8
	 nop
	.cfi_endproc
.LFE33:
	.size	__ajit_write_serial_control_register_via_vmap__, .-__ajit_write_serial_control_register_via_vmap__
	.align 4
	.global __ajit_read_serial_control_register_via_vmap__
	.type	__ajit_read_serial_control_register_via_vmap__, #function
	.proc	016
__ajit_read_serial_control_register_via_vmap__:
.LFB34:
	.loc 1 479 0
	.cfi_startproc
	save	%sp, -104, %sp
.LCFI34:
	.cfi_window_save
	.cfi_register 15, 31
	.cfi_def_cfa_register 30
	.loc 1 480 0
	sethi	%hi(-53248), %g1
	or	%g1, 512, %g1
	ldub	[%g1], %g1
	and	%g1, 0xff, %g1
	st	%g1, [%fp-4]
	.loc 1 481 0
	ld	[%fp-4], %g1
	.loc 1 482 0
	mov	%g1, %i0
	restore
	jmp	%o7+8
	 nop
	.cfi_endproc
.LFE34:
	.size	__ajit_read_serial_control_register_via_vmap__, .-__ajit_read_serial_control_register_via_vmap__
	.align 4
	.global __ajit_write_serial_tx_register_via_vmap__
	.type	__ajit_write_serial_tx_register_via_vmap__, #function
	.proc	020
__ajit_write_serial_tx_register_via_vmap__:
.LFB35:
	.loc 1 485 0
	.cfi_startproc
	save	%sp, -96, %sp
.LCFI35:
	.cfi_window_save
	.cfi_register 15, 31
	.cfi_def_cfa_register 30
	mov	%i0, %g1
	stb	%g1, [%fp+68]
	.loc 1 486 0
	sethi	%hi(-53248), %g1
	or	%g1, 516, %g1
	ldub	[%fp+68], %g2
	stb	%g2, [%g1]
	.loc 1 487 0
	restore
	jmp	%o7+8
	 nop
	.cfi_endproc
.LFE35:
	.size	__ajit_write_serial_tx_register_via_vmap__, .-__ajit_write_serial_tx_register_via_vmap__
	.align 4
	.global __ajit_read_serial_tx_register_via_vmap__
	.type	__ajit_read_serial_tx_register_via_vmap__, #function
	.proc	014
__ajit_read_serial_tx_register_via_vmap__:
.LFB36:
	.loc 1 489 0
	.cfi_startproc
	save	%sp, -104, %sp
.LCFI36:
	.cfi_window_save
	.cfi_register 15, 31
	.cfi_def_cfa_register 30
	.loc 1 490 0
	sethi	%hi(-53248), %g1
	or	%g1, 516, %g1
	ldub	[%g1], %g1
	stb	%g1, [%fp-1]
	.loc 1 491 0
	ldub	[%fp-1], %g1
	and	%g1, 0xff, %g1
	.loc 1 492 0
	mov	%g1, %i0
	restore
	jmp	%o7+8
	 nop
	.cfi_endproc
.LFE36:
	.size	__ajit_read_serial_tx_register_via_vmap__, .-__ajit_read_serial_tx_register_via_vmap__
	.align 4
	.global __ajit_read_serial_rx_register_via_vmap__
	.type	__ajit_read_serial_rx_register_via_vmap__, #function
	.proc	014
__ajit_read_serial_rx_register_via_vmap__:
.LFB37:
	.loc 1 494 0
	.cfi_startproc
	save	%sp, -104, %sp
.LCFI37:
	.cfi_window_save
	.cfi_register 15, 31
	.cfi_def_cfa_register 30
	.loc 1 495 0
	sethi	%hi(-53248), %g1
	or	%g1, 520, %g1
	ldub	[%g1], %g1
	stb	%g1, [%fp-1]
	.loc 1 496 0
	ldub	[%fp-1], %g1
	and	%g1, 0xff, %g1
	.loc 1 497 0
	mov	%g1, %i0
	restore
	jmp	%o7+8
	 nop
	.cfi_endproc
.LFE37:
	.size	__ajit_read_serial_rx_register_via_vmap__, .-__ajit_read_serial_rx_register_via_vmap__
	.align 4
	.global __ajit_serial_putchar_via_vmap__
	.type	__ajit_serial_putchar_via_vmap__, #function
	.proc	04
__ajit_serial_putchar_via_vmap__:
.LFB38:
	.loc 1 501 0
	.cfi_startproc
	save	%sp, -104, %sp
.LCFI38:
	.cfi_window_save
	.cfi_register 15, 31
	.cfi_def_cfa_register 30
	mov	%i0, %g1
	stb	%g1, [%fp+68]
	.loc 1 502 0
	st	%g0, [%fp-8]
	.loc 1 503 0
	sethi	%hi(-53248), %g1
	or	%g1, 512, %g1
	ld	[%g1], %g1
	st	%g1, [%fp-8]
	.loc 1 504 0
	st	%g0, [%fp-4]
	.loc 1 505 0
	ld	[%fp-8], %g1
	and	%g1, 1, %g1
	cmp	%g1, 0
	be	.L91
	 nop
	.loc 1 507 0
	ld	[%fp-8], %g1
	and	%g1, 8, %g1
	cmp	%g1, 0
	bne	.L91
	 nop
	.loc 1 509 0
	sethi	%hi(-53248), %g1
	or	%g1, 516, %g1
	ldub	[%fp+68], %g2
	stb	%g2, [%g1]
	.loc 1 510 0
	ldub	[%fp+68], %g1
	sll	%g1, 24, %g1
	sra	%g1, 24, %g1
	st	%g1, [%fp-4]
.L91:
	.loc 1 513 0
	ld	[%fp-4], %g1
	.loc 1 514 0
	mov	%g1, %i0
	restore
	jmp	%o7+8
	 nop
	.cfi_endproc
.LFE38:
	.size	__ajit_serial_putchar_via_vmap__, .-__ajit_serial_putchar_via_vmap__
	.align 4
	.global __ajit_serial_getchar_via_vmap__
	.type	__ajit_serial_getchar_via_vmap__, #function
	.proc	04
__ajit_serial_getchar_via_vmap__:
.LFB39:
	.loc 1 517 0
	.cfi_startproc
	save	%sp, -112, %sp
.LCFI39:
	.cfi_window_save
	.cfi_register 15, 31
	.cfi_def_cfa_register 30
	.loc 1 518 0
	st	%g0, [%fp-4]
	.loc 1 519 0
	sethi	%hi(-53248), %g1
	or	%g1, 512, %g1
	ld	[%g1], %g1
	st	%g1, [%fp-8]
	.loc 1 520 0
	ld	[%fp-8], %g1
	and	%g1, 2, %g1
	cmp	%g1, 0
	be	.L94
	 nop
	.loc 1 522 0
	ld	[%fp-8], %g1
	and	%g1, 16, %g1
	cmp	%g1, 0
	be	.L94
	 nop
.LBB7:
	.loc 1 524 0
	st	%g0, [%fp-12]
	.loc 1 525 0
	sethi	%hi(-53248), %g1
	or	%g1, 520, %g1
	ldub	[%g1], %g1
	and	%g1, 0xff, %g1
	st	%g1, [%fp-12]
	.loc 1 526 0
	ld	[%fp-12], %g1
	st	%g1, [%fp-4]
.L94:
.LBE7:
	.loc 1 529 0
	ld	[%fp-4], %g1
	.loc 1 530 0
	mov	%g1, %i0
	restore
	jmp	%o7+8
	 nop
	.cfi_endproc
.LFE39:
	.size	__ajit_serial_getchar_via_vmap__, .-__ajit_serial_getchar_via_vmap__
	.align 4
	.global __ajit_serial_puts_via_vmap__
	.type	__ajit_serial_puts_via_vmap__, #function
	.proc	020
__ajit_serial_puts_via_vmap__:
.LFB40:
	.loc 1 533 0
	.cfi_startproc
	save	%sp, -104, %sp
.LCFI40:
	.cfi_window_save
	.cfi_register 15, 31
	.cfi_def_cfa_register 30
	st	%i0, [%fp+68]
	st	%i1, [%fp+72]
	.loc 1 535 0
	st	%g0, [%fp-4]
	b	.L97
	 nop
.L100:
.LBB8:
	.loc 1 537 0
	st	%g0, [%fp-8]
	.loc 1 538 0
	b	.L98
	 nop
.L99:
	.loc 1 539 0
	ld	[%fp-4], %g1
	ld	[%fp+68], %g2
	add	%g2, %g1, %g1
	ldub	[%g1], %g1
	sll	%g1, 24, %g1
	sra	%g1, 24, %g1
	mov	%g1, %o0
	call	__ajit_serial_putchar_via_vmap__, 0
	 nop
	st	%o0, [%fp-8]
.L98:
	.loc 1 538 0 discriminator 1
	ld	[%fp-8], %g1
	cmp	%g1, 0
	be	.L99
	 nop
.LBE8:
	.loc 1 535 0
	ld	[%fp-4], %g1
	add	%g1, 1, %g1
	st	%g1, [%fp-4]
.L97:
	.loc 1 535 0 is_stmt 0 discriminator 1
	ld	[%fp-4], %g2
	ld	[%fp+72], %g1
	cmp	%g2, %g1
	blu	.L100
	 nop
	.loc 1 541 0 is_stmt 1
	restore
	jmp	%o7+8
	 nop
	.cfi_endproc
.LFE40:
	.size	__ajit_serial_puts_via_vmap__, .-__ajit_serial_puts_via_vmap__
	.align 4
	.global __ajit_serial_gets_via_vmap__
	.type	__ajit_serial_gets_via_vmap__, #function
	.proc	020
__ajit_serial_gets_via_vmap__:
.LFB41:
	.loc 1 543 0
	.cfi_startproc
	save	%sp, -104, %sp
.LCFI41:
	.cfi_window_save
	.cfi_register 15, 31
	.cfi_def_cfa_register 30
	st	%i0, [%fp+68]
	st	%i1, [%fp+72]
	.loc 1 545 0
	st	%g0, [%fp-4]
	b	.L102
	 nop
.L105:
.LBB9:
	.loc 1 547 0
	st	%g0, [%fp-8]
	.loc 1 548 0
	b	.L103
	 nop
.L104:
	.loc 1 549 0
	call	__ajit_serial_getchar_via_vmap__, 0
	 nop
	st	%o0, [%fp-8]
.L103:
	.loc 1 548 0 discriminator 1
	ld	[%fp-8], %g1
	cmp	%g1, 0
	be	.L104
	 nop
	.loc 1 551 0
	ld	[%fp-4], %g1
	ld	[%fp+68], %g2
	add	%g2, %g1, %g1
	ld	[%fp-8], %g2
	stb	%g2, [%g1]
.LBE9:
	.loc 1 545 0
	ld	[%fp-4], %g1
	add	%g1, 1, %g1
	st	%g1, [%fp-4]
.L102:
	.loc 1 545 0 is_stmt 0 discriminator 1
	ld	[%fp-4], %g2
	ld	[%fp+72], %g1
	cmp	%g2, %g1
	blu	.L105
	 nop
	.loc 1 553 0 is_stmt 1
	restore
	jmp	%o7+8
	 nop
	.cfi_endproc
.LFE41:
	.size	__ajit_serial_gets_via_vmap__, .-__ajit_serial_gets_via_vmap__
	.align 4
	.global __ajit_serial_configure_via_vmap__
	.type	__ajit_serial_configure_via_vmap__, #function
	.proc	020
__ajit_serial_configure_via_vmap__:
.LFB42:
	.loc 1 556 0
	.cfi_startproc
	save	%sp, -104, %sp
.LCFI42:
	.cfi_window_save
	.cfi_register 15, 31
	.cfi_def_cfa_register 30
	mov	%i0, %g3
	mov	%i1, %g2
	mov	%i2, %g1
	stb	%g3, [%fp+68]
	stb	%g2, [%fp+72]
	stb	%g1, [%fp+76]
	.loc 1 557 0
	sethi	%hi(-53248), %g1
	or	%g1, 512, %g1
	ld	[%g1], %g1
	st	%g1, [%fp-4]
	.loc 1 560 0
	ldub	[%fp+68], %g1
	and	%g1, 0xff, %g1
	cmp	%g1, 0
	be	.L107
	 nop
	.loc 1 562 0
	ld	[%fp-4], %g1
	or	%g1, 1, %g1
	st	%g1, [%fp-4]
	b	.L108
	 nop
.L107:
	.loc 1 566 0
	ld	[%fp-4], %g1
	and	%g1, -2, %g1
	st	%g1, [%fp-4]
.L108:
	.loc 1 569 0
	ldub	[%fp+72], %g1
	and	%g1, 0xff, %g1
	cmp	%g1, 0
	be	.L109
	 nop
	.loc 1 571 0
	ld	[%fp-4], %g1
	or	%g1, 2, %g1
	st	%g1, [%fp-4]
	b	.L110
	 nop
.L109:
	.loc 1 575 0
	ld	[%fp-4], %g1
	and	%g1, -3, %g1
	st	%g1, [%fp-4]
.L110:
	.loc 1 578 0
	ldub	[%fp+76], %g1
	and	%g1, 0xff, %g1
	cmp	%g1, 0
	be	.L111
	 nop
	.loc 1 580 0
	ld	[%fp-4], %g1
	or	%g1, 4, %g1
	st	%g1, [%fp-4]
	b	.L112
	 nop
.L111:
	.loc 1 584 0
	ld	[%fp-4], %g1
	and	%g1, -5, %g1
	st	%g1, [%fp-4]
.L112:
	.loc 1 586 0
	sethi	%hi(-53248), %g1
	or	%g1, 512, %g1
	ld	[%fp-4], %g2
	st	%g2, [%g1]
	.loc 1 587 0
	restore
	jmp	%o7+8
	 nop
	.cfi_endproc
.LFE42:
	.size	__ajit_serial_configure_via_vmap__, .-__ajit_serial_configure_via_vmap__
	.align 4
	.global __ajit_serial_uart_reset_via_vmap__
	.type	__ajit_serial_uart_reset_via_vmap__, #function
	.proc	020
__ajit_serial_uart_reset_via_vmap__:
.LFB43:
	.loc 1 590 0
	.cfi_startproc
	save	%sp, -96, %sp
.LCFI43:
	.cfi_window_save
	.cfi_register 15, 31
	.cfi_def_cfa_register 30
	.loc 1 591 0
	mov	1, %o0
	call	__ajit_serial_uart_reset_inner__, 0
	 nop
	.loc 1 592 0
	restore
	jmp	%o7+8
	 nop
	.cfi_endproc
.LFE43:
	.size	__ajit_serial_uart_reset_via_vmap__, .-__ajit_serial_uart_reset_via_vmap__
	.align 4
	.global __ajit_serial_uart_reset_inner__
	.type	__ajit_serial_uart_reset_inner__, #function
	.proc	020
__ajit_serial_uart_reset_inner__:
.LFB44:
	.loc 1 595 0
	.cfi_startproc
	save	%sp, -104, %sp
.LCFI44:
	.cfi_window_save
	.cfi_register 15, 31
	.cfi_def_cfa_register 30
	mov	%i0, %g1
	stb	%g1, [%fp+68]
	.loc 1 598 0
	mov	8, %g1
	st	%g1, [%fp-4]
	.loc 1 599 0
	ldub	[%fp+68], %g1
	and	%g1, 0xff, %g1
	cmp	%g1, 0
	be	.L115
	 nop
	.loc 1 601 0
	call	__ajit_read_serial_control_register_via_vmap__, 0
	 nop
	st	%o0, [%fp-8]
	.loc 1 602 0
	ld	[%fp-4], %o0
	call	__ajit_write_serial_control_register_via_vmap__, 0
	 nop
	.loc 1 603 0
	ld	[%fp-8], %o0
	call	__ajit_write_serial_control_register_via_vmap__, 0
	 nop
	b	.L114
	 nop
.L115:
	.loc 1 607 0
	call	__ajit_read_serial_control_register__, 0
	 nop
	st	%o0, [%fp-8]
	.loc 1 608 0
	ld	[%fp-4], %o0
	call	__ajit_write_serial_control_register__, 0
	 nop
	.loc 1 609 0
	ld	[%fp-8], %o0
	call	__ajit_write_serial_control_register__, 0
	 nop
.L114:
	.loc 1 611 0
	restore
	jmp	%o7+8
	 nop
	.cfi_endproc
.LFE44:
	.size	__ajit_serial_uart_reset_inner__, .-__ajit_serial_uart_reset_inner__
	.align 4
	.global __ajit_write_irc_control_register__
	.type	__ajit_write_irc_control_register__, #function
	.proc	020
__ajit_write_irc_control_register__:
.LFB45:
	.loc 1 617 0
	.cfi_startproc
	save	%sp, -104, %sp
.LCFI45:
	.cfi_window_save
	.cfi_register 15, 31
	.cfi_def_cfa_register 30
	st	%i0, [%fp+68]
	.loc 1 618 0
	sethi	%hi(-53248), %g1
	st	%g1, [%fp-4]
	.loc 1 619 0
	ld	[%fp+68], %o0
	ld	[%fp-4], %o1
	call	__ajit_store_word_mmu_bypass__, 0
	 nop
	.loc 1 620 0
	restore
	jmp	%o7+8
	 nop
	.cfi_endproc
.LFE45:
	.size	__ajit_write_irc_control_register__, .-__ajit_write_irc_control_register__
	.align 4
	.global __ajit_read_irc_control_register__
	.type	__ajit_read_irc_control_register__, #function
	.proc	016
__ajit_read_irc_control_register__:
.LFB46:
	.loc 1 623 0
	.cfi_startproc
	save	%sp, -104, %sp
.LCFI46:
	.cfi_window_save
	.cfi_register 15, 31
	.cfi_def_cfa_register 30
	.loc 1 624 0
	sethi	%hi(-53248), %g1
	st	%g1, [%fp-4]
	.loc 1 625 0
	ld	[%fp-4], %o0
	call	__ajit_load_word_mmu_bypass__, 0
	 nop
	st	%o0, [%fp-8]
	.loc 1 626 0
	ld	[%fp-8], %g1
	.loc 1 627 0
	mov	%g1, %i0
	restore
	jmp	%o7+8
	 nop
	.cfi_endproc
.LFE46:
	.size	__ajit_read_irc_control_register__, .-__ajit_read_irc_control_register__
	.align 4
	.global __ajit_write_irc_control_register_via_vmap__
	.type	__ajit_write_irc_control_register_via_vmap__, #function
	.proc	020
__ajit_write_irc_control_register_via_vmap__:
.LFB47:
	.loc 1 630 0
	.cfi_startproc
	save	%sp, -96, %sp
.LCFI47:
	.cfi_window_save
	.cfi_register 15, 31
	.cfi_def_cfa_register 30
	st	%i0, [%fp+68]
	.loc 1 631 0
	sethi	%hi(-53248), %g1
	ld	[%fp+68], %g2
	st	%g2, [%g1]
	.loc 1 632 0
	restore
	jmp	%o7+8
	 nop
	.cfi_endproc
.LFE47:
	.size	__ajit_write_irc_control_register_via_vmap__, .-__ajit_write_irc_control_register_via_vmap__
	.align 4
	.global __ajit_read_irc_control_register_via_vmap__
	.type	__ajit_read_irc_control_register_via_vmap__, #function
	.proc	016
__ajit_read_irc_control_register_via_vmap__:
.LFB48:
	.loc 1 635 0
	.cfi_startproc
	save	%sp, -104, %sp
.LCFI48:
	.cfi_window_save
	.cfi_register 15, 31
	.cfi_def_cfa_register 30
	.loc 1 636 0
	sethi	%hi(-53248), %g1
	ld	[%g1], %g1
	st	%g1, [%fp-4]
	.loc 1 637 0
	ld	[%fp-4], %g1
	.loc 1 638 0
	mov	%g1, %i0
	restore
	jmp	%o7+8
	 nop
	.cfi_endproc
.LFE48:
	.size	__ajit_read_irc_control_register_via_vmap__, .-__ajit_read_irc_control_register_via_vmap__
	.align 4
	.global __ajit_write_spi_master_register__
	.type	__ajit_write_spi_master_register__, #function
	.proc	020
__ajit_write_spi_master_register__:
.LFB49:
	.loc 1 670 0
	.cfi_startproc
	save	%sp, -104, %sp
.LCFI49:
	.cfi_window_save
	.cfi_register 15, 31
	.cfi_def_cfa_register 30
	mov	%i0, %g2
	mov	%i1, %g1
	stb	%g2, [%fp+68]
	stb	%g1, [%fp+72]
	.loc 1 671 0
	ldub	[%fp+68], %g1
	and	%g1, 0xff, %g1
	sll	%g1, 2, %g1
	mov	%g1, %g2
	sethi	%hi(-53248), %g1
	or	%g1, 768, %g1
	add	%g2, %g1, %g1
	st	%g1, [%fp-4]
	.loc 1 672 0
	ldub	[%fp+72], %g1
	and	%g1, 0xff, %g1
	mov	%g1, %o0
	ld	[%fp-4], %o1
	call	__ajit_store_word_mmu_bypass__, 0
	 nop
	.loc 1 673 0
	restore
	jmp	%o7+8
	 nop
	.cfi_endproc
.LFE49:
	.size	__ajit_write_spi_master_register__, .-__ajit_write_spi_master_register__
	.align 4
	.global __ajit_write_spi_master_register_via_vmap__
	.type	__ajit_write_spi_master_register_via_vmap__, #function
	.proc	020
__ajit_write_spi_master_register_via_vmap__:
.LFB50:
	.loc 1 676 0
	.cfi_startproc
	save	%sp, -104, %sp
.LCFI50:
	.cfi_window_save
	.cfi_register 15, 31
	.cfi_def_cfa_register 30
	mov	%i0, %g2
	mov	%i1, %g1
	stb	%g2, [%fp+68]
	stb	%g1, [%fp+72]
	.loc 1 677 0
	ldub	[%fp+68], %g1
	and	%g1, 0xff, %g1
	sll	%g1, 2, %g1
	mov	%g1, %g2
	sethi	%hi(-53248), %g1
	or	%g1, 768, %g1
	add	%g2, %g1, %g1
	st	%g1, [%fp-4]
	.loc 1 680 0
	ld	[%fp-4], %g1
	ldub	[%fp+72], %g2
	stb	%g2, [%g1]
	.loc 1 681 0
	restore
	jmp	%o7+8
	 nop
	.cfi_endproc
.LFE50:
	.size	__ajit_write_spi_master_register_via_vmap__, .-__ajit_write_spi_master_register_via_vmap__
	.align 4
	.global __ajit_read_spi_master_register__
	.type	__ajit_read_spi_master_register__, #function
	.proc	014
__ajit_read_spi_master_register__:
.LFB51:
	.loc 1 693 0
	.cfi_startproc
	save	%sp, -104, %sp
.LCFI51:
	.cfi_window_save
	.cfi_register 15, 31
	.cfi_def_cfa_register 30
	mov	%i0, %g1
	stb	%g1, [%fp+68]
	.loc 1 694 0
	ldub	[%fp+68], %g1
	and	%g1, 0xff, %g1
	sll	%g1, 2, %g1
	mov	%g1, %g2
	sethi	%hi(-53248), %g1
	or	%g1, 768, %g1
	add	%g2, %g1, %g1
	st	%g1, [%fp-4]
	.loc 1 695 0
	ld	[%fp-4], %o0
	call	__ajit_load_word_mmu_bypass__, 0
	 nop
	st	%o0, [%fp-8]
	.loc 1 696 0
	ld	[%fp-8], %g1
	and	%g1, 0xff, %g1
	.loc 1 697 0
	mov	%g1, %i0
	restore
	jmp	%o7+8
	 nop
	.cfi_endproc
.LFE51:
	.size	__ajit_read_spi_master_register__, .-__ajit_read_spi_master_register__
	.align 4
	.global __ajit_read_spi_master_register_via_vmap__
	.type	__ajit_read_spi_master_register_via_vmap__, #function
	.proc	014
__ajit_read_spi_master_register_via_vmap__:
.LFB52:
	.loc 1 700 0
	.cfi_startproc
	save	%sp, -104, %sp
.LCFI52:
	.cfi_window_save
	.cfi_register 15, 31
	.cfi_def_cfa_register 30
	mov	%i0, %g1
	stb	%g1, [%fp+68]
	.loc 1 701 0
	ldub	[%fp+68], %g1
	and	%g1, 0xff, %g1
	sll	%g1, 2, %g1
	mov	%g1, %g2
	sethi	%hi(-53248), %g1
	or	%g1, 768, %g1
	add	%g2, %g1, %g1
	st	%g1, [%fp-4]
	.loc 1 704 0
	ld	[%fp-4], %g1
	ldub	[%g1], %g1
	and	%g1, 0xff, %g1
	st	%g1, [%fp-8]
	.loc 1 706 0
	ld	[%fp-8], %g1
	and	%g1, 0xff, %g1
	.loc 1 707 0
	mov	%g1, %i0
	restore
	jmp	%o7+8
	 nop
	.cfi_endproc
.LFE52:
	.size	__ajit_read_spi_master_register_via_vmap__, .-__ajit_read_spi_master_register_via_vmap__
	.align 4
	.global __ajit_gpio_xfer__
	.type	__ajit_gpio_xfer__, #function
	.proc	016
__ajit_gpio_xfer__:
.LFB53:
	.loc 1 715 0
	.cfi_startproc
	save	%sp, -112, %sp
.LCFI53:
	.cfi_window_save
	.cfi_register 15, 31
	.cfi_def_cfa_register 30
	mov	%i0, %g1
	stb	%g1, [%fp+68]
	.loc 1 719 0
	st	%g0, [%fp-12]
	.loc 1 720 0
	mov	1, %g1
	st	%g1, [%fp-8]
	.loc 1 723 0
	ldub	[%fp+68], %g1
	and	%g1, 0xff, %g1
	mov	0, %o0
	mov	%g1, %o1
	call	__ajit_write_spi_master_register__, 0
	 nop
	.loc 1 727 0
	mov	19, %g1
	stb	%g1, [%fp-13]
	.loc 1 730 0
	ldub	[%fp-13], %g1
	and	%g1, 0xff, %g1
	mov	2, %o0
	mov	%g1, %o1
	call	__ajit_write_spi_master_register__, 0
	 nop
	.loc 1 733 0
	mov	256, %g1
	st	%g1, [%fp-4]
	.loc 1 734 0
	b	.L130
	 nop
.L131:
	.loc 1 736 0
	mov	2, %o0
	call	__ajit_read_spi_master_register__, 0
	 nop
	mov	%o0, %g1
	and	%g1, 0xff, %g1
	st	%g1, [%fp-8]
	.loc 1 737 0
	ld	[%fp-4], %g1
	add	%g1, -1, %g1
	st	%g1, [%fp-4]
.L130:
	.loc 1 734 0 discriminator 1
	ld	[%fp-4], %g1
	sra	%g1, 31, %g2
	ld	[%fp-4], %g1
	sub	%g2, %g1, %g1
	srl	%g1, 31, %g1
	and	%g1, 0xff, %g2
	ld	[%fp-8], %g1
	and	%g2, %g1, %g1
	cmp	%g1, 0
	bne	.L131
	 nop
	.loc 1 741 0
	mov	0, %o0
	call	__ajit_read_spi_master_register__, 0
	 nop
	mov	%o0, %g1
	and	%g1, 0xff, %g1
	st	%g1, [%fp-12]
	.loc 1 742 0
	ld	[%fp-12], %g1
	.loc 1 743 0
	mov	%g1, %i0
	restore
	jmp	%o7+8
	 nop
	.cfi_endproc
.LFE53:
	.size	__ajit_gpio_xfer__, .-__ajit_gpio_xfer__
	.align 4
	.global __ajit_gpio_xfer_via_vmap__
	.type	__ajit_gpio_xfer_via_vmap__, #function
	.proc	016
__ajit_gpio_xfer_via_vmap__:
.LFB54:
	.loc 1 746 0
	.cfi_startproc
	save	%sp, -112, %sp
.LCFI54:
	.cfi_window_save
	.cfi_register 15, 31
	.cfi_def_cfa_register 30
	mov	%i0, %g1
	stb	%g1, [%fp+68]
	.loc 1 750 0
	st	%g0, [%fp-12]
	.loc 1 751 0
	mov	1, %g1
	st	%g1, [%fp-8]
	.loc 1 754 0
	ldub	[%fp+68], %g1
	and	%g1, 0xff, %g1
	mov	0, %o0
	mov	%g1, %o1
	call	__ajit_write_spi_master_register_via_vmap__, 0
	 nop
	.loc 1 758 0
	mov	19, %g1
	stb	%g1, [%fp-13]
	.loc 1 761 0
	ldub	[%fp-13], %g1
	and	%g1, 0xff, %g1
	mov	2, %o0
	mov	%g1, %o1
	call	__ajit_write_spi_master_register_via_vmap__, 0
	 nop
	.loc 1 764 0
	mov	256, %g1
	st	%g1, [%fp-4]
	.loc 1 765 0
	b	.L134
	 nop
.L135:
	.loc 1 767 0
	mov	2, %o0
	call	__ajit_read_spi_master_register_via_vmap__, 0
	 nop
	mov	%o0, %g1
	and	%g1, 0xff, %g1
	st	%g1, [%fp-8]
	.loc 1 768 0
	ld	[%fp-4], %g1
	add	%g1, -1, %g1
	st	%g1, [%fp-4]
.L134:
	.loc 1 765 0 discriminator 1
	ld	[%fp-4], %g1
	sra	%g1, 31, %g2
	ld	[%fp-4], %g1
	sub	%g2, %g1, %g1
	srl	%g1, 31, %g1
	and	%g1, 0xff, %g2
	ld	[%fp-8], %g1
	and	%g2, %g1, %g1
	cmp	%g1, 0
	bne	.L135
	 nop
	.loc 1 772 0
	mov	0, %o0
	call	__ajit_read_spi_master_register_via_vmap__, 0
	 nop
	mov	%o0, %g1
	and	%g1, 0xff, %g1
	st	%g1, [%fp-12]
	.loc 1 773 0
	ld	[%fp-12], %g1
	.loc 1 774 0
	mov	%g1, %i0
	restore
	jmp	%o7+8
	 nop
	.cfi_endproc
.LFE54:
	.size	__ajit_gpio_xfer_via_vmap__, .-__ajit_gpio_xfer_via_vmap__
	.align 4
	.global __ajit_ta_0__
	.type	__ajit_ta_0__, #function
	.proc	020
__ajit_ta_0__:
.LFB55:
	.loc 1 777 0
	.cfi_startproc
	save	%sp, -96, %sp
.LCFI55:
	.cfi_window_save
	.cfi_register 15, 31
	.cfi_def_cfa_register 30
	.loc 1 778 0
#APP
! 778 "/home/madhav/AjitToolChain/AjitPublicResources/tools/ajit_access_routines_mt/src/ajit_access_routines.c" 1
	ta 0; nop; nop;
! 0 "" 2
	.loc 1 779 0
#NO_APP
	restore
	jmp	%o7+8
	 nop
	.cfi_endproc
.LFE55:
	.size	__ajit_ta_0__, .-__ajit_ta_0__
	.align 4
	.global __ajit_fsqrtd__
	.type	__ajit_fsqrtd__, #function
	.proc	020
__ajit_fsqrtd__:
.LFB56:
	.loc 1 782 0
	.cfi_startproc
	save	%sp, -96, %sp
.LCFI56:
	.cfi_window_save
	.cfi_register 15, 31
	.cfi_def_cfa_register 30
	st	%i0, [%fp+68]
	st	%i1, [%fp+72]
	.loc 1 783 0
	ld	[%fp+68], %g1
	ld	[%fp+72], %g2
#APP
! 783 "/home/madhav/AjitToolChain/AjitPublicResources/tools/ajit_access_routines_mt/src/ajit_access_routines.c" 1
	ldd [%g1], %f0; fsqrtd %f0, %f2; std %f2, [%g2];
! 0 "" 2
	.loc 1 784 0
#NO_APP
	restore
	jmp	%o7+8
	 nop
	.cfi_endproc
.LFE56:
	.size	__ajit_fsqrtd__, .-__ajit_fsqrtd__
	.align 4
	.global __ajit_fsqrts__
	.type	__ajit_fsqrts__, #function
	.proc	020
__ajit_fsqrts__:
.LFB57:
	.loc 1 787 0
	.cfi_startproc
	save	%sp, -96, %sp
.LCFI57:
	.cfi_window_save
	.cfi_register 15, 31
	.cfi_def_cfa_register 30
	st	%i0, [%fp+68]
	st	%i1, [%fp+72]
	.loc 1 788 0
	ld	[%fp+68], %g1
	ld	[%fp+72], %g2
#APP
! 788 "/home/madhav/AjitToolChain/AjitPublicResources/tools/ajit_access_routines_mt/src/ajit_access_routines.c" 1
	ld [%g1], %f0; fsqrts %f0, %f1; st %f1, [%g2];
! 0 "" 2
	.loc 1 789 0
#NO_APP
	restore
	jmp	%o7+8
	 nop
	.cfi_endproc
.LFE57:
	.size	__ajit_fsqrts__, .-__ajit_fsqrts__
	.align 4
	.global __ajit_fitod__
	.type	__ajit_fitod__, #function
	.proc	020
__ajit_fitod__:
.LFB58:
	.loc 1 792 0
	.cfi_startproc
	save	%sp, -96, %sp
.LCFI58:
	.cfi_window_save
	.cfi_register 15, 31
	.cfi_def_cfa_register 30
	st	%i0, [%fp+68]
	st	%i1, [%fp+72]
	.loc 1 793 0
	ld	[%fp+68], %g1
	ld	[%fp+72], %g2
#APP
! 793 "/home/madhav/AjitToolChain/AjitPublicResources/tools/ajit_access_routines_mt/src/ajit_access_routines.c" 1
	ld [%g1], %f0; fitod %f0, %f2; std %f2, [%g2];
! 0 "" 2
	.loc 1 794 0
#NO_APP
	restore
	jmp	%o7+8
	 nop
	.cfi_endproc
.LFE58:
	.size	__ajit_fitod__, .-__ajit_fitod__
	.align 4
	.global __ajit_fitos__
	.type	__ajit_fitos__, #function
	.proc	020
__ajit_fitos__:
.LFB59:
	.loc 1 797 0
	.cfi_startproc
	save	%sp, -96, %sp
.LCFI59:
	.cfi_window_save
	.cfi_register 15, 31
	.cfi_def_cfa_register 30
	st	%i0, [%fp+68]
	st	%i1, [%fp+72]
	.loc 1 798 0
	ld	[%fp+68], %g1
	ld	[%fp+72], %g2
#APP
! 798 "/home/madhav/AjitToolChain/AjitPublicResources/tools/ajit_access_routines_mt/src/ajit_access_routines.c" 1
	ld [%g1], %f0; fitos %f0, %f1; st %f1, [%g2];
! 0 "" 2
	.loc 1 799 0
#NO_APP
	restore
	jmp	%o7+8
	 nop
	.cfi_endproc
.LFE59:
	.size	__ajit_fitos__, .-__ajit_fitos__
	.align 4
	.global __ajit_fdtoi__
	.type	__ajit_fdtoi__, #function
	.proc	020
__ajit_fdtoi__:
.LFB60:
	.loc 1 802 0
	.cfi_startproc
	save	%sp, -96, %sp
.LCFI60:
	.cfi_window_save
	.cfi_register 15, 31
	.cfi_def_cfa_register 30
	st	%i0, [%fp+68]
	st	%i1, [%fp+72]
	.loc 1 803 0
	ld	[%fp+68], %g1
	ld	[%fp+72], %g2
#APP
! 803 "/home/madhav/AjitToolChain/AjitPublicResources/tools/ajit_access_routines_mt/src/ajit_access_routines.c" 1
	ldd [%g1], %f0; fdtoi %f0, %f2; st %f2, [%g2];
! 0 "" 2
	.loc 1 804 0
#NO_APP
	restore
	jmp	%o7+8
	 nop
	.cfi_endproc
.LFE60:
	.size	__ajit_fdtoi__, .-__ajit_fdtoi__
	.align 4
	.global __ajit_fstoi__
	.type	__ajit_fstoi__, #function
	.proc	020
__ajit_fstoi__:
.LFB61:
	.loc 1 807 0
	.cfi_startproc
	save	%sp, -96, %sp
.LCFI61:
	.cfi_window_save
	.cfi_register 15, 31
	.cfi_def_cfa_register 30
	st	%i0, [%fp+68]
	st	%i1, [%fp+72]
	.loc 1 808 0
	ld	[%fp+68], %g1
	ld	[%fp+72], %g2
#APP
! 808 "/home/madhav/AjitToolChain/AjitPublicResources/tools/ajit_access_routines_mt/src/ajit_access_routines.c" 1
	ld [%g1], %f0; fstoi %f0, %f1; st %f1, [%g2];
! 0 "" 2
	.loc 1 809 0
#NO_APP
	restore
	jmp	%o7+8
	 nop
	.cfi_endproc
.LFE61:
	.size	__ajit_fstoi__, .-__ajit_fstoi__
.Letext0:
	.file 2 "/home/madhav/AjitToolChain/build/buildroot-2014.08/output/host/usr/lib/gcc/sparc-buildroot-linux-uclibc/4.7.4/include/stdint-gcc.h"
	.section	.note.GNU-stack,"",@progbits
