
.//main.elf:     file format elf32-sparc


Disassembly of section .text:

00000000 <_start>:
       0:	40 00 00 9a 	call  268 <clear_stack_pointers>
       4:	01 00 00 00 	nop 

00000008 <CORTOS_SET_PSR>:
       8:	21 00 00 04 	sethi  %hi(0x1000), %l0
       c:	a0 14 20 e0 	or  %l0, 0xe0, %l0	! 10e0 <ee_vsprintf+0x418>
      10:	81 88 00 10 	mov  %l0, %psr

00000014 <COROTS_WIMSET>:
      14:	a0 10 20 01 	mov  1, %l0
      18:	81 94 20 00 	mov  %l0, %wim
      1c:	21 00 00 1c 	sethi  %hi(0x7000), %l0
      20:	a0 14 20 00 	mov  %l0, %l0	! 7000 <trap_table_base>
      24:	81 9c 20 00 	mov  %l0, %tbr

00000028 <CORTOS_READ_CORE_THREAD_ID>:
      28:	a3 47 40 00 	rd  %asr29, %l1

0000002c <CORTOS_SETUP_THREADS>:
      2c:	25 14 14 80 	sethi  %hi(0x50520000), %l2
      30:	80 a4 40 12 	cmp  %l1, %l2
      34:	12 80 00 89 	bne  258 <CORTOS_HALT_ERROR>
      38:	01 00 00 00 	nop 
      3c:	1d 00 00 af 	sethi  %hi(0x2bc00), %sp
      40:	9c 13 a3 a0 	or  %sp, 0x3a0, %sp	! 2bfa0 <ajit_global_interrupt_handlers+0x20cf8>
      44:	bc 10 00 00 	mov  %g0, %fp
      48:	05 00 00 29 	sethi  %hi(0xa400), %g2
      4c:	84 10 a1 48 	or  %g2, 0x148, %g2	! a548 <INIT_BY_00_DONE>
      50:	c4 00 80 00 	ld  [ %g2 ], %g2
      54:	86 10 20 00 	clr  %g3
      58:	c6 20 80 00 	st  %g3, [ %g2 ]
      5c:	05 00 00 29 	sethi  %hi(0xa400), %g2
      60:	84 10 a1 44 	or  %g2, 0x144, %g2	! a544 <PT_FLAG>
      64:	c4 00 80 00 	ld  [ %g2 ], %g2
      68:	86 10 20 00 	clr  %g3
      6c:	c6 20 80 00 	st  %g3, [ %g2 ]
      70:	40 00 00 53 	call  1bc <__cortos_init_region_to_zero>
      74:	01 00 00 00 	nop 
      78:	40 00 15 e2 	call  5800 <page_table_setup>
      7c:	01 00 00 00 	nop 
      80:	2d 00 00 29 	sethi  %hi(0xa400), %l6
      84:	ac 15 a1 44 	or  %l6, 0x144, %l6	! a544 <PT_FLAG>
      88:	ec 05 80 00 	ld  [ %l6 ], %l6
      8c:	ae 10 20 01 	mov  1, %l7
      90:	ee 25 80 00 	st  %l7, [ %l6 ]
      94:	40 00 17 4b 	call  5dc0 <set_context_table_pointer>
      98:	01 00 00 00 	nop 
      9c:	90 10 20 01 	mov  1, %o0	! 1 <_start+0x1>
      a0:	d0 a0 00 80 	sta  %o0, [ %g0 ] #ASI_N
      a4:	40 00 00 a4 	call  334 <cortos_init_locks>
      a8:	01 00 00 00 	nop 
      ac:	40 00 07 a4 	call  1f3c <__cortos_bpool>
      b0:	01 00 00 00 	nop 
      b4:	40 00 07 c7 	call  1fd0 <__cortos_bpool_ncram>
      b8:	01 00 00 00 	nop 
      bc:	40 00 02 03 	call  8c8 <cortos_init_hw_traps>
      c0:	01 00 00 00 	nop 
      c4:	40 00 02 06 	call  8dc <cortos_init_sw_traps>
      c8:	01 00 00 00 	nop 
      cc:	40 00 01 2b 	call  578 <__cortos_enable_serial_interrupt>
      d0:	01 00 00 00 	nop 
      d4:	40 00 00 e5 	call  468 <cortos_init_printing>
      d8:	01 00 00 00 	nop 
      dc:	40 00 01 bd 	call  7d0 <cortos_init_logging>
      e0:	01 00 00 00 	nop 
      e4:	05 00 00 29 	sethi  %hi(0xa400), %g2
      e8:	84 10 a1 48 	or  %g2, 0x148, %g2	! a548 <INIT_BY_00_DONE>
      ec:	c4 00 80 00 	ld  [ %g2 ], %g2
      f0:	86 10 20 01 	mov  1, %g3
      f4:	c6 20 80 00 	st  %g3, [ %g2 ]
      f8:	a3 47 40 00 	rd  %asr29, %l1
      fc:	10 80 00 15 	b  150 <CORTOS_START_THREADS>
     100:	01 00 00 00 	nop 

00000104 <AFTER_PTABLE_SETUP>:
     104:	2d 00 00 29 	sethi  %hi(0xa400), %l6
     108:	ac 15 a1 44 	or  %l6, 0x144, %l6	! a544 <PT_FLAG>
     10c:	ec 05 80 00 	ld  [ %l6 ], %l6
     110:	ee 05 80 00 	ld  [ %l6 ], %l7
     114:	b0 10 20 01 	mov  1, %i0
     118:	80 a6 00 17 	cmp  %i0, %l7
     11c:	12 bf ff fa 	bne  104 <AFTER_PTABLE_SETUP>
     120:	01 00 00 00 	nop 
     124:	40 00 17 27 	call  5dc0 <set_context_table_pointer>
     128:	01 00 00 00 	nop 
     12c:	90 10 20 01 	mov  1, %o0	! 1 <_start+0x1>
     130:	d0 a0 00 80 	sta  %o0, [ %g0 ] #ASI_N
     134:	10 80 00 07 	b  150 <CORTOS_START_THREADS>
     138:	01 00 00 00 	nop 

0000013c <WAIT_UNTIL_MMU_IS_ENABLED>:
     13c:	90 10 20 01 	mov  1, %o0	! 1 <_start+0x1>
     140:	d0 80 00 80 	lda  [ %g0 ] #ASI_N, %o0
     144:	90 8a 20 01 	andcc  %o0, 1, %o0
     148:	02 bf ff fd 	be  13c <WAIT_UNTIL_MMU_IS_ENABLED>
     14c:	01 00 00 00 	nop 

00000150 <CORTOS_START_THREADS>:
     150:	25 14 14 80 	sethi  %hi(0x50520000), %l2
     154:	80 a4 40 12 	cmp  %l1, %l2
     158:	12 80 00 40 	bne  258 <CORTOS_HALT_ERROR>
     15c:	01 00 00 00 	nop 
     160:	40 00 1f a8 	call  8000 <main>
     164:	01 00 00 00 	nop 

00000168 <START_THREAD_0_0_LOOP>:
     168:	10 80 00 3e 	b  260 <CORTOS_HALT_OKAY>
     16c:	01 00 00 00 	nop 

00000170 <__cortos_clear_stack_pointers>:
     170:	81 90 00 00 	mov  %g0, %wim
     174:	9c 10 00 00 	mov  %g0, %sp
     178:	81 e0 00 00 	save 
     17c:	9c 10 00 00 	mov  %g0, %sp
     180:	81 e0 00 00 	save 
     184:	9c 10 00 00 	mov  %g0, %sp
     188:	81 e0 00 00 	save 
     18c:	9c 10 00 00 	mov  %g0, %sp
     190:	81 e0 00 00 	save 
     194:	9c 10 00 00 	mov  %g0, %sp
     198:	81 e0 00 00 	save 
     19c:	9c 10 00 00 	mov  %g0, %sp
     1a0:	81 e0 00 00 	save 
     1a4:	9c 10 00 00 	mov  %g0, %sp
     1a8:	81 e0 00 00 	save 
     1ac:	9c 10 00 00 	mov  %g0, %sp
     1b0:	81 e0 00 00 	save 
     1b4:	81 c3 e0 08 	retl 
     1b8:	01 00 00 00 	nop 

000001bc <__cortos_init_region_to_zero>:
     1bc:	21 00 00 2c 	sethi  %hi(0xb000), %l0
     1c0:	a0 14 20 00 	mov  %l0, %l0	! b000 <printingLockAddr>
     1c4:	25 00 00 30 	sethi  %hi(0xc000), %l2
     1c8:	a4 14 a0 00 	mov  %l2, %l2	! c000 <ajit_global_interrupt_handlers+0xd58>
     1cc:	a4 24 a0 04 	sub  %l2, 4, %l2

000001d0 <_cortos_zero_init_area_BssSection>:
     1d0:	c0 2c 00 00 	clrb  [ %l0 ]
     1d4:	80 a4 00 12 	cmp  %l0, %l2
     1d8:	12 bf ff fe 	bne  1d0 <_cortos_zero_init_area_BssSection>
     1dc:	a0 04 20 01 	inc  %l0
     1e0:	21 00 00 30 	sethi  %hi(0xc000), %l0
     1e4:	a0 14 20 00 	mov  %l0, %l0	! c000 <ajit_global_interrupt_handlers+0xd58>
     1e8:	25 00 00 34 	sethi  %hi(0xd000), %l2
     1ec:	a4 14 a0 00 	mov  %l2, %l2	! d000 <ajit_global_interrupt_handlers+0x1d58>
     1f0:	a4 24 a0 04 	sub  %l2, 4, %l2

000001f4 <_cortos_zero_init_area_CacheableLocks>:
     1f4:	c0 2c 00 00 	clrb  [ %l0 ]
     1f8:	80 a4 00 12 	cmp  %l0, %l2
     1fc:	12 bf ff fe 	bne  1f4 <_cortos_zero_init_area_CacheableLocks>
     200:	a0 04 20 01 	inc  %l0
     204:	21 00 00 34 	sethi  %hi(0xd000), %l0
     208:	a0 14 20 00 	mov  %l0, %l0	! d000 <ajit_global_interrupt_handlers+0x1d58>
     20c:	25 00 00 38 	sethi  %hi(0xe000), %l2
     210:	a4 14 a0 00 	mov  %l2, %l2	! e000 <ajit_global_interrupt_handlers+0x2d58>
     214:	a4 24 a0 04 	sub  %l2, 4, %l2

00000218 <_cortos_zero_init_area_NonCacheableLocks>:
     218:	c0 2c 00 00 	clrb  [ %l0 ]
     21c:	80 a4 00 12 	cmp  %l0, %l2
     220:	12 bf ff fe 	bne  218 <_cortos_zero_init_area_NonCacheableLocks>
     224:	a0 04 20 01 	inc  %l0
     228:	81 c3 e0 08 	retl 
     22c:	01 00 00 00 	nop 

00000230 <__cortos_wait_for_init_by_00>:
     230:	2d 00 00 29 	sethi  %hi(0xa400), %l6
     234:	ac 15 a1 48 	or  %l6, 0x148, %l6	! a548 <INIT_BY_00_DONE>
     238:	ec 05 80 00 	ld  [ %l6 ], %l6

0000023c <_CORTOS_WAIT_FOR_INIT_BY_00>:
     23c:	ee 05 80 00 	ld  [ %l6 ], %l7
     240:	b0 10 20 01 	mov  1, %i0
     244:	80 a6 00 17 	cmp  %i0, %l7
     248:	12 bf ff fd 	bne  23c <_CORTOS_WAIT_FOR_INIT_BY_00>
     24c:	01 00 00 00 	nop 
     250:	81 c3 e0 08 	retl 
     254:	01 00 00 00 	nop 

00000258 <CORTOS_HALT_ERROR>:
     258:	a1 80 20 01 	mov  1, %asr16
     25c:	91 d0 20 00 	ta  0

00000260 <CORTOS_HALT_OKAY>:
     260:	a1 80 20 00 	mov  %g0, %asr16
     264:	91 d0 20 00 	ta  0

00000268 <clear_stack_pointers>:
     268:	81 90 00 00 	mov  %g0, %wim
     26c:	9c 10 00 00 	mov  %g0, %sp
     270:	81 e0 00 00 	save 
     274:	9c 10 00 00 	mov  %g0, %sp
     278:	81 e0 00 00 	save 
     27c:	9c 10 00 00 	mov  %g0, %sp
     280:	81 e0 00 00 	save 
     284:	9c 10 00 00 	mov  %g0, %sp
     288:	81 e0 00 00 	save 
     28c:	9c 10 00 00 	mov  %g0, %sp
     290:	81 e0 00 00 	save 
     294:	9c 10 00 00 	mov  %g0, %sp
     298:	81 e0 00 00 	save 
     29c:	9c 10 00 00 	mov  %g0, %sp
     2a0:	81 e0 00 00 	save 
     2a4:	9c 10 00 00 	mov  %g0, %sp
     2a8:	81 e0 00 00 	save 
     2ac:	81 c3 e0 08 	retl 
     2b0:	01 00 00 00 	nop 

000002b4 <cortos_lock_acquire_buzy>:
     2b4:	9d e3 bf a0 	save  %sp, -96, %sp

000002b8 <wait_for_lock>:
     2b8:	e2 0e 00 00 	ldub  [ %i0 ], %l1
     2bc:	80 94 40 00 	tst  %l1
     2c0:	12 bf ff fe 	bne  2b8 <wait_for_lock>
     2c4:	01 00 00 00 	nop 

000002c8 <try_to_lock>:
     2c8:	e2 6e 00 00 	ldstub  [ %i0 ], %l1
     2cc:	80 94 40 00 	tst  %l1
     2d0:	02 80 00 03 	be  2dc <out>
     2d4:	01 00 00 00 	nop 
     2d8:	30 bf ff f8 	b,a   2b8 <wait_for_lock>

000002dc <out>:
     2dc:	b0 10 20 01 	mov  1, %i0	! 1 <_start+0x1>
     2e0:	81 e8 00 00 	restore 
     2e4:	81 c3 e0 08 	retl 
     2e8:	01 00 00 00 	nop 

000002ec <cortos_lock_acquire>:
     2ec:	9d e3 bf a0 	save  %sp, -96, %sp

000002f0 <try_to_lock_once>:
     2f0:	e2 6e 00 00 	ldstub  [ %i0 ], %l1
     2f4:	80 94 40 00 	tst  %l1
     2f8:	02 80 00 03 	be  304 <lock_acquired>
     2fc:	01 00 00 00 	nop 
     300:	30 80 00 03 	b,a   30c <lock_not_acquired>

00000304 <lock_acquired>:
     304:	10 80 00 03 	b  310 <exit_cortos_lock_acquire>
     308:	b0 10 20 01 	mov  1, %i0

0000030c <lock_not_acquired>:
     30c:	b0 10 00 00 	mov  %g0, %i0

00000310 <exit_cortos_lock_acquire>:
     310:	81 e8 00 00 	restore 
     314:	81 c3 e0 08 	retl 
     318:	01 00 00 00 	nop 

0000031c <cortos_lock_release>:
     31c:	9d e3 bf a0 	save  %sp, -96, %sp
     320:	81 43 c0 00 	stbar 
     324:	c0 2e 00 00 	clrb  [ %i0 ]
     328:	81 e8 00 00 	restore 
     32c:	81 c3 e0 08 	retl 
     330:	01 00 00 00 	nop 

00000334 <cortos_init_locks>:
     334:	84 10 20 01 	mov  1, %g2	! 1 <_start+0x1>
     338:	03 00 00 2c 	sethi  %hi(0xb000), %g1
     33c:	c4 28 60 68 	stb  %g2, [ %g1 + 0x68 ]	! b068 <allocatedLocksNc>
     340:	05 00 00 34 	sethi  %hi(0xd000), %g2
     344:	03 00 00 2c 	sethi  %hi(0xb000), %g1
     348:	81 c3 e0 08 	retl 
     34c:	c4 20 60 60 	st  %g2, [ %g1 + 0x60 ]	! b060 <cortos_reservedLockAddr>

00000350 <cortos_reserveLock>:
     350:	9d e3 bf a0 	save  %sp, -96, %sp
     354:	80 a6 20 00 	cmp  %i0, 0
     358:	22 80 00 1b 	be,a   3c4 <cortos_reserveLock+0x74>
     35c:	03 00 00 29 	sethi  %hi(0xa400), %g1
     360:	03 00 00 29 	sethi  %hi(0xa400), %g1
     364:	39 00 00 2c 	sethi  %hi(0xb000), %i4
     368:	f0 00 61 50 	ld  [ %g1 + 0x150 ], %i0
     36c:	b8 17 20 68 	or  %i4, 0x68, %i4
     370:	3b 00 00 2c 	sethi  %hi(0xb000), %i5
     374:	7f ff ff d0 	call  2b4 <cortos_lock_acquire_buzy>
     378:	d0 07 60 60 	ld  [ %i5 + 0x60 ], %o0	! b060 <cortos_reservedLockAddr>
     37c:	82 10 00 1c 	mov  %i4, %g1
     380:	10 80 00 06 	b  398 <cortos_reserveLock+0x48>
     384:	84 10 20 00 	clr  %g2
     388:	84 00 a0 01 	inc  %g2
     38c:	80 a0 a1 00 	cmp  %g2, 0x100
     390:	02 80 00 11 	be  3d4 <cortos_reserveLock+0x84>
     394:	82 00 60 01 	inc  %g1
     398:	c6 48 40 00 	ldsb  [ %g1 ], %g3
     39c:	80 a0 e0 00 	cmp  %g3, 0
     3a0:	12 bf ff fa 	bne  388 <cortos_reserveLock+0x38>
     3a4:	b8 10 00 02 	mov  %g2, %i4
     3a8:	86 10 20 01 	mov  1, %g3
     3ac:	d0 07 60 60 	ld  [ %i5 + 0x60 ], %o0
     3b0:	c6 28 40 00 	stb  %g3, [ %g1 ]
     3b4:	7f ff ff da 	call  31c <cortos_lock_release>
     3b8:	b0 06 00 1c 	add  %i0, %i4, %i0
     3bc:	81 c7 e0 08 	ret 
     3c0:	81 e8 00 00 	restore 
     3c4:	39 00 00 2c 	sethi  %hi(0xb000), %i4
     3c8:	f0 00 61 54 	ld  [ %g1 + 0x154 ], %i0
     3cc:	10 bf ff e9 	b  370 <cortos_reserveLock+0x20>
     3d0:	b8 17 21 68 	or  %i4, 0x168, %i4
     3d4:	b8 10 21 00 	mov  0x100, %i4
     3d8:	d0 07 60 60 	ld  [ %i5 + 0x60 ], %o0
     3dc:	7f ff ff d0 	call  31c <cortos_lock_release>
     3e0:	b0 06 00 1c 	add  %i0, %i4, %i0
     3e4:	81 c7 e0 08 	ret 
     3e8:	81 e8 00 00 	restore 

000003ec <cortos_freeLock>:
     3ec:	9d e3 bf a0 	save  %sp, -96, %sp
     3f0:	3b 00 00 29 	sethi  %hi(0xa400), %i5
     3f4:	c2 07 61 54 	ld  [ %i5 + 0x154 ], %g1	! a554 <lockStartAddr>
     3f8:	80 a0 40 18 	cmp  %g1, %i0
     3fc:	18 80 00 05 	bgu  410 <cortos_freeLock+0x24>
     400:	82 00 61 00 	add  %g1, 0x100, %g1
     404:	80 a6 00 01 	cmp  %i0, %g1
     408:	0a 80 00 0e 	bcs  440 <cortos_freeLock+0x54>
     40c:	39 00 00 2c 	sethi  %hi(0xb000), %i4
     410:	3b 00 00 2c 	sethi  %hi(0xb000), %i5
     414:	7f ff ff a8 	call  2b4 <cortos_lock_acquire_buzy>
     418:	d0 07 60 60 	ld  [ %i5 + 0x60 ], %o0	! b060 <cortos_reservedLockAddr>
     41c:	03 00 00 29 	sethi  %hi(0xa400), %g1
     420:	05 00 00 2c 	sethi  %hi(0xb000), %g2
     424:	c2 00 61 50 	ld  [ %g1 + 0x150 ], %g1
     428:	84 10 a0 68 	or  %g2, 0x68, %g2
     42c:	82 26 00 01 	sub  %i0, %g1, %g1
     430:	f0 07 60 60 	ld  [ %i5 + 0x60 ], %i0
     434:	c0 28 80 01 	clrb  [ %g2 + %g1 ]
     438:	7f ff ff b9 	call  31c <cortos_lock_release>
     43c:	81 e8 00 00 	restore 
     440:	7f ff ff 9d 	call  2b4 <cortos_lock_acquire_buzy>
     444:	d0 07 20 60 	ld  [ %i4 + 0x60 ], %o0
     448:	c2 07 61 54 	ld  [ %i5 + 0x154 ], %g1
     44c:	05 00 00 2c 	sethi  %hi(0xb000), %g2
     450:	82 26 00 01 	sub  %i0, %g1, %g1
     454:	84 10 a1 68 	or  %g2, 0x168, %g2
     458:	f0 07 20 60 	ld  [ %i4 + 0x60 ], %i0
     45c:	c0 28 80 01 	clrb  [ %g2 + %g1 ]
     460:	7f ff ff af 	call  31c <cortos_lock_release>
     464:	81 e8 00 00 	restore 

00000468 <cortos_init_printing>:
     468:	84 10 20 01 	mov  1, %g2
     46c:	03 00 00 2c 	sethi  %hi(0xb000), %g1
     470:	82 10 60 68 	or  %g1, 0x68, %g1	! b068 <allocatedLocksNc>
     474:	c4 28 60 05 	stb  %g2, [ %g1 + 5 ]
     478:	05 00 00 34 	sethi  %hi(0xd000), %g2
     47c:	03 00 00 2c 	sethi  %hi(0xb000), %g1
     480:	84 10 a0 05 	or  %g2, 5, %g2
     484:	81 c3 e0 08 	retl 
     488:	c4 20 60 00 	st  %g2, [ %g1 ]

0000048c <cortos_get_clock_time>:
     48c:	82 13 c0 00 	mov  %o7, %g1
     490:	40 00 08 42 	call  2598 <__ajit_get_clock_time>
     494:	9e 10 40 00 	mov  %g1, %o7

00000498 <cortos_sleep>:
     498:	82 13 c0 00 	mov  %o7, %g1
     49c:	40 00 08 49 	call  25c0 <__ajit_sleep__>
     4a0:	9e 10 40 00 	mov  %g1, %o7

000004a4 <cortos_get_thread_id>:
     4a4:	9d e3 bf a0 	save  %sp, -96, %sp
     4a8:	a3 47 40 00 	rd  %asr29, %l1
     4ac:	82 10 00 11 	mov  %l1, %g1
     4b0:	b1 30 60 07 	srl  %g1, 7, %i0
     4b4:	b0 0e 21 fe 	and  %i0, 0x1fe, %i0
     4b8:	82 06 00 01 	add  %i0, %g1, %g1
     4bc:	b1 28 60 18 	sll  %g1, 0x18, %i0
     4c0:	b1 3e 20 18 	sra  %i0, 0x18, %i0
     4c4:	81 c7 e0 08 	ret 
     4c8:	81 e8 00 00 	restore 

000004cc <cortos_IsNcRamAddr>:
     4cc:	03 3f f8 00 	sethi  %hi(0xffe00000), %g1
     4d0:	90 02 00 01 	add  %o0, %g1, %o0
     4d4:	05 00 07 ff 	sethi  %hi(0x1ffc00), %g2
     4d8:	84 10 a3 ff 	or  %g2, 0x3ff, %g2	! 1fffff <ajit_global_interrupt_handlers+0x1f4d57>
     4dc:	80 a0 80 08 	cmp  %g2, %o0
     4e0:	81 c3 e0 08 	retl 
     4e4:	90 60 3f ff 	subx  %g0, -1, %o0

000004e8 <cortos_printf>:
     4e8:	9d e3 bb 98 	save  %sp, -1128, %sp
     4ec:	f8 27 a0 54 	st  %i4, [ %fp + 0x54 ]
     4f0:	fa 27 a0 58 	st  %i5, [ %fp + 0x58 ]
     4f4:	f2 27 a0 48 	st  %i1, [ %fp + 0x48 ]
     4f8:	f4 27 a0 4c 	st  %i2, [ %fp + 0x4c ]
     4fc:	f6 27 a0 50 	st  %i3, [ %fp + 0x50 ]
     500:	39 00 00 2c 	sethi  %hi(0xb000), %i4
     504:	7f ff ff 6c 	call  2b4 <cortos_lock_acquire_buzy>
     508:	d0 07 20 00 	ld  [ %i4 ], %o0
     50c:	94 07 a0 48 	add  %fp, 0x48, %o2
     510:	92 10 00 18 	mov  %i0, %o1
     514:	ba 07 bc 00 	add  %fp, -1024, %i5
     518:	d4 27 bb fc 	st  %o2, [ %fp + -1028 ]
     51c:	40 00 01 eb 	call  cc8 <ee_vsprintf>
     520:	90 10 00 1d 	mov  %i5, %o0
     524:	d0 0f bc 00 	ldub  [ %fp + -1024 ], %o0
     528:	91 2a 20 18 	sll  %o0, 0x18, %o0
     52c:	80 a2 20 00 	cmp  %o0, 0
     530:	02 80 00 0a 	be  558 <cortos_printf+0x70>
     534:	b0 10 20 00 	clr  %i0
     538:	40 00 04 ed 	call  18ec <uart_send_char>
     53c:	91 3a 20 18 	sra  %o0, 0x18, %o0
     540:	b0 06 20 01 	inc  %i0
     544:	d0 0f 40 18 	ldub  [ %i5 + %i0 ], %o0
     548:	91 2a 20 18 	sll  %o0, 0x18, %o0
     54c:	80 a2 20 00 	cmp  %o0, 0
     550:	12 bf ff fa 	bne  538 <cortos_printf+0x50>
     554:	01 00 00 00 	nop 
     558:	7f ff ff 71 	call  31c <cortos_lock_release>
     55c:	d0 07 20 00 	ld  [ %i4 ], %o0
     560:	81 c7 e0 08 	ret 
     564:	81 e8 00 00 	restore 

00000568 <__cortos_enable_serial>:
     568:	90 10 20 03 	mov  3, %o0
     56c:	82 13 c0 00 	mov  %o7, %g1
     570:	40 00 08 cd 	call  28a4 <__ajit_write_serial_control_register__>
     574:	9e 10 40 00 	mov  %g1, %o7

00000578 <__cortos_enable_serial_interrupt>:
     578:	90 10 20 07 	mov  7, %o0
     57c:	82 13 c0 00 	mov  %o7, %g1
     580:	40 00 08 c9 	call  28a4 <__ajit_write_serial_control_register__>
     584:	9e 10 40 00 	mov  %g1, %o7

00000588 <bget_ncram>:
     588:	83 3a 20 1f 	sra  %o0, 0x1f, %g1
     58c:	83 30 60 1c 	srl  %g1, 0x1c, %g1
     590:	84 02 00 01 	add  %o0, %g1, %g2
     594:	84 08 a0 0f 	and  %g2, 0xf, %g2
     598:	82 20 80 01 	sub  %g2, %g1, %g1
     59c:	90 00 40 08 	add  %g1, %o0, %o0
     5a0:	80 a2 20 0f 	cmp  %o0, 0xf
     5a4:	08 80 00 23 	bleu  630 <bget_ncram+0xa8>
     5a8:	86 10 20 18 	mov  0x18, %g3
     5ac:	88 02 20 0f 	add  %o0, 0xf, %g4
     5b0:	88 09 3f f0 	and  %g4, -16, %g4
     5b4:	88 01 20 08 	add  %g4, 8, %g4
     5b8:	86 10 00 04 	mov  %g4, %g3
     5bc:	05 00 00 29 	sethi  %hi(0xa400), %g2
     5c0:	84 10 a1 58 	or  %g2, 0x158, %g2	! a558 <freelist_ncram>
     5c4:	d0 00 a0 08 	ld  [ %g2 + 8 ], %o0
     5c8:	80 a2 00 02 	cmp  %o0, %g2
     5cc:	32 80 00 08 	bne,a   5ec <bget_ncram+0x64>
     5d0:	c2 02 20 04 	ld  [ %o0 + 4 ], %g1
     5d4:	81 c3 e0 08 	retl 
     5d8:	90 10 20 00 	clr  %o0
     5dc:	80 a2 00 02 	cmp  %o0, %g2
     5e0:	02 80 00 12 	be  628 <bget_ncram+0xa0>
     5e4:	01 00 00 00 	nop 
     5e8:	c2 02 20 04 	ld  [ %o0 + 4 ], %g1
     5ec:	80 a0 40 03 	cmp  %g1, %g3
     5f0:	26 bf ff fb 	bl,a   5dc <bget_ncram+0x54>
     5f4:	d0 02 20 08 	ld  [ %o0 + 8 ], %o0
     5f8:	84 20 40 03 	sub  %g1, %g3, %g2
     5fc:	80 a0 a0 18 	cmp  %g2, 0x18
     600:	28 80 00 0e 	bleu,a   638 <bget_ncram+0xb0>
     604:	c6 02 20 08 	ld  [ %o0 + 8 ], %g3
     608:	c4 22 20 04 	st  %g2, [ %o0 + 4 ]
     60c:	c4 22 00 02 	st  %g2, [ %o0 + %g2 ]
     610:	86 20 00 03 	neg  %g3
     614:	90 02 00 02 	add  %o0, %g2, %o0
     618:	c0 22 00 04 	clr  [ %o0 + %g4 ]
     61c:	c6 22 20 04 	st  %g3, [ %o0 + 4 ]
     620:	81 c3 e0 08 	retl 
     624:	90 02 20 08 	add  %o0, 8, %o0
     628:	81 c3 e0 08 	retl 
     62c:	90 10 20 00 	clr  %o0
     630:	10 bf ff e3 	b  5bc <bget_ncram+0x34>
     634:	88 10 20 18 	mov  0x18, %g4
     638:	c4 02 20 0c 	ld  [ %o0 + 0xc ], %g2
     63c:	c6 20 a0 08 	st  %g3, [ %g2 + 8 ]
     640:	c6 02 20 08 	ld  [ %o0 + 8 ], %g3
     644:	c4 20 e0 0c 	st  %g2, [ %g3 + 0xc ]
     648:	c0 22 00 01 	clr  [ %o0 + %g1 ]
     64c:	84 20 00 01 	neg  %g1, %g2
     650:	c4 22 20 04 	st  %g2, [ %o0 + 4 ]
     654:	90 02 20 08 	add  %o0, 8, %o0
     658:	81 c3 e0 08 	retl 
     65c:	01 00 00 00 	nop 

00000660 <bpool_ncram>:
     660:	03 00 00 29 	sethi  %hi(0xa400), %g1
     664:	82 10 61 58 	or  %g1, 0x158, %g1	! a558 <freelist_ncram>
     668:	c4 00 60 0c 	ld  [ %g1 + 0xc ], %g2
     66c:	c2 22 20 08 	st  %g1, [ %o0 + 8 ]
     670:	c4 22 20 0c 	st  %g2, [ %o0 + 0xc ]
     674:	d0 20 60 0c 	st  %o0, [ %g1 + 0xc ]
     678:	c0 22 00 00 	clr  [ %o0 ]
     67c:	c2 02 20 0c 	ld  [ %o0 + 0xc ], %g1
     680:	92 0a 7f f0 	and  %o1, -16, %o1
     684:	d0 20 60 08 	st  %o0, [ %g1 + 8 ]
     688:	92 02 7f f8 	add  %o1, -8, %o1
     68c:	d2 22 20 04 	st  %o1, [ %o0 + 4 ]
     690:	82 02 00 09 	add  %o0, %o1, %g1
     694:	05 20 00 00 	sethi  %hi(0x80000000), %g2
     698:	d2 22 00 09 	st  %o1, [ %o0 + %o1 ]
     69c:	81 c3 e0 08 	retl 
     6a0:	c4 20 60 04 	st  %g2, [ %g1 + 4 ]

000006a4 <brel_ncram>:
     6a4:	c2 02 3f f8 	ld  [ %o0 + -8 ], %g1
     6a8:	80 a0 60 00 	cmp  %g1, 0
     6ac:	02 80 00 16 	be  704 <brel_ncram+0x60>
     6b0:	84 02 3f f8 	add  %o0, -8, %g2
     6b4:	84 20 80 01 	sub  %g2, %g1, %g2
     6b8:	c2 02 3f fc 	ld  [ %o0 + -4 ], %g1
     6bc:	c6 00 a0 04 	ld  [ %g2 + 4 ], %g3
     6c0:	82 20 c0 01 	sub  %g3, %g1, %g1
     6c4:	c2 20 a0 04 	st  %g1, [ %g2 + 4 ]
     6c8:	86 00 80 01 	add  %g2, %g1, %g3
     6cc:	c8 00 e0 04 	ld  [ %g3 + 4 ], %g4
     6d0:	80 a1 20 00 	cmp  %g4, 0
     6d4:	04 80 00 0a 	ble  6fc <brel_ncram+0x58>
     6d8:	01 00 00 00 	nop 
     6dc:	da 00 e0 0c 	ld  [ %g3 + 0xc ], %o5
     6e0:	82 00 40 04 	add  %g1, %g4, %g1
     6e4:	d8 00 e0 08 	ld  [ %g3 + 8 ], %o4
     6e8:	c2 20 a0 04 	st  %g1, [ %g2 + 4 ]
     6ec:	d8 23 60 08 	st  %o4, [ %o5 + 8 ]
     6f0:	c8 00 e0 08 	ld  [ %g3 + 8 ], %g4
     6f4:	86 00 80 01 	add  %g2, %g1, %g3
     6f8:	da 21 20 0c 	st  %o5, [ %g4 + 0xc ]
     6fc:	81 c3 e0 08 	retl 
     700:	c2 20 c0 00 	st  %g1, [ %g3 ]
     704:	07 00 00 29 	sethi  %hi(0xa400), %g3
     708:	86 10 e1 58 	or  %g3, 0x158, %g3	! a558 <freelist_ncram>
     70c:	c2 00 e0 0c 	ld  [ %g3 + 0xc ], %g1
     710:	c6 22 00 00 	st  %g3, [ %o0 ]
     714:	c2 22 20 04 	st  %g1, [ %o0 + 4 ]
     718:	c4 20 e0 0c 	st  %g2, [ %g3 + 0xc ]
     71c:	c2 02 3f fc 	ld  [ %o0 + -4 ], %g1
     720:	c6 02 20 04 	ld  [ %o0 + 4 ], %g3
     724:	82 20 00 01 	neg  %g1
     728:	c4 20 e0 08 	st  %g2, [ %g3 + 8 ]
     72c:	10 bf ff e7 	b  6c8 <brel_ncram+0x24>
     730:	c2 22 3f fc 	st  %g1, [ %o0 + -4 ]

00000734 <ajit_initialize_sw_trap_handlers_to_null>:
     734:	03 00 00 2c 	sethi  %hi(0xb000), %g1
     738:	82 10 62 68 	or  %g1, 0x268, %g1	! b268 <ajit_global_sw_trap_handlers>
     73c:	84 00 60 40 	add  %g1, 0x40, %g2
     740:	c0 20 40 00 	clr  [ %g1 ]
     744:	82 00 60 04 	add  %g1, 4, %g1
     748:	80 a0 40 02 	cmp  %g1, %g2
     74c:	32 bf ff fe 	bne,a   744 <ajit_initialize_sw_trap_handlers_to_null+0x10>
     750:	c0 20 40 00 	clr  [ %g1 ]
     754:	81 c3 e0 08 	retl 
     758:	01 00 00 00 	nop 

0000075c <ajit_set_sw_trap_handler>:
     75c:	80 a2 20 0f 	cmp  %o0, 0xf
     760:	18 80 00 05 	bgu  774 <ajit_set_sw_trap_handler+0x18>
     764:	91 2a 20 02 	sll  %o0, 2, %o0
     768:	03 00 00 2c 	sethi  %hi(0xb000), %g1
     76c:	82 10 62 68 	or  %g1, 0x268, %g1	! b268 <ajit_global_sw_trap_handlers>
     770:	d2 20 40 08 	st  %o1, [ %g1 + %o0 ]
     774:	81 c3 e0 08 	retl 
     778:	01 00 00 00 	nop 

0000077c <ajit_generic_sw_trap_handler>:
     77c:	9d e3 bf a0 	save  %sp, -96, %sp
     780:	b1 36 20 04 	srl  %i0, 4, %i0
     784:	82 0e 20 ff 	and  %i0, 0xff, %g1
     788:	82 00 7f 80 	add  %g1, -128, %g1
     78c:	80 a0 60 0f 	cmp  %g1, 0xf
     790:	18 80 00 0d 	bgu  7c4 <ajit_generic_sw_trap_handler+0x48>
     794:	83 28 60 02 	sll  %g1, 2, %g1
     798:	05 00 00 2c 	sethi  %hi(0xb000), %g2
     79c:	84 10 a2 68 	or  %g2, 0x268, %g2	! b268 <ajit_global_sw_trap_handlers>
     7a0:	c2 00 80 01 	ld  [ %g2 + %g1 ], %g1
     7a4:	80 a0 60 00 	cmp  %g1, 0
     7a8:	02 80 00 07 	be  7c4 <ajit_generic_sw_trap_handler+0x48>
     7ac:	90 10 00 19 	mov  %i1, %o0
     7b0:	92 10 00 1a 	mov  %i2, %o1
     7b4:	9f c0 40 00 	call  %g1
     7b8:	94 10 00 1b 	mov  %i3, %o2
     7bc:	81 c7 e0 08 	ret 
     7c0:	81 e8 00 00 	restore 
     7c4:	91 d0 20 00 	ta  0
     7c8:	81 c7 e0 08 	ret 
     7cc:	81 e8 00 00 	restore 

000007d0 <cortos_init_logging>:
     7d0:	84 10 20 01 	mov  1, %g2
     7d4:	03 00 00 2c 	sethi  %hi(0xb000), %g1
     7d8:	82 10 60 68 	or  %g1, 0x68, %g1	! b068 <allocatedLocksNc>
     7dc:	c4 28 60 04 	stb  %g2, [ %g1 + 4 ]
     7e0:	05 00 00 34 	sethi  %hi(0xd000), %g2
     7e4:	03 00 00 2c 	sethi  %hi(0xb000), %g1
     7e8:	84 10 a0 04 	or  %g2, 4, %g2
     7ec:	81 c3 e0 08 	retl 
     7f0:	c4 20 60 04 	st  %g2, [ %g1 + 4 ]

000007f4 <__cortos_log_printf>:
     7f4:	9d e3 bb 80 	save  %sp, -1152, %sp
     7f8:	21 00 00 2c 	sethi  %hi(0xb000), %l0
     7fc:	fa 27 a0 58 	st  %i5, [ %fp + 0x58 ]
     800:	7f ff fe ad 	call  2b4 <cortos_lock_acquire_buzy>
     804:	d0 04 20 04 	ld  [ %l0 + 4 ], %o0
     808:	7f ff ff 21 	call  48c <cortos_get_clock_time>
     80c:	01 00 00 00 	nop 
     810:	a3 47 40 00 	rd  %asr29, %l1
     814:	82 10 00 11 	mov  %l1, %g1
     818:	d0 3f bb f8 	std  %o0, [ %fp + -1032 ]
     81c:	96 08 60 ff 	and  %g1, 0xff, %o3
     820:	95 30 60 08 	srl  %g1, 8, %o2
     824:	c2 07 bb f8 	ld  [ %fp + -1032 ], %g1
     828:	c2 23 a0 60 	st  %g1, [ %sp + 0x60 ]
     82c:	c2 07 bb fc 	ld  [ %fp + -1028 ], %g1
     830:	92 10 00 18 	mov  %i0, %o1
     834:	c2 23 a0 64 	st  %g1, [ %sp + 0x64 ]
     838:	98 10 00 19 	mov  %i1, %o4
     83c:	9a 10 00 1b 	mov  %i3, %o5
     840:	94 0a a0 ff 	and  %o2, 0xff, %o2
     844:	f4 23 a0 5c 	st  %i2, [ %sp + 0x5c ]
     848:	11 00 00 28 	sethi  %hi(0xa000), %o0
     84c:	40 00 04 36 	call  1924 <ee_printf>
     850:	90 12 20 00 	mov  %o0, %o0	! a000 <main+0x2000>
     854:	94 07 a0 58 	add  %fp, 0x58, %o2
     858:	b0 10 00 08 	mov  %o0, %i0
     85c:	d4 27 bb f4 	st  %o2, [ %fp + -1036 ]
     860:	ba 07 bc 00 	add  %fp, -1024, %i5
     864:	92 10 00 1c 	mov  %i4, %o1
     868:	40 00 01 18 	call  cc8 <ee_vsprintf>
     86c:	90 10 00 1d 	mov  %i5, %o0
     870:	c2 0f bc 00 	ldub  [ %fp + -1024 ], %g1
     874:	91 28 60 18 	sll  %g1, 0x18, %o0
     878:	80 a2 20 00 	cmp  %o0, 0
     87c:	22 80 00 0c 	be,a   8ac <__cortos_log_printf+0xb8>
     880:	11 00 00 29 	sethi  %hi(0xa400), %o0
     884:	ba 27 40 18 	sub  %i5, %i0, %i5
     888:	40 00 04 19 	call  18ec <uart_send_char>
     88c:	91 3a 20 18 	sra  %o0, 0x18, %o0
     890:	b0 06 20 01 	inc  %i0
     894:	c2 0f 40 18 	ldub  [ %i5 + %i0 ], %g1
     898:	91 28 60 18 	sll  %g1, 0x18, %o0
     89c:	80 a2 20 00 	cmp  %o0, 0
     8a0:	12 bf ff fa 	bne  888 <__cortos_log_printf+0x94>
     8a4:	01 00 00 00 	nop 
     8a8:	11 00 00 29 	sethi  %hi(0xa400), %o0
     8ac:	40 00 04 1e 	call  1924 <ee_printf>
     8b0:	90 12 20 e0 	or  %o0, 0xe0, %o0	! a4e0 <main+0x24e0>
     8b4:	b0 02 00 18 	add  %o0, %i0, %i0
     8b8:	7f ff fe 99 	call  31c <cortos_lock_release>
     8bc:	d0 04 20 04 	ld  [ %l0 + 4 ], %o0
     8c0:	81 c7 e0 08 	ret 
     8c4:	81 e8 00 00 	restore 

000008c8 <cortos_init_hw_traps>:
     8c8:	9d e3 bf a0 	save  %sp, -96, %sp
     8cc:	40 00 05 1d 	call  1d40 <ajit_initialize_interrupt_handlers_to_null>
     8d0:	b0 10 20 00 	clr  %i0
     8d4:	40 00 05 7f 	call  1ed0 <enableInterruptControllerAndAllInterrupts>
     8d8:	93 e8 20 00 	restore  %g0, 0, %o1

000008dc <cortos_init_sw_traps>:
     8dc:	82 13 c0 00 	mov  %o7, %g1
     8e0:	7f ff ff 95 	call  734 <ajit_initialize_sw_trap_handlers_to_null>
     8e4:	9e 10 40 00 	mov  %g1, %o7
     8e8:	00 00 0f 34 	unimp  0xf34
     8ec:	00 00 0d e4 	unimp  0xde4
     8f0:	00 00 0d e4 	unimp  0xde4
     8f4:	00 00 0d e4 	unimp  0xde4
     8f8:	00 00 0d e4 	unimp  0xde4
     8fc:	00 00 0d e4 	unimp  0xde4
     900:	00 00 0d e4 	unimp  0xde4
     904:	00 00 0d e4 	unimp  0xde4
     908:	00 00 0d e4 	unimp  0xde4
     90c:	00 00 0d e4 	unimp  0xde4
     910:	00 00 0d e4 	unimp  0xde4
     914:	00 00 0d e4 	unimp  0xde4
     918:	00 00 0d e4 	unimp  0xde4
     91c:	00 00 0d e4 	unimp  0xde4
     920:	00 00 0d e4 	unimp  0xde4
     924:	00 00 0d e4 	unimp  0xde4
     928:	00 00 0d e4 	unimp  0xde4
     92c:	00 00 0d e4 	unimp  0xde4
     930:	00 00 0d e4 	unimp  0xde4
     934:	00 00 0d e4 	unimp  0xde4
     938:	00 00 0d e4 	unimp  0xde4
     93c:	00 00 0d e4 	unimp  0xde4
     940:	00 00 0d e4 	unimp  0xde4
     944:	00 00 10 ac 	unimp  0x10ac
     948:	00 00 0d e4 	unimp  0xde4
     94c:	00 00 0d e4 	unimp  0xde4
     950:	00 00 0d e4 	unimp  0xde4
     954:	00 00 0d e4 	unimp  0xde4
     958:	00 00 0d e4 	unimp  0xde4
     95c:	00 00 0d e4 	unimp  0xde4
     960:	00 00 0d e4 	unimp  0xde4
     964:	00 00 0d e4 	unimp  0xde4
     968:	00 00 0f 38 	unimp  0xf38
     96c:	00 00 0d e4 	unimp  0xde4
     970:	00 00 12 88 	unimp  0x1288
     974:	00 00 12 7c 	unimp  0x127c
     978:	00 00 0d e4 	unimp  0xde4
     97c:	00 00 11 f8 	unimp  0x11f8
     980:	00 00 0d e4 	unimp  0xde4
     984:	00 00 0d e4 	unimp  0xde4
     988:	00 00 12 7c 	unimp  0x127c
     98c:	00 00 0d e4 	unimp  0xde4
     990:	00 00 0d e4 	unimp  0xde4
     994:	00 00 0d e4 	unimp  0xde4
     998:	00 00 0d e4 	unimp  0xde4
     99c:	00 00 0d e4 	unimp  0xde4
     9a0:	00 00 11 f0 	unimp  0x11f0
     9a4:	00 00 11 bc 	unimp  0x11bc
     9a8:	00 00 0d e4 	unimp  0xde4
     9ac:	00 00 0d e4 	unimp  0xde4
     9b0:	00 00 10 d8 	unimp  0x10d8
     9b4:	00 00 0d e4 	unimp  0xde4
     9b8:	00 00 12 74 	unimp  0x1274
     9bc:	00 00 0d e4 	unimp  0xde4
     9c0:	00 00 0d e4 	unimp  0xde4
     9c4:	00 00 12 6c 	unimp  0x126c
     9c8:	00 00 0e 80 	unimp  0xe80
     9cc:	00 00 0d 44 	unimp  0xd44
     9d0:	00 00 0d 44 	unimp  0xd44
     9d4:	00 00 0e 74 	unimp  0xe74
     9d8:	00 00 0d 44 	unimp  0xd44
     9dc:	00 00 0d 44 	unimp  0xd44
     9e0:	00 00 0d 44 	unimp  0xd44
     9e4:	00 00 0d 44 	unimp  0xd44
     9e8:	00 00 0d 44 	unimp  0xd44
     9ec:	00 00 0d 44 	unimp  0xd44
     9f0:	00 00 0d 44 	unimp  0xd44
     9f4:	00 00 0e 68 	unimp  0xe68
     9f8:	00 00 0d 44 	unimp  0xd44
     9fc:	00 00 0e 5c 	unimp  0xe5c
     a00:	00 00 0d 44 	unimp  0xd44
     a04:	00 00 0d 44 	unimp  0xd44
     a08:	00 00 0e 50 	unimp  0xe50

00000a0c <number>:
     a0c:	9d e3 bf 58 	save  %sp, -168, %sp
     a10:	80 8f 60 40 	btst  0x40, %i5
     a14:	02 80 00 79 	be  bf8 <number+0x1ec>
     a18:	1f 00 00 28 	sethi  %hi(0xa000), %o7
     a1c:	1f 00 00 28 	sethi  %hi(0xa000), %o7
     a20:	9e 13 e0 60 	or  %o7, 0x60, %o7	! a060 <main+0x2060>
     a24:	80 8f 60 10 	btst  0x10, %i5
     a28:	32 80 00 02 	bne,a   a30 <number+0x24>
     a2c:	ba 0f 7f fe 	and  %i5, -2, %i5
     a30:	82 06 bf fe 	add  %i2, -2, %g1
     a34:	80 a0 60 22 	cmp  %g1, 0x22
     a38:	18 80 00 83 	bgu  c44 <number+0x238>
     a3c:	82 0f 60 01 	and  %i5, 1, %g1
     a40:	80 a0 00 01 	cmp  %g0, %g1
     a44:	98 10 20 00 	clr  %o4
     a48:	9a 40 3f ff 	addx  %g0, -1, %o5
     a4c:	80 8f 60 02 	btst  2, %i5
     a50:	9a 0b 60 f0 	and  %o5, 0xf0, %o5
     a54:	02 80 00 0c 	be  a84 <number+0x78>
     a58:	9a 03 60 30 	add  %o5, 0x30, %o5
     a5c:	80 a6 60 00 	cmp  %i1, 0
     a60:	06 80 00 8a 	bl  c88 <number+0x27c>
     a64:	80 8f 60 04 	btst  4, %i5
     a68:	32 80 00 7a 	bne,a   c50 <number+0x244>
     a6c:	b6 06 ff ff 	add  %i3, -1, %i3
     a70:	80 8f 60 08 	btst  8, %i5
     a74:	02 80 00 05 	be  a88 <number+0x7c>
     a78:	96 8f 60 20 	andcc  %i5, 0x20, %o3
     a7c:	b6 06 ff ff 	add  %i3, -1, %i3
     a80:	98 10 20 20 	mov  0x20, %o4
     a84:	96 8f 60 20 	andcc  %i5, 0x20, %o3
     a88:	02 80 00 08 	be  aa8 <number+0x9c>
     a8c:	80 a6 60 00 	cmp  %i1, 0
     a90:	80 a6 a0 10 	cmp  %i2, 0x10
     a94:	02 80 00 78 	be  c74 <number+0x268>
     a98:	82 1e a0 08 	xor  %i2, 8, %g1
     a9c:	80 a0 00 01 	cmp  %g0, %g1
     aa0:	b6 46 ff ff 	addx  %i3, -1, %i3
     aa4:	80 a6 60 00 	cmp  %i1, 0
     aa8:	12 80 00 57 	bne  c04 <number+0x1f8>
     aac:	82 10 20 00 	clr  %g1
     ab0:	82 10 20 30 	mov  0x30, %g1
     ab4:	88 07 bf b8 	add  %fp, -72, %g4
     ab8:	c2 2f bf b8 	stb  %g1, [ %fp + -72 ]
     abc:	82 10 20 01 	mov  1, %g1
     ac0:	80 a0 40 1c 	cmp  %g1, %i4
     ac4:	16 80 00 03 	bge  ad0 <number+0xc4>
     ac8:	86 10 00 01 	mov  %g1, %g3
     acc:	86 10 00 1c 	mov  %i4, %g3
     ad0:	80 8f 60 11 	btst  0x11, %i5
     ad4:	12 80 00 0d 	bne  b08 <number+0xfc>
     ad8:	b8 26 c0 03 	sub  %i3, %g3, %i4
     adc:	80 a7 20 00 	cmp  %i4, 0
     ae0:	04 80 00 76 	ble  cb8 <number+0x2ac>
     ae4:	84 07 3f ff 	add  %i4, -1, %g2
     ae8:	b8 06 00 1c 	add  %i0, %i4, %i4
     aec:	84 10 20 20 	mov  0x20, %g2
     af0:	c4 2e 00 00 	stb  %g2, [ %i0 ]
     af4:	b0 06 20 01 	inc  %i0
     af8:	80 a6 00 1c 	cmp  %i0, %i4
     afc:	32 bf ff fe 	bne,a   af4 <number+0xe8>
     b00:	c4 2e 00 00 	stb  %g2, [ %i0 ]
     b04:	b8 10 3f ff 	mov  -1, %i4
     b08:	80 8b 20 ff 	btst  0xff, %o4
     b0c:	02 80 00 04 	be  b1c <number+0x110>
     b10:	80 a2 e0 00 	cmp  %o3, 0
     b14:	d8 2e 00 00 	stb  %o4, [ %i0 ]
     b18:	b0 06 20 01 	inc  %i0
     b1c:	02 80 00 08 	be  b3c <number+0x130>
     b20:	80 8f 60 10 	btst  0x10, %i5
     b24:	80 a6 a0 08 	cmp  %i2, 8
     b28:	02 80 00 4f 	be  c64 <number+0x258>
     b2c:	80 a6 a0 10 	cmp  %i2, 0x10
     b30:	22 80 00 5d 	be,a   ca4 <number+0x298>
     b34:	84 10 20 30 	mov  0x30, %g2
     b38:	80 8f 60 10 	btst  0x10, %i5
     b3c:	12 80 00 0d 	bne  b70 <number+0x164>
     b40:	80 a0 c0 01 	cmp  %g3, %g1
     b44:	80 a7 20 00 	cmp  %i4, 0
     b48:	04 80 00 5e 	ble  cc0 <number+0x2b4>
     b4c:	84 07 3f ff 	add  %i4, -1, %g2
     b50:	b8 06 00 1c 	add  %i0, %i4, %i4
     b54:	da 2e 00 00 	stb  %o5, [ %i0 ]
     b58:	b0 06 20 01 	inc  %i0
     b5c:	80 a6 00 1c 	cmp  %i0, %i4
     b60:	32 bf ff fe 	bne,a   b58 <number+0x14c>
     b64:	da 2e 00 00 	stb  %o5, [ %i0 ]
     b68:	b8 10 3f ff 	mov  -1, %i4
     b6c:	80 a0 c0 01 	cmp  %g3, %g1
     b70:	04 80 00 09 	ble  b94 <number+0x188>
     b74:	82 20 c0 01 	sub  %g3, %g1, %g1
     b78:	86 10 20 30 	mov  0x30, %g3
     b7c:	82 06 00 01 	add  %i0, %g1, %g1
     b80:	c6 2e 00 00 	stb  %g3, [ %i0 ]
     b84:	b0 06 20 01 	inc  %i0
     b88:	80 a6 00 01 	cmp  %i0, %g1
     b8c:	32 bf ff fe 	bne,a   b84 <number+0x178>
     b90:	c6 2e 00 00 	stb  %g3, [ %i0 ]
     b94:	82 10 00 19 	mov  %i1, %g1
     b98:	84 10 00 18 	mov  %i0, %g2
     b9c:	c6 09 00 01 	ldub  [ %g4 + %g1 ], %g3
     ba0:	c6 28 80 00 	stb  %g3, [ %g2 ]
     ba4:	82 00 7f ff 	add  %g1, -1, %g1
     ba8:	86 00 60 01 	add  %g1, 1, %g3
     bac:	80 a0 e0 00 	cmp  %g3, 0
     bb0:	14 bf ff fb 	bg  b9c <number+0x190>
     bb4:	84 00 a0 01 	inc  %g2
     bb8:	82 38 00 19 	xnor  %g0, %i1, %g1
     bbc:	80 a7 20 00 	cmp  %i4, 0
     bc0:	83 38 60 1f 	sra  %g1, 0x1f, %g1
     bc4:	82 0e 40 01 	and  %i1, %g1, %g1
     bc8:	82 00 60 01 	inc  %g1
     bcc:	04 80 00 09 	ble  bf0 <number+0x1e4>
     bd0:	b0 06 00 01 	add  %i0, %g1, %i0
     bd4:	84 06 00 1c 	add  %i0, %i4, %g2
     bd8:	82 10 20 20 	mov  0x20, %g1
     bdc:	c2 2e 00 00 	stb  %g1, [ %i0 ]
     be0:	b0 06 20 01 	inc  %i0
     be4:	80 a6 00 02 	cmp  %i0, %g2
     be8:	32 bf ff fe 	bne,a   be0 <number+0x1d4>
     bec:	c2 2e 00 00 	stb  %g1, [ %i0 ]
     bf0:	81 c7 e0 08 	ret 
     bf4:	81 e8 00 00 	restore 
     bf8:	10 bf ff 8b 	b  a24 <number+0x18>
     bfc:	9e 13 e0 38 	or  %o7, 0x38, %o7
     c00:	82 10 20 00 	clr  %g1
     c04:	88 07 bf b8 	add  %fp, -72, %g4
     c08:	81 80 20 00 	mov  %g0, %y
     c0c:	01 00 00 00 	nop 
     c10:	01 00 00 00 	nop 
     c14:	01 00 00 00 	nop 
     c18:	84 76 40 1a 	udiv  %i1, %i2, %g2
     c1c:	86 58 80 1a 	smul  %g2, %i2, %g3
     c20:	b2 26 40 03 	sub  %i1, %g3, %i1
     c24:	c6 0b c0 19 	ldub  [ %o7 + %i1 ], %g3
     c28:	c6 29 00 01 	stb  %g3, [ %g4 + %g1 ]
     c2c:	b2 10 00 02 	mov  %g2, %i1
     c30:	80 a0 a0 00 	cmp  %g2, 0
     c34:	12 bf ff f5 	bne  c08 <number+0x1fc>
     c38:	82 00 60 01 	inc  %g1
     c3c:	10 bf ff a1 	b  ac0 <number+0xb4>
     c40:	b2 00 7f ff 	add  %g1, -1, %i1
     c44:	b0 10 20 00 	clr  %i0
     c48:	81 c7 e0 08 	ret 
     c4c:	81 e8 00 00 	restore 
     c50:	96 8f 60 20 	andcc  %i5, 0x20, %o3
     c54:	02 bf ff 94 	be  aa4 <number+0x98>
     c58:	98 10 20 2b 	mov  0x2b, %o4
     c5c:	10 bf ff 8e 	b  a94 <number+0x88>
     c60:	80 a6 a0 10 	cmp  %i2, 0x10
     c64:	84 10 20 30 	mov  0x30, %g2
     c68:	c4 2e 00 00 	stb  %g2, [ %i0 ]
     c6c:	10 bf ff b3 	b  b38 <number+0x12c>
     c70:	b0 06 20 01 	inc  %i0
     c74:	80 a6 60 00 	cmp  %i1, 0
     c78:	12 bf ff e2 	bne  c00 <number+0x1f4>
     c7c:	b6 06 ff fe 	add  %i3, -2, %i3
     c80:	10 bf ff 8d 	b  ab4 <number+0xa8>
     c84:	82 10 20 30 	mov  0x30, %g1
     c88:	b2 20 00 19 	neg  %i1
     c8c:	b6 06 ff ff 	add  %i3, -1, %i3
     c90:	96 8f 60 20 	andcc  %i5, 0x20, %o3
     c94:	02 bf ff 84 	be  aa4 <number+0x98>
     c98:	98 10 20 2d 	mov  0x2d, %o4
     c9c:	10 bf ff 7e 	b  a94 <number+0x88>
     ca0:	80 a6 a0 10 	cmp  %i2, 0x10
     ca4:	c4 2e 00 00 	stb  %g2, [ %i0 ]
     ca8:	84 10 20 78 	mov  0x78, %g2
     cac:	c4 2e 20 01 	stb  %g2, [ %i0 + 1 ]
     cb0:	10 bf ff a2 	b  b38 <number+0x12c>
     cb4:	b0 06 20 02 	add  %i0, 2, %i0
     cb8:	10 bf ff 94 	b  b08 <number+0xfc>
     cbc:	b8 10 00 02 	mov  %g2, %i4
     cc0:	10 bf ff ab 	b  b6c <number+0x160>
     cc4:	b8 10 00 02 	mov  %g2, %i4

00000cc8 <ee_vsprintf>:
     cc8:	9d e3 be d8 	save  %sp, -296, %sp
     ccc:	c4 0e 40 00 	ldub  [ %i1 ], %g2
     cd0:	83 28 a0 18 	sll  %g2, 0x18, %g1
     cd4:	80 a0 60 00 	cmp  %g1, 0
     cd8:	02 80 02 0c 	be  1508 <ee_vsprintf+0x840>
     cdc:	ba 10 00 18 	mov  %i0, %i5
     ce0:	29 00 00 02 	sethi  %hi(0x800), %l4
     ce4:	37 00 00 02 	sethi  %hi(0x800), %i3
     ce8:	23 00 00 28 	sethi  %hi(0xa000), %l1
     cec:	a6 07 bf b0 	add  %fp, -80, %l3
     cf0:	aa 07 a0 60 	add  %fp, 0x60, %l5
     cf4:	21 00 00 28 	sethi  %hi(0xa000), %l0
     cf8:	10 80 00 08 	b  d18 <ee_vsprintf+0x50>
     cfc:	25 00 00 28 	sethi  %hi(0xa000), %l2
     d00:	ba 07 60 01 	inc  %i5
     d04:	c4 0e 60 01 	ldub  [ %i1 + 1 ], %g2
     d08:	83 28 a0 18 	sll  %g2, 0x18, %g1
     d0c:	80 a0 60 00 	cmp  %g1, 0
     d10:	02 80 00 47 	be  e2c <ee_vsprintf+0x164>
     d14:	b2 06 60 01 	inc  %i1
     d18:	83 38 60 18 	sra  %g1, 0x18, %g1
     d1c:	80 a0 60 25 	cmp  %g1, 0x25
     d20:	32 bf ff f8 	bne,a   d00 <ee_vsprintf+0x38>
     d24:	c4 2f 40 00 	stb  %g2, [ %i5 ]
     d28:	9a 10 20 00 	clr  %o5
     d2c:	c2 0e 60 01 	ldub  [ %i1 + 1 ], %g1
     d30:	86 00 7f e0 	add  %g1, -32, %g3
     d34:	86 08 e0 ff 	and  %g3, 0xff, %g3
     d38:	80 a0 e0 10 	cmp  %g3, 0x10
     d3c:	08 80 00 40 	bleu  e3c <ee_vsprintf+0x174>
     d40:	84 06 60 01 	add  %i1, 1, %g2
     d44:	86 00 7f d0 	add  %g1, -48, %g3
     d48:	86 08 e0 ff 	and  %g3, 0xff, %g3
     d4c:	80 a0 e0 09 	cmp  %g3, 9
     d50:	18 80 00 53 	bgu  e9c <ee_vsprintf+0x1d4>
     d54:	87 28 60 18 	sll  %g1, 0x18, %g3
     d58:	b8 10 20 00 	clr  %i4
     d5c:	86 07 00 1c 	add  %i4, %i4, %g3
     d60:	83 28 60 18 	sll  %g1, 0x18, %g1
     d64:	83 38 60 18 	sra  %g1, 0x18, %g1
     d68:	b9 2f 20 03 	sll  %i4, 3, %i4
     d6c:	84 00 a0 01 	inc  %g2
     d70:	b8 00 c0 1c 	add  %g3, %i4, %i4
     d74:	b8 07 00 01 	add  %i4, %g1, %i4
     d78:	c2 08 80 00 	ldub  [ %g2 ], %g1
     d7c:	86 00 7f d0 	add  %g1, -48, %g3
     d80:	86 08 e0 ff 	and  %g3, 0xff, %g3
     d84:	80 a0 e0 09 	cmp  %g3, 9
     d88:	08 bf ff f5 	bleu  d5c <ee_vsprintf+0x94>
     d8c:	b8 07 3f d0 	add  %i4, -48, %i4
     d90:	87 28 60 18 	sll  %g1, 0x18, %g3
     d94:	b2 10 00 02 	mov  %g2, %i1
     d98:	87 38 e0 18 	sra  %g3, 0x18, %g3
     d9c:	80 a0 e0 2e 	cmp  %g3, 0x2e
     da0:	02 80 00 48 	be  ec0 <ee_vsprintf+0x1f8>
     da4:	ac 10 3f ff 	mov  -1, %l6
     da8:	84 08 7f df 	and  %g1, -33, %g2
     dac:	85 28 a0 18 	sll  %g2, 0x18, %g2
     db0:	85 38 a0 18 	sra  %g2, 0x18, %g2
     db4:	80 a0 a0 4c 	cmp  %g2, 0x4c
     db8:	12 80 00 06 	bne  dd0 <ee_vsprintf+0x108>
     dbc:	86 10 3f ff 	mov  -1, %g3
     dc0:	87 28 60 18 	sll  %g1, 0x18, %g3
     dc4:	c2 0e 60 01 	ldub  [ %i1 + 1 ], %g1
     dc8:	87 38 e0 18 	sra  %g3, 0x18, %g3
     dcc:	b2 06 60 01 	inc  %i1
     dd0:	84 00 7f bf 	add  %g1, -65, %g2
     dd4:	84 08 a0 ff 	and  %g2, 0xff, %g2
     dd8:	80 a0 a0 37 	cmp  %g2, 0x37
     ddc:	08 80 00 2c 	bleu  e8c <ee_vsprintf+0x1c4>
     de0:	88 16 e0 e8 	or  %i3, 0xe8, %g4
     de4:	83 28 60 18 	sll  %g1, 0x18, %g1
     de8:	83 38 60 18 	sra  %g1, 0x18, %g1
     dec:	80 a0 60 25 	cmp  %g1, 0x25
     df0:	02 80 00 08 	be  e10 <ee_vsprintf+0x148>
     df4:	82 10 20 25 	mov  0x25, %g1
     df8:	c2 2f 40 00 	stb  %g1, [ %i5 ]
     dfc:	ba 07 60 01 	inc  %i5
     e00:	c4 4e 40 00 	ldsb  [ %i1 ], %g2
     e04:	80 a0 a0 00 	cmp  %g2, 0
     e08:	02 80 00 09 	be  e2c <ee_vsprintf+0x164>
     e0c:	c2 0e 40 00 	ldub  [ %i1 ], %g1
     e10:	c2 2f 40 00 	stb  %g1, [ %i5 ]
     e14:	ba 07 60 01 	inc  %i5
     e18:	c4 0e 60 01 	ldub  [ %i1 + 1 ], %g2
     e1c:	83 28 a0 18 	sll  %g2, 0x18, %g1
     e20:	80 a0 60 00 	cmp  %g1, 0
     e24:	12 bf ff bd 	bne  d18 <ee_vsprintf+0x50>
     e28:	b2 06 60 01 	inc  %i1
     e2c:	b0 27 40 18 	sub  %i5, %i0, %i0
     e30:	c0 2f 40 00 	clrb  [ %i5 ]
     e34:	81 c7 e0 08 	ret 
     e38:	81 e8 00 00 	restore 
     e3c:	88 15 21 c8 	or  %l4, 0x1c8, %g4
     e40:	87 28 e0 02 	sll  %g3, 2, %g3
     e44:	c6 01 00 03 	ld  [ %g4 + %g3 ], %g3
     e48:	81 c0 c0 00 	jmp  %g3
     e4c:	01 00 00 00 	nop 
     e50:	9a 13 60 01 	or  %o5, 1, %o5
     e54:	10 bf ff b6 	b  d2c <ee_vsprintf+0x64>
     e58:	b2 10 00 02 	mov  %g2, %i1
     e5c:	9a 13 60 10 	or  %o5, 0x10, %o5
     e60:	10 bf ff b3 	b  d2c <ee_vsprintf+0x64>
     e64:	b2 10 00 02 	mov  %g2, %i1
     e68:	9a 13 60 04 	or  %o5, 4, %o5
     e6c:	10 bf ff b0 	b  d2c <ee_vsprintf+0x64>
     e70:	b2 10 00 02 	mov  %g2, %i1
     e74:	9a 13 60 20 	or  %o5, 0x20, %o5
     e78:	10 bf ff ad 	b  d2c <ee_vsprintf+0x64>
     e7c:	b2 10 00 02 	mov  %g2, %i1
     e80:	9a 13 60 08 	or  %o5, 8, %o5
     e84:	10 bf ff aa 	b  d2c <ee_vsprintf+0x64>
     e88:	b2 10 00 02 	mov  %g2, %i1
     e8c:	85 28 a0 02 	sll  %g2, 2, %g2
     e90:	c4 01 00 02 	ld  [ %g4 + %g2 ], %g2
     e94:	81 c0 80 00 	jmp  %g2
     e98:	01 00 00 00 	nop 
     e9c:	89 38 e0 18 	sra  %g3, 0x18, %g4
     ea0:	80 a1 20 2a 	cmp  %g4, 0x2a
     ea4:	02 80 01 0c 	be  12d4 <ee_vsprintf+0x60c>
     ea8:	87 38 e0 18 	sra  %g3, 0x18, %g3
     eac:	b2 10 00 02 	mov  %g2, %i1
     eb0:	b8 10 3f ff 	mov  -1, %i4
     eb4:	80 a0 e0 2e 	cmp  %g3, 0x2e
     eb8:	12 bf ff bc 	bne  da8 <ee_vsprintf+0xe0>
     ebc:	ac 10 3f ff 	mov  -1, %l6
     ec0:	c2 0e 60 01 	ldub  [ %i1 + 1 ], %g1
     ec4:	86 00 7f d0 	add  %g1, -48, %g3
     ec8:	86 08 e0 ff 	and  %g3, 0xff, %g3
     ecc:	80 a0 e0 09 	cmp  %g3, 9
     ed0:	18 80 00 12 	bgu  f18 <ee_vsprintf+0x250>
     ed4:	84 06 60 01 	add  %i1, 1, %g2
     ed8:	ac 10 20 00 	clr  %l6
     edc:	86 05 80 16 	add  %l6, %l6, %g3
     ee0:	83 28 60 18 	sll  %g1, 0x18, %g1
     ee4:	83 38 60 18 	sra  %g1, 0x18, %g1
     ee8:	ad 2d a0 03 	sll  %l6, 3, %l6
     eec:	84 00 a0 01 	inc  %g2
     ef0:	ac 00 c0 16 	add  %g3, %l6, %l6
     ef4:	ac 05 80 01 	add  %l6, %g1, %l6
     ef8:	c2 08 80 00 	ldub  [ %g2 ], %g1
     efc:	86 00 7f d0 	add  %g1, -48, %g3
     f00:	86 08 e0 ff 	and  %g3, 0xff, %g3
     f04:	80 a0 e0 09 	cmp  %g3, 9
     f08:	08 bf ff f5 	bleu  edc <ee_vsprintf+0x214>
     f0c:	ac 05 bf d0 	add  %l6, -48, %l6
     f10:	10 bf ff a6 	b  da8 <ee_vsprintf+0xe0>
     f14:	b2 10 00 02 	mov  %g2, %i1
     f18:	87 28 60 18 	sll  %g1, 0x18, %g3
     f1c:	87 38 e0 18 	sra  %g3, 0x18, %g3
     f20:	80 a0 e0 2a 	cmp  %g3, 0x2a
     f24:	02 80 01 70 	be  14e4 <ee_vsprintf+0x81c>
     f28:	ac 10 20 00 	clr  %l6
     f2c:	10 bf ff 9f 	b  da8 <ee_vsprintf+0xe0>
     f30:	b2 10 00 02 	mov  %g2, %i1
     f34:	9a 13 60 40 	or  %o5, 0x40, %o5
     f38:	80 a0 e0 6c 	cmp  %g3, 0x6c
     f3c:	02 80 01 22 	be  13c4 <ee_vsprintf+0x6fc>
     f40:	84 10 20 00 	clr  %g2
     f44:	de 06 80 00 	ld  [ %i2 ], %o7
     f48:	b4 06 a0 04 	add  %i2, 4, %i2
     f4c:	c2 0b c0 02 	ldub  [ %o7 + %g2 ], %g1
     f50:	86 10 20 00 	clr  %g3
     f54:	94 10 20 30 	mov  0x30, %o2
     f58:	80 a0 60 00 	cmp  %g1, 0
     f5c:	12 80 00 0e 	bne  f94 <ee_vsprintf+0x2cc>
     f60:	96 10 20 2e 	mov  0x2e, %o3
     f64:	82 07 80 03 	add  %fp, %g3, %g1
     f68:	d4 28 7f b0 	stb  %o2, [ %g1 + -80 ]
     f6c:	84 00 a0 01 	inc  %g2
     f70:	80 a0 a0 04 	cmp  %g2, 4
     f74:	02 80 00 2b 	be  1020 <ee_vsprintf+0x358>
     f78:	86 00 e0 01 	inc  %g3
     f7c:	82 07 80 03 	add  %fp, %g3, %g1
     f80:	d6 28 7f b0 	stb  %o3, [ %g1 + -80 ]
     f84:	c2 0b c0 02 	ldub  [ %o7 + %g2 ], %g1
     f88:	80 a0 60 00 	cmp  %g1, 0
     f8c:	02 bf ff f6 	be  f64 <ee_vsprintf+0x29c>
     f90:	86 00 e0 01 	inc  %g3
     f94:	80 a0 60 63 	cmp  %g1, 0x63
     f98:	04 80 00 d8 	ble  12f8 <ee_vsprintf+0x630>
     f9c:	80 a0 60 09 	cmp  %g1, 9
     fa0:	89 38 60 1f 	sra  %g1, 0x1f, %g4
     fa4:	81 81 20 00 	mov  %g4, %y
     fa8:	01 00 00 00 	nop 
     fac:	01 00 00 00 	nop 
     fb0:	01 00 00 00 	nop 
     fb4:	98 78 60 64 	sdiv  %g1, 0x64, %o4
     fb8:	88 14 20 38 	or  %l0, 0x38, %g4
     fbc:	90 5b 20 64 	smul  %o4, 0x64, %o0
     fc0:	d8 09 00 0c 	ldub  [ %g4 + %o4 ], %o4
     fc4:	92 07 80 03 	add  %fp, %g3, %o1
     fc8:	82 20 40 08 	sub  %g1, %o0, %g1
     fcc:	d8 2a 7f b0 	stb  %o4, [ %o1 + -80 ]
     fd0:	86 00 e0 02 	add  %g3, 2, %g3
     fd4:	91 38 60 1f 	sra  %g1, 0x1f, %o0
     fd8:	81 82 20 00 	mov  %o0, %y
     fdc:	01 00 00 00 	nop 
     fe0:	01 00 00 00 	nop 
     fe4:	01 00 00 00 	nop 
     fe8:	98 78 60 0a 	sdiv  %g1, 0xa, %o4
     fec:	ec 09 00 0c 	ldub  [ %g4 + %o4 ], %l6
     ff0:	90 03 00 0c 	add  %o4, %o4, %o0
     ff4:	ec 2a 7f b1 	stb  %l6, [ %o1 + -79 ]
     ff8:	99 2b 20 03 	sll  %o4, 3, %o4
     ffc:	98 02 00 0c 	add  %o0, %o4, %o4
    1000:	82 20 40 0c 	sub  %g1, %o4, %g1
    1004:	98 07 80 03 	add  %fp, %g3, %o4
    1008:	c2 09 00 01 	ldub  [ %g4 + %g1 ], %g1
    100c:	c2 2b 3f b0 	stb  %g1, [ %o4 + -80 ]
    1010:	84 00 a0 01 	inc  %g2
    1014:	80 a0 a0 04 	cmp  %g2, 4
    1018:	12 bf ff d9 	bne  f7c <ee_vsprintf+0x2b4>
    101c:	86 00 e0 01 	inc  %g3
    1020:	80 8b 60 10 	btst  0x10, %o5
    1024:	32 80 00 0f 	bne,a   1060 <ee_vsprintf+0x398>
    1028:	82 10 20 00 	clr  %g1
    102c:	80 a7 00 03 	cmp  %i4, %g3
    1030:	04 80 02 08 	ble  1850 <ee_vsprintf+0xb88>
    1034:	82 07 3f ff 	add  %i4, -1, %g1
    1038:	82 27 00 03 	sub  %i4, %g3, %g1
    103c:	84 10 20 20 	mov  0x20, %g2
    1040:	82 07 40 01 	add  %i5, %g1, %g1
    1044:	c4 2f 40 00 	stb  %g2, [ %i5 ]
    1048:	ba 07 60 01 	inc  %i5
    104c:	80 a7 40 01 	cmp  %i5, %g1
    1050:	32 bf ff fe 	bne,a   1048 <ee_vsprintf+0x380>
    1054:	c4 2f 40 00 	stb  %g2, [ %i5 ]
    1058:	b8 00 ff ff 	add  %g3, -1, %i4
    105c:	82 10 20 00 	clr  %g1
    1060:	c4 0c c0 01 	ldub  [ %l3 + %g1 ], %g2
    1064:	c4 2f 40 01 	stb  %g2, [ %i5 + %g1 ]
    1068:	82 00 60 01 	inc  %g1
    106c:	80 a0 40 03 	cmp  %g1, %g3
    1070:	32 bf ff fd 	bne,a   1064 <ee_vsprintf+0x39c>
    1074:	c4 0c c0 01 	ldub  [ %l3 + %g1 ], %g2
    1078:	80 a7 00 01 	cmp  %i4, %g1
    107c:	04 80 00 0a 	ble  10a4 <ee_vsprintf+0x3dc>
    1080:	ba 07 40 01 	add  %i5, %g1, %i5
    1084:	82 27 00 01 	sub  %i4, %g1, %g1
    1088:	84 10 20 20 	mov  0x20, %g2
    108c:	82 07 40 01 	add  %i5, %g1, %g1
    1090:	c4 2f 40 00 	stb  %g2, [ %i5 ]
    1094:	ba 07 60 01 	inc  %i5
    1098:	80 a7 40 01 	cmp  %i5, %g1
    109c:	32 bf ff fe 	bne,a   1094 <ee_vsprintf+0x3cc>
    10a0:	c4 2f 40 00 	stb  %g2, [ %i5 ]
    10a4:	10 bf ff 19 	b  d08 <ee_vsprintf+0x40>
    10a8:	c4 0e 60 01 	ldub  [ %i1 + 1 ], %g2
    10ac:	9a 13 60 40 	or  %o5, 0x40, %o5
    10b0:	94 10 20 10 	mov  0x10, %o2
    10b4:	d2 06 80 00 	ld  [ %i2 ], %o1
    10b8:	90 10 00 1d 	mov  %i5, %o0
    10bc:	96 10 00 1c 	mov  %i4, %o3
    10c0:	7f ff fe 53 	call  a0c <number>
    10c4:	98 10 00 16 	mov  %l6, %o4
    10c8:	b4 06 a0 04 	add  %i2, 4, %i2
    10cc:	ba 10 00 08 	mov  %o0, %i5
    10d0:	10 bf ff 0e 	b  d08 <ee_vsprintf+0x40>
    10d4:	c4 0e 60 01 	ldub  [ %i1 + 1 ], %g2
    10d8:	c8 06 80 00 	ld  [ %i2 ], %g4
    10dc:	80 a1 20 00 	cmp  %g4, 0
    10e0:	02 80 01 c4 	be  17f0 <ee_vsprintf+0xb28>
    10e4:	b4 06 a0 04 	add  %i2, 4, %i2
    10e8:	c2 49 00 00 	ldsb  [ %g4 ], %g1
    10ec:	80 a0 60 00 	cmp  %g1, 0
    10f0:	02 80 01 c3 	be  17fc <ee_vsprintf+0xb34>
    10f4:	80 a5 a0 00 	cmp  %l6, 0
    10f8:	02 80 01 c1 	be  17fc <ee_vsprintf+0xb34>
    10fc:	82 10 00 04 	mov  %g4, %g1
    1100:	10 80 00 05 	b  1114 <ee_vsprintf+0x44c>
    1104:	82 00 60 01 	inc  %g1
    1108:	02 80 00 08 	be  1128 <ee_vsprintf+0x460>
    110c:	86 20 40 04 	sub  %g1, %g4, %g3
    1110:	82 00 60 01 	inc  %g1
    1114:	c4 48 40 00 	ldsb  [ %g1 ], %g2
    1118:	80 a0 a0 00 	cmp  %g2, 0
    111c:	32 bf ff fb 	bne,a   1108 <ee_vsprintf+0x440>
    1120:	ac 85 bf ff 	addcc  %l6, -1, %l6
    1124:	86 20 40 04 	sub  %g1, %g4, %g3
    1128:	80 8b 60 10 	btst  0x10, %o5
    112c:	12 80 00 0f 	bne  1168 <ee_vsprintf+0x4a0>
    1130:	80 a0 e0 00 	cmp  %g3, 0
    1134:	80 a7 00 03 	cmp  %i4, %g3
    1138:	04 80 01 df 	ble  18b4 <ee_vsprintf+0xbec>
    113c:	82 07 3f ff 	add  %i4, -1, %g1
    1140:	82 27 00 03 	sub  %i4, %g3, %g1
    1144:	84 10 20 20 	mov  0x20, %g2
    1148:	82 07 40 01 	add  %i5, %g1, %g1
    114c:	c4 2f 40 00 	stb  %g2, [ %i5 ]
    1150:	ba 07 60 01 	inc  %i5
    1154:	80 a7 40 01 	cmp  %i5, %g1
    1158:	32 bf ff fe 	bne,a   1150 <ee_vsprintf+0x488>
    115c:	c4 2f 40 00 	stb  %g2, [ %i5 ]
    1160:	b8 00 ff ff 	add  %g3, -1, %i4
    1164:	80 a0 e0 00 	cmp  %g3, 0
    1168:	04 80 00 09 	ble  118c <ee_vsprintf+0x4c4>
    116c:	82 10 20 00 	clr  %g1
    1170:	c4 09 00 01 	ldub  [ %g4 + %g1 ], %g2
    1174:	c4 2f 40 01 	stb  %g2, [ %i5 + %g1 ]
    1178:	82 00 60 01 	inc  %g1
    117c:	80 a0 40 03 	cmp  %g1, %g3
    1180:	32 bf ff fd 	bne,a   1174 <ee_vsprintf+0x4ac>
    1184:	c4 09 00 01 	ldub  [ %g4 + %g1 ], %g2
    1188:	ba 07 40 03 	add  %i5, %g3, %i5
    118c:	82 27 00 03 	sub  %i4, %g3, %g1
    1190:	84 10 20 20 	mov  0x20, %g2
    1194:	80 a7 00 03 	cmp  %i4, %g3
    1198:	04 bf ff c3 	ble  10a4 <ee_vsprintf+0x3dc>
    119c:	82 07 40 01 	add  %i5, %g1, %g1
    11a0:	c4 2f 40 00 	stb  %g2, [ %i5 ]
    11a4:	ba 07 60 01 	inc  %i5
    11a8:	80 a7 40 01 	cmp  %i5, %g1
    11ac:	32 bf ff fe 	bne,a   11a4 <ee_vsprintf+0x4dc>
    11b0:	c4 2f 40 00 	stb  %g2, [ %i5 ]
    11b4:	10 bf fe d5 	b  d08 <ee_vsprintf+0x40>
    11b8:	c4 0e 60 01 	ldub  [ %i1 + 1 ], %g2
    11bc:	80 a7 3f ff 	cmp  %i4, -1
    11c0:	22 80 00 7f 	be,a   13bc <ee_vsprintf+0x6f4>
    11c4:	9a 13 60 01 	or  %o5, 1, %o5
    11c8:	d2 06 80 00 	ld  [ %i2 ], %o1
    11cc:	90 10 00 1d 	mov  %i5, %o0
    11d0:	94 10 20 10 	mov  0x10, %o2
    11d4:	96 10 00 1c 	mov  %i4, %o3
    11d8:	7f ff fe 0d 	call  a0c <number>
    11dc:	98 10 00 16 	mov  %l6, %o4
    11e0:	b4 06 a0 04 	add  %i2, 4, %i2
    11e4:	ba 10 00 08 	mov  %o0, %i5
    11e8:	10 bf fe c8 	b  d08 <ee_vsprintf+0x40>
    11ec:	c4 0e 60 01 	ldub  [ %i1 + 1 ], %g2
    11f0:	10 bf ff b1 	b  10b4 <ee_vsprintf+0x3ec>
    11f4:	94 10 20 08 	mov  8, %o2
    11f8:	92 10 00 1a 	mov  %i2, %o1
    11fc:	da 27 bf 44 	st  %o5, [ %fp + -188 ]
    1200:	90 07 bf 58 	add  %fp, -168, %o0
    1204:	40 00 0b 07 	call  3e20 <__GI_memcpy>
    1208:	94 10 20 08 	mov  8, %o2
    120c:	da 07 bf 44 	ld  [ %fp + -188 ], %o5
    1210:	b4 06 a0 08 	add  %i2, 8, %i2
    1214:	d1 1f bf 58 	ldd  [ %fp + -168 ], %f8
    1218:	80 8b 60 10 	btst  0x10, %o5
    121c:	12 80 00 5b 	bne  1388 <ee_vsprintf+0x6c0>
    1220:	82 13 60 02 	or  %o5, 2, %g1
    1224:	84 08 60 01 	and  %g1, 1, %g2
    1228:	d5 1c 60 90 	ldd  [ %l1 + 0x90 ], %f10
    122c:	80 a0 00 02 	cmp  %g0, %g2
    1230:	81 aa 0a ca 	fcmped  %f8, %f10
    1234:	ae 40 3f ff 	addx  %g0, -1, %l7
    1238:	ae 0d e0 f0 	and  %l7, 0xf0, %l7
    123c:	01 00 00 00 	nop 
    1240:	09 80 00 b6 	fbl  1518 <ee_vsprintf+0x850>
    1244:	ae 05 e0 30 	add  %l7, 0x30, %l7
    1248:	80 88 60 04 	btst  4, %g1
    124c:	32 80 00 e4 	bne,a   15dc <ee_vsprintf+0x914>
    1250:	b8 07 3f ff 	add  %i4, -1, %i4
    1254:	80 88 60 08 	btst  8, %g1
    1258:	02 80 00 b3 	be  1524 <ee_vsprintf+0x85c>
    125c:	88 10 20 00 	clr  %g4
    1260:	b8 07 3f ff 	add  %i4, -1, %i4
    1264:	10 80 00 b0 	b  1524 <ee_vsprintf+0x85c>
    1268:	88 10 20 20 	mov  0x20, %g4
    126c:	10 bf ff 92 	b  10b4 <ee_vsprintf+0x3ec>
    1270:	94 10 20 10 	mov  0x10, %o2
    1274:	10 bf ff 90 	b  10b4 <ee_vsprintf+0x3ec>
    1278:	94 10 20 0a 	mov  0xa, %o2
    127c:	9a 13 60 02 	or  %o5, 2, %o5
    1280:	10 bf ff 8d 	b  10b4 <ee_vsprintf+0x3ec>
    1284:	94 10 20 0a 	mov  0xa, %o2
    1288:	80 8b 60 10 	btst  0x10, %o5
    128c:	32 80 00 2e 	bne,a   1344 <ee_vsprintf+0x67c>
    1290:	c2 06 80 00 	ld  [ %i2 ], %g1
    1294:	b8 07 3f ff 	add  %i4, -1, %i4
    1298:	80 a7 20 00 	cmp  %i4, 0
    129c:	04 80 00 29 	ble  1340 <ee_vsprintf+0x678>
    12a0:	82 10 20 20 	mov  0x20, %g1
    12a4:	84 07 40 1c 	add  %i5, %i4, %g2
    12a8:	c2 2f 40 00 	stb  %g1, [ %i5 ]
    12ac:	ba 07 60 01 	inc  %i5
    12b0:	80 a7 40 02 	cmp  %i5, %g2
    12b4:	32 bf ff fe 	bne,a   12ac <ee_vsprintf+0x5e4>
    12b8:	c2 2f 40 00 	stb  %g1, [ %i5 ]
    12bc:	c2 06 80 00 	ld  [ %i2 ], %g1
    12c0:	b4 06 a0 04 	add  %i2, 4, %i2
    12c4:	c2 2f 40 00 	stb  %g1, [ %i5 ]
    12c8:	ba 07 60 01 	inc  %i5
    12cc:	10 bf fe 8f 	b  d08 <ee_vsprintf+0x40>
    12d0:	c4 0e 60 01 	ldub  [ %i1 + 1 ], %g2
    12d4:	f8 06 80 00 	ld  [ %i2 ], %i4
    12d8:	84 06 60 02 	add  %i1, 2, %g2
    12dc:	b4 06 a0 04 	add  %i2, 4, %i2
    12e0:	80 a7 20 00 	cmp  %i4, 0
    12e4:	16 bf fe ab 	bge  d90 <ee_vsprintf+0xc8>
    12e8:	c2 0e 60 02 	ldub  [ %i1 + 2 ], %g1
    12ec:	b8 20 00 1c 	neg  %i4
    12f0:	10 bf fe a8 	b  d90 <ee_vsprintf+0xc8>
    12f4:	9a 13 60 10 	or  %o5, 0x10, %o5
    12f8:	24 bf ff 43 	ble,a   1004 <ee_vsprintf+0x33c>
    12fc:	88 14 20 38 	or  %l0, 0x38, %g4
    1300:	89 38 60 1f 	sra  %g1, 0x1f, %g4
    1304:	81 81 20 00 	mov  %g4, %y
    1308:	01 00 00 00 	nop 
    130c:	01 00 00 00 	nop 
    1310:	01 00 00 00 	nop 
    1314:	98 78 60 0a 	sdiv  %g1, 0xa, %o4
    1318:	90 07 80 03 	add  %fp, %g3, %o0
    131c:	92 03 00 0c 	add  %o4, %o4, %o1
    1320:	88 14 20 38 	or  %l0, 0x38, %g4
    1324:	86 00 e0 01 	inc  %g3
    1328:	ec 09 00 0c 	ldub  [ %g4 + %o4 ], %l6
    132c:	99 2b 20 03 	sll  %o4, 3, %o4
    1330:	ec 2a 3f b0 	stb  %l6, [ %o0 + -80 ]
    1334:	98 02 40 0c 	add  %o1, %o4, %o4
    1338:	10 bf ff 33 	b  1004 <ee_vsprintf+0x33c>
    133c:	82 20 40 0c 	sub  %g1, %o4, %g1
    1340:	c2 06 80 00 	ld  [ %i2 ], %g1
    1344:	c2 2f 40 00 	stb  %g1, [ %i5 ]
    1348:	86 07 60 01 	add  %i5, 1, %g3
    134c:	b4 06 a0 04 	add  %i2, 4, %i2
    1350:	ba 07 40 1c 	add  %i5, %i4, %i5
    1354:	82 10 00 03 	mov  %g3, %g1
    1358:	80 a7 20 01 	cmp  %i4, 1
    135c:	04 80 01 61 	ble  18e0 <ee_vsprintf+0xc18>
    1360:	84 10 20 20 	mov  0x20, %g2
    1364:	c4 28 40 00 	stb  %g2, [ %g1 ]
    1368:	82 00 60 01 	inc  %g1
    136c:	80 a0 40 1d 	cmp  %g1, %i5
    1370:	32 bf ff fe 	bne,a   1368 <ee_vsprintf+0x6a0>
    1374:	c4 28 40 00 	stb  %g2, [ %g1 ]
    1378:	ba 07 3f ff 	add  %i4, -1, %i5
    137c:	c4 0e 60 01 	ldub  [ %i1 + 1 ], %g2
    1380:	10 bf fe 62 	b  d08 <ee_vsprintf+0x40>
    1384:	ba 00 c0 1d 	add  %g3, %i5, %i5
    1388:	82 0b 7f fe 	and  %o5, -2, %g1
    138c:	d5 1c 60 90 	ldd  [ %l1 + 0x90 ], %f10
    1390:	82 10 60 02 	or  %g1, 2, %g1
    1394:	81 aa 0a ca 	fcmped  %f8, %f10
    1398:	84 08 60 01 	and  %g1, 1, %g2
    139c:	80 a0 00 02 	cmp  %g0, %g2
    13a0:	ae 40 3f ff 	addx  %g0, -1, %l7
    13a4:	ae 0d e0 f0 	and  %l7, 0xf0, %l7
    13a8:	01 00 00 00 	nop 
    13ac:	19 bf ff a7 	fbuge  1248 <ee_vsprintf+0x580>
    13b0:	ae 05 e0 30 	add  %l7, 0x30, %l7
    13b4:	10 80 00 5a 	b  151c <ee_vsprintf+0x854>
    13b8:	91 a0 00 a8 	fnegs  %f8, %f8
    13bc:	10 bf ff 83 	b  11c8 <ee_vsprintf+0x500>
    13c0:	b8 10 20 08 	mov  8, %i4
    13c4:	d4 06 80 00 	ld  [ %i2 ], %o2
    13c8:	80 8b 60 40 	btst  0x40, %o5
    13cc:	02 80 00 51 	be  1510 <ee_vsprintf+0x848>
    13d0:	b4 06 a0 04 	add  %i2, 4, %i2
    13d4:	9e 14 a0 60 	or  %l2, 0x60, %o7
    13d8:	82 10 20 00 	clr  %g1
    13dc:	c8 0a 80 01 	ldub  [ %o2 + %g1 ], %g4
    13e0:	96 09 20 ff 	and  %g4, 0xff, %o3
    13e4:	88 09 20 0f 	and  %g4, 0xf, %g4
    13e8:	84 10 20 00 	clr  %g2
    13ec:	d8 0b c0 04 	ldub  [ %o7 + %g4 ], %o4
    13f0:	86 07 80 02 	add  %fp, %g2, %g3
    13f4:	97 32 e0 04 	srl  %o3, 4, %o3
    13f8:	d8 28 ff b1 	stb  %o4, [ %g3 + -79 ]
    13fc:	c8 0b c0 0b 	ldub  [ %o7 + %o3 ], %g4
    1400:	c8 28 ff b0 	stb  %g4, [ %g3 + -80 ]
    1404:	82 00 60 01 	inc  %g1
    1408:	92 10 20 3a 	mov  0x3a, %o1
    140c:	80 a0 60 06 	cmp  %g1, 6
    1410:	02 80 00 12 	be  1458 <ee_vsprintf+0x790>
    1414:	86 00 a0 02 	add  %g2, 2, %g3
    1418:	86 07 80 03 	add  %fp, %g3, %g3
    141c:	d2 28 ff b0 	stb  %o1, [ %g3 + -80 ]
    1420:	c8 0a 80 01 	ldub  [ %o2 + %g1 ], %g4
    1424:	96 09 20 ff 	and  %g4, 0xff, %o3
    1428:	88 09 20 0f 	and  %g4, 0xf, %g4
    142c:	84 00 a0 03 	add  %g2, 3, %g2
    1430:	d8 0b c0 04 	ldub  [ %o7 + %g4 ], %o4
    1434:	86 07 80 02 	add  %fp, %g2, %g3
    1438:	97 32 e0 04 	srl  %o3, 4, %o3
    143c:	d8 28 ff b1 	stb  %o4, [ %g3 + -79 ]
    1440:	c8 0b c0 0b 	ldub  [ %o7 + %o3 ], %g4
    1444:	c8 28 ff b0 	stb  %g4, [ %g3 + -80 ]
    1448:	82 00 60 01 	inc  %g1
    144c:	80 a0 60 06 	cmp  %g1, 6
    1450:	12 bf ff f2 	bne  1418 <ee_vsprintf+0x750>
    1454:	86 00 a0 02 	add  %g2, 2, %g3
    1458:	80 8b 60 10 	btst  0x10, %o5
    145c:	32 80 00 0f 	bne,a   1498 <ee_vsprintf+0x7d0>
    1460:	82 10 20 00 	clr  %g1
    1464:	80 a7 00 03 	cmp  %i4, %g3
    1468:	04 80 01 19 	ble  18cc <ee_vsprintf+0xc04>
    146c:	82 07 3f ff 	add  %i4, -1, %g1
    1470:	82 27 00 03 	sub  %i4, %g3, %g1
    1474:	84 10 20 20 	mov  0x20, %g2
    1478:	82 07 40 01 	add  %i5, %g1, %g1
    147c:	c4 2f 40 00 	stb  %g2, [ %i5 ]
    1480:	ba 07 60 01 	inc  %i5
    1484:	80 a7 40 01 	cmp  %i5, %g1
    1488:	32 bf ff fe 	bne,a   1480 <ee_vsprintf+0x7b8>
    148c:	c4 2f 40 00 	stb  %g2, [ %i5 ]
    1490:	b8 00 ff ff 	add  %g3, -1, %i4
    1494:	82 10 20 00 	clr  %g1
    1498:	c4 0c c0 01 	ldub  [ %l3 + %g1 ], %g2
    149c:	c4 2f 40 01 	stb  %g2, [ %i5 + %g1 ]
    14a0:	82 00 60 01 	inc  %g1
    14a4:	80 a0 40 03 	cmp  %g1, %g3
    14a8:	32 bf ff fd 	bne,a   149c <ee_vsprintf+0x7d4>
    14ac:	c4 0c c0 01 	ldub  [ %l3 + %g1 ], %g2
    14b0:	80 a7 00 01 	cmp  %i4, %g1
    14b4:	04 bf fe fc 	ble  10a4 <ee_vsprintf+0x3dc>
    14b8:	ba 07 40 01 	add  %i5, %g1, %i5
    14bc:	82 27 00 01 	sub  %i4, %g1, %g1
    14c0:	84 10 20 20 	mov  0x20, %g2
    14c4:	82 07 40 01 	add  %i5, %g1, %g1
    14c8:	c4 2f 40 00 	stb  %g2, [ %i5 ]
    14cc:	ba 07 60 01 	inc  %i5
    14d0:	80 a7 40 01 	cmp  %i5, %g1
    14d4:	32 bf ff fe 	bne,a   14cc <ee_vsprintf+0x804>
    14d8:	c4 2f 40 00 	stb  %g2, [ %i5 ]
    14dc:	10 bf fe 0b 	b  d08 <ee_vsprintf+0x40>
    14e0:	c4 0e 60 01 	ldub  [ %i1 + 1 ], %g2
    14e4:	ec 06 80 00 	ld  [ %i2 ], %l6
    14e8:	84 06 60 02 	add  %i1, 2, %g2
    14ec:	b4 06 a0 04 	add  %i2, 4, %i2
    14f0:	80 a5 a0 00 	cmp  %l6, 0
    14f4:	16 bf fe 87 	bge  f10 <ee_vsprintf+0x248>
    14f8:	c2 0e 60 02 	ldub  [ %i1 + 2 ], %g1
    14fc:	ac 10 20 00 	clr  %l6
    1500:	10 bf fe 2a 	b  da8 <ee_vsprintf+0xe0>
    1504:	b2 10 00 02 	mov  %g2, %i1
    1508:	10 bf fe 4a 	b  e30 <ee_vsprintf+0x168>
    150c:	b0 10 20 00 	clr  %i0
    1510:	10 bf ff b2 	b  13d8 <ee_vsprintf+0x710>
    1514:	9e 14 20 38 	or  %l0, 0x38, %o7
    1518:	91 a0 00 a8 	fnegs  %f8, %f8
    151c:	b8 07 3f ff 	add  %i4, -1, %i4
    1520:	88 10 20 2d 	mov  0x2d, %g4
    1524:	80 a5 bf ff 	cmp  %l6, -1
    1528:	22 80 00 02 	be,a   1530 <ee_vsprintf+0x868>
    152c:	ac 10 20 06 	mov  6, %l6
    1530:	d1 3f bf 38 	std  %f8, [ %fp + -200 ]
    1534:	c2 27 bf 4c 	st  %g1, [ %fp + -180 ]
    1538:	c8 27 bf 48 	st  %g4, [ %fp + -184 ]
    153c:	d0 1f bf 38 	ldd  [ %fp + -200 ], %o0
    1540:	94 10 00 16 	mov  %l6, %o2
    1544:	96 07 bf 50 	add  %fp, -176, %o3
    1548:	98 07 bf 54 	add  %fp, -172, %o4
    154c:	40 00 01 f2 	call  1d14 <fcvtbuf>
    1550:	9a 10 00 13 	mov  %l3, %o5
    1554:	c6 07 bf 54 	ld  [ %fp + -172 ], %g3
    1558:	84 07 bf 60 	add  %fp, -160, %g2
    155c:	80 a0 e0 00 	cmp  %g3, 0
    1560:	c2 07 bf 4c 	ld  [ %fp + -180 ], %g1
    1564:	02 80 00 05 	be  1578 <ee_vsprintf+0x8b0>
    1568:	c8 07 bf 48 	ld  [ %fp + -184 ], %g4
    156c:	86 10 20 2d 	mov  0x2d, %g3
    1570:	84 07 bf 61 	add  %fp, -159, %g2
    1574:	c6 2f bf 60 	stb  %g3, [ %fp + -160 ]
    1578:	c6 4a 00 00 	ldsb  [ %o0 ], %g3
    157c:	80 a0 e0 00 	cmp  %g3, 0
    1580:	02 80 00 a1 	be  1804 <ee_vsprintf+0xb3c>
    1584:	de 0a 00 00 	ldub  [ %o0 ], %o7
    1588:	d8 07 bf 50 	ld  [ %fp + -176 ], %o4
    158c:	86 10 00 08 	mov  %o0, %g3
    1590:	80 a3 20 00 	cmp  %o4, 0
    1594:	14 80 00 0b 	bg  15c0 <ee_vsprintf+0x8f8>
    1598:	96 10 20 2e 	mov  0x2e, %o3
    159c:	10 80 00 12 	b  15e4 <ee_vsprintf+0x91c>
    15a0:	86 10 20 30 	mov  0x30, %g3
    15a4:	de 28 80 00 	stb  %o7, [ %g2 ]
    15a8:	86 00 e0 01 	inc  %g3
    15ac:	84 00 a0 01 	inc  %g2
    15b0:	da 48 c0 00 	ldsb  [ %g3 ], %o5
    15b4:	80 a3 60 00 	cmp  %o5, 0
    15b8:	02 80 00 1f 	be  1634 <ee_vsprintf+0x96c>
    15bc:	de 08 c0 00 	ldub  [ %g3 ], %o7
    15c0:	9a 20 c0 08 	sub  %g3, %o0, %o5
    15c4:	80 a3 00 0d 	cmp  %o4, %o5
    15c8:	32 bf ff f8 	bne,a   15a8 <ee_vsprintf+0x8e0>
    15cc:	de 28 80 00 	stb  %o7, [ %g2 ]
    15d0:	d6 28 80 00 	stb  %o3, [ %g2 ]
    15d4:	10 bf ff f4 	b  15a4 <ee_vsprintf+0x8dc>
    15d8:	84 00 a0 01 	inc  %g2
    15dc:	10 bf ff d2 	b  1524 <ee_vsprintf+0x85c>
    15e0:	88 10 20 2b 	mov  0x2b, %g4
    15e4:	c6 28 80 00 	stb  %g3, [ %g2 ]
    15e8:	86 10 20 2e 	mov  0x2e, %g3
    15ec:	c6 28 a0 01 	stb  %g3, [ %g2 + 1 ]
    15f0:	9a a0 00 0c 	subcc  %g0, %o4, %o5
    15f4:	02 80 00 09 	be  1618 <ee_vsprintf+0x950>
    15f8:	84 00 a0 02 	add  %g2, 2, %g2
    15fc:	9a 00 80 0d 	add  %g2, %o5, %o5
    1600:	86 10 20 30 	mov  0x30, %g3
    1604:	c6 28 80 00 	stb  %g3, [ %g2 ]
    1608:	84 00 a0 01 	inc  %g2
    160c:	80 a0 80 0d 	cmp  %g2, %o5
    1610:	32 bf ff fe 	bne,a   1608 <ee_vsprintf+0x940>
    1614:	c6 28 80 00 	stb  %g3, [ %g2 ]
    1618:	de 28 80 00 	stb  %o7, [ %g2 ]
    161c:	90 02 20 01 	inc  %o0
    1620:	84 00 a0 01 	inc  %g2
    1624:	c6 4a 00 00 	ldsb  [ %o0 ], %g3
    1628:	80 a0 e0 00 	cmp  %g3, 0
    162c:	12 bf ff fb 	bne  1618 <ee_vsprintf+0x950>
    1630:	de 0a 00 00 	ldub  [ %o0 ], %o7
    1634:	80 88 60 20 	btst  0x20, %g1
    1638:	02 80 00 05 	be  164c <ee_vsprintf+0x984>
    163c:	c0 28 80 00 	clrb  [ %g2 ]
    1640:	80 a5 a0 00 	cmp  %l6, 0
    1644:	02 80 00 4c 	be  1774 <ee_vsprintf+0xaac>
    1648:	c6 4f bf 60 	ldsb  [ %fp + -160 ], %g3
    164c:	c4 0f bf 60 	ldub  [ %fp + -160 ], %g2
    1650:	87 28 a0 18 	sll  %g2, 0x18, %g3
    1654:	80 a0 e0 00 	cmp  %g3, 0
    1658:	22 80 00 0d 	be,a   168c <ee_vsprintf+0x9c4>
    165c:	9e 10 20 00 	clr  %o7
    1660:	86 07 bf 60 	add  %fp, -160, %g3
    1664:	10 80 00 04 	b  1674 <ee_vsprintf+0x9ac>
    1668:	9e 10 00 03 	mov  %g3, %o7
    166c:	22 80 00 08 	be,a   168c <ee_vsprintf+0x9c4>
    1670:	9e 25 40 03 	sub  %l5, %g3, %o7
    1674:	9e 03 e0 01 	inc  %o7
    1678:	da 4b c0 00 	ldsb  [ %o7 ], %o5
    167c:	80 a3 60 00 	cmp  %o5, 0
    1680:	12 bf ff fb 	bne  166c <ee_vsprintf+0x9a4>
    1684:	80 a3 c0 15 	cmp  %o7, %l5
    1688:	9e 23 c0 03 	sub  %o7, %g3, %o7
    168c:	80 88 60 11 	btst  0x11, %g1
    1690:	12 80 00 0d 	bne  16c4 <ee_vsprintf+0x9fc>
    1694:	b8 27 00 0f 	sub  %i4, %o7, %i4
    1698:	80 a7 20 00 	cmp  %i4, 0
    169c:	04 80 00 88 	ble  18bc <ee_vsprintf+0xbf4>
    16a0:	86 07 3f ff 	add  %i4, -1, %g3
    16a4:	b8 07 40 1c 	add  %i5, %i4, %i4
    16a8:	86 10 20 20 	mov  0x20, %g3
    16ac:	c6 2f 40 00 	stb  %g3, [ %i5 ]
    16b0:	ba 07 60 01 	inc  %i5
    16b4:	80 a7 40 1c 	cmp  %i5, %i4
    16b8:	32 bf ff fe 	bne,a   16b0 <ee_vsprintf+0x9e8>
    16bc:	c6 2f 40 00 	stb  %g3, [ %i5 ]
    16c0:	b8 10 3f ff 	mov  -1, %i4
    16c4:	80 89 20 ff 	btst  0xff, %g4
    16c8:	02 80 00 04 	be  16d8 <ee_vsprintf+0xa10>
    16cc:	80 88 60 10 	btst  0x10, %g1
    16d0:	c8 2f 40 00 	stb  %g4, [ %i5 ]
    16d4:	ba 07 60 01 	inc  %i5
    16d8:	12 80 00 0d 	bne  170c <ee_vsprintf+0xa44>
    16dc:	80 a3 e0 00 	cmp  %o7, 0
    16e0:	80 a7 20 00 	cmp  %i4, 0
    16e4:	04 80 00 78 	ble  18c4 <ee_vsprintf+0xbfc>
    16e8:	82 07 3f ff 	add  %i4, -1, %g1
    16ec:	b8 07 40 1c 	add  %i5, %i4, %i4
    16f0:	ee 2f 40 00 	stb  %l7, [ %i5 ]
    16f4:	ba 07 60 01 	inc  %i5
    16f8:	80 a7 40 1c 	cmp  %i5, %i4
    16fc:	32 bf ff fe 	bne,a   16f4 <ee_vsprintf+0xa2c>
    1700:	ee 2f 40 00 	stb  %l7, [ %i5 ]
    1704:	b8 10 3f ff 	mov  -1, %i4
    1708:	80 a3 e0 00 	cmp  %o7, 0
    170c:	04 80 00 0b 	ble  1738 <ee_vsprintf+0xa70>
    1710:	82 10 20 00 	clr  %g1
    1714:	10 80 00 04 	b  1724 <ee_vsprintf+0xa5c>
    1718:	c4 2f 40 01 	stb  %g2, [ %i5 + %g1 ]
    171c:	c4 08 c0 01 	ldub  [ %g3 + %g1 ], %g2
    1720:	c4 2f 40 01 	stb  %g2, [ %i5 + %g1 ]
    1724:	82 00 60 01 	inc  %g1
    1728:	80 a0 40 0f 	cmp  %g1, %o7
    172c:	12 bf ff fc 	bne  171c <ee_vsprintf+0xa54>
    1730:	86 07 bf 60 	add  %fp, -160, %g3
    1734:	ba 07 40 01 	add  %i5, %g1, %i5
    1738:	80 a7 20 00 	cmp  %i4, 0
    173c:	04 bf fe 5a 	ble  10a4 <ee_vsprintf+0x3dc>
    1740:	82 10 20 20 	mov  0x20, %g1
    1744:	84 07 40 1c 	add  %i5, %i4, %g2
    1748:	c2 2f 40 00 	stb  %g1, [ %i5 ]
    174c:	ba 07 60 01 	inc  %i5
    1750:	80 a7 40 02 	cmp  %i5, %g2
    1754:	32 bf ff fe 	bne,a   174c <ee_vsprintf+0xa84>
    1758:	c2 2f 40 00 	stb  %g1, [ %i5 ]
    175c:	10 bf fd 6b 	b  d08 <ee_vsprintf+0x40>
    1760:	c4 0e 60 01 	ldub  [ %i1 + 1 ], %g2
    1764:	80 88 60 20 	btst  0x20, %g1
    1768:	02 bf ff b9 	be  164c <ee_vsprintf+0x984>
    176c:	c0 28 a0 01 	clrb  [ %g2 + 1 ]
    1770:	c6 4f bf 60 	ldsb  [ %fp + -160 ], %g3
    1774:	80 a0 e0 00 	cmp  %g3, 0
    1778:	02 80 00 57 	be  18d4 <ee_vsprintf+0xc0c>
    177c:	c4 0f bf 60 	ldub  [ %fp + -160 ], %g2
    1780:	80 a0 e0 2e 	cmp  %g3, 0x2e
    1784:	02 bf ff b8 	be  1664 <ee_vsprintf+0x99c>
    1788:	86 07 bf 60 	add  %fp, -160, %g3
    178c:	86 08 bf df 	and  %g2, -33, %g3
    1790:	87 28 e0 18 	sll  %g3, 0x18, %g3
    1794:	87 38 e0 18 	sra  %g3, 0x18, %g3
    1798:	80 a0 e0 45 	cmp  %g3, 0x45
    179c:	02 80 00 2f 	be  1858 <ee_vsprintf+0xb90>
    17a0:	86 07 bf 60 	add  %fp, -160, %g3
    17a4:	10 80 00 0a 	b  17cc <ee_vsprintf+0xb04>
    17a8:	9e 10 00 03 	mov  %g3, %o7
    17ac:	80 a3 60 2e 	cmp  %o5, 0x2e
    17b0:	02 bf ff ad 	be  1664 <ee_vsprintf+0x99c>
    17b4:	9a 0b 3f df 	and  %o4, -33, %o5
    17b8:	9b 2b 60 18 	sll  %o5, 0x18, %o5
    17bc:	9b 3b 60 18 	sra  %o5, 0x18, %o5
    17c0:	80 a3 60 45 	cmp  %o5, 0x45
    17c4:	02 80 00 27 	be  1860 <ee_vsprintf+0xb98>
    17c8:	9a 03 e1 00 	add  %o7, 0x100, %o5
    17cc:	9e 03 e0 01 	inc  %o7
    17d0:	da 4b c0 00 	ldsb  [ %o7 ], %o5
    17d4:	80 a3 60 00 	cmp  %o5, 0
    17d8:	12 bf ff f5 	bne  17ac <ee_vsprintf+0xae4>
    17dc:	d8 0b c0 00 	ldub  [ %o7 ], %o4
    17e0:	c0 2b e0 01 	clrb  [ %o7 + 1 ]
    17e4:	84 10 20 2e 	mov  0x2e, %g2
    17e8:	10 bf ff 99 	b  164c <ee_vsprintf+0x984>
    17ec:	c4 2b c0 00 	stb  %g2, [ %o7 ]
    17f0:	09 00 00 28 	sethi  %hi(0xa000), %g4
    17f4:	10 bf fe 3d 	b  10e8 <ee_vsprintf+0x420>
    17f8:	88 11 20 88 	or  %g4, 0x88, %g4	! a088 <main+0x2088>
    17fc:	10 bf fe 4b 	b  1128 <ee_vsprintf+0x460>
    1800:	86 10 20 00 	clr  %g3
    1804:	86 10 20 30 	mov  0x30, %g3
    1808:	80 a5 a0 00 	cmp  %l6, 0
    180c:	02 bf ff d6 	be  1764 <ee_vsprintf+0xa9c>
    1810:	c6 28 80 00 	stb  %g3, [ %g2 ]
    1814:	9e 10 20 2e 	mov  0x2e, %o7
    1818:	86 00 a0 02 	add  %g2, 2, %g3
    181c:	de 28 a0 01 	stb  %o7, [ %g2 + 1 ]
    1820:	84 10 20 00 	clr  %g2
    1824:	9e 10 20 30 	mov  0x30, %o7
    1828:	de 28 c0 02 	stb  %o7, [ %g3 + %g2 ]
    182c:	84 00 a0 01 	inc  %g2
    1830:	80 a5 80 02 	cmp  %l6, %g2
    1834:	34 bf ff fe 	bg,a   182c <ee_vsprintf+0xb64>
    1838:	de 28 c0 02 	stb  %o7, [ %g3 + %g2 ]
    183c:	80 a5 a0 00 	cmp  %l6, 0
    1840:	24 80 00 02 	ble,a   1848 <ee_vsprintf+0xb80>
    1844:	ac 10 20 01 	mov  1, %l6
    1848:	10 bf ff 81 	b  164c <ee_vsprintf+0x984>
    184c:	c0 28 c0 16 	clrb  [ %g3 + %l6 ]
    1850:	10 bf fe 03 	b  105c <ee_vsprintf+0x394>
    1854:	b8 10 00 01 	mov  %g1, %i4
    1858:	9e 07 bf 60 	add  %fp, -160, %o7
    185c:	9a 03 e1 00 	add  %o7, 0x100, %o5
    1860:	10 80 00 04 	b  1870 <ee_vsprintf+0xba8>
    1864:	84 10 00 0f 	mov  %o7, %g2
    1868:	22 80 00 08 	be,a   1888 <ee_vsprintf+0xbc0>
    186c:	84 20 80 0f 	sub  %g2, %o7, %g2
    1870:	84 00 a0 01 	inc  %g2
    1874:	c6 48 80 00 	ldsb  [ %g2 ], %g3
    1878:	80 a0 e0 00 	cmp  %g3, 0
    187c:	12 bf ff fb 	bne  1868 <ee_vsprintf+0xba0>
    1880:	80 a0 80 0d 	cmp  %g2, %o5
    1884:	84 20 80 0f 	sub  %g2, %o7, %g2
    1888:	80 a0 a0 00 	cmp  %g2, 0
    188c:	24 bf ff d7 	ble,a   17e8 <ee_vsprintf+0xb20>
    1890:	84 10 20 2e 	mov  0x2e, %g2
    1894:	da 0b c0 02 	ldub  [ %o7 + %g2 ], %o5
    1898:	86 03 c0 02 	add  %o7, %g2, %g3
    189c:	84 80 bf ff 	addcc  %g2, -1, %g2
    18a0:	12 bf ff fd 	bne  1894 <ee_vsprintf+0xbcc>
    18a4:	da 28 e0 01 	stb  %o5, [ %g3 + 1 ]
    18a8:	84 10 20 2e 	mov  0x2e, %g2
    18ac:	10 bf ff 68 	b  164c <ee_vsprintf+0x984>
    18b0:	c4 2b c0 00 	stb  %g2, [ %o7 ]
    18b4:	10 bf fe 2c 	b  1164 <ee_vsprintf+0x49c>
    18b8:	b8 10 00 01 	mov  %g1, %i4
    18bc:	10 bf ff 82 	b  16c4 <ee_vsprintf+0x9fc>
    18c0:	b8 10 00 03 	mov  %g3, %i4
    18c4:	10 bf ff 91 	b  1708 <ee_vsprintf+0xa40>
    18c8:	b8 10 00 01 	mov  %g1, %i4
    18cc:	10 bf fe f2 	b  1494 <ee_vsprintf+0x7cc>
    18d0:	b8 10 00 01 	mov  %g1, %i4
    18d4:	9e 07 bf 60 	add  %fp, -160, %o7
    18d8:	10 bf ff c3 	b  17e4 <ee_vsprintf+0xb1c>
    18dc:	c0 2b e0 01 	clrb  [ %o7 + 1 ]
    18e0:	ba 10 00 03 	mov  %g3, %i5
    18e4:	10 bf fd 09 	b  d08 <ee_vsprintf+0x40>
    18e8:	c4 0e 60 01 	ldub  [ %i1 + 1 ], %g2

000018ec <uart_send_char>:
    18ec:	9d e3 bf a0 	save  %sp, -96, %sp
    18f0:	40 00 05 37 	call  2dcc <__ajit_serial_putchar__>
    18f4:	90 10 00 18 	mov  %i0, %o0
    18f8:	80 a2 20 00 	cmp  %o0, 0
    18fc:	02 bf ff fd 	be  18f0 <uart_send_char+0x4>
    1900:	05 3f ff cc 	sethi  %hi(0xffff3000), %g2
    1904:	84 10 a2 00 	or  %g2, 0x200, %g2	! ffff3200 <ajit_global_interrupt_handlers+0xfffe7f58>
    1908:	c2 80 84 00 	lda  [ %g2 ] #ASI_SCRATCHPAD, %g1
    190c:	82 08 60 09 	and  %g1, 9, %g1
    1910:	80 a0 60 09 	cmp  %g1, 9
    1914:	02 bf ff fd 	be  1908 <uart_send_char+0x1c>
    1918:	01 00 00 00 	nop 
    191c:	81 c7 e0 08 	ret 
    1920:	81 e8 00 00 	restore 

00001924 <ee_printf>:
    1924:	9d e3 bb 98 	save  %sp, -1128, %sp
    1928:	94 07 a0 48 	add  %fp, 0x48, %o2
    192c:	fa 27 a0 58 	st  %i5, [ %fp + 0x58 ]
    1930:	92 10 00 18 	mov  %i0, %o1
    1934:	f2 27 a0 48 	st  %i1, [ %fp + 0x48 ]
    1938:	f4 27 a0 4c 	st  %i2, [ %fp + 0x4c ]
    193c:	f6 27 a0 50 	st  %i3, [ %fp + 0x50 ]
    1940:	f8 27 a0 54 	st  %i4, [ %fp + 0x54 ]
    1944:	d4 27 bb fc 	st  %o2, [ %fp + -1028 ]
    1948:	ba 07 bc 00 	add  %fp, -1024, %i5
    194c:	7f ff fc df 	call  cc8 <ee_vsprintf>
    1950:	90 10 00 1d 	mov  %i5, %o0
    1954:	d0 0f bc 00 	ldub  [ %fp + -1024 ], %o0
    1958:	91 2a 20 18 	sll  %o0, 0x18, %o0
    195c:	80 a2 20 00 	cmp  %o0, 0
    1960:	02 80 00 0a 	be  1988 <ee_printf+0x64>
    1964:	b0 10 20 00 	clr  %i0
    1968:	7f ff ff e1 	call  18ec <uart_send_char>
    196c:	91 3a 20 18 	sra  %o0, 0x18, %o0
    1970:	b0 06 20 01 	inc  %i0
    1974:	d0 0f 40 18 	ldub  [ %i5 + %i0 ], %o0
    1978:	91 2a 20 18 	sll  %o0, 0x18, %o0
    197c:	80 a2 20 00 	cmp  %o0, 0
    1980:	12 bf ff fa 	bne  1968 <ee_printf+0x44>
    1984:	01 00 00 00 	nop 
    1988:	81 c7 e0 08 	ret 
    198c:	81 e8 00 00 	restore 

00001990 <cvt>:
    1990:	9d e3 bf 90 	save  %sp, -112, %sp
    1994:	f0 3f bf f8 	std  %i0, [ %fp + -8 ]
    1998:	de 07 a0 5c 	ld  [ %fp + 0x5c ], %o7
    199c:	d5 1f bf f8 	ldd  [ %fp + -8 ], %f10
    19a0:	80 a6 a0 00 	cmp  %i2, 0
    19a4:	06 80 00 05 	bl  19b8 <cvt+0x28>
    19a8:	84 10 20 00 	clr  %g2
    19ac:	80 a6 a0 4e 	cmp  %i2, 0x4e
    19b0:	04 80 00 a6 	ble  1c48 <cvt+0x2b8>
    19b4:	84 10 20 4e 	mov  0x4e, %g2
    19b8:	03 00 00 28 	sethi  %hi(0xa000), %g1
    19bc:	d1 18 60 90 	ldd  [ %g1 + 0x90 ], %f8	! a090 <main+0x2090>
    19c0:	81 aa 8a c8 	fcmped  %f10, %f8
    19c4:	01 00 00 00 	nop 
    19c8:	09 80 00 9a 	fbl  1c30 <cvt+0x2a0>
    19cc:	86 10 20 01 	mov  1, %g3	! 1 <_start+0x1>
    19d0:	c0 27 00 00 	clr  [ %i4 ]
    19d4:	91 a0 1a 4a 	fdtoi  %f10, %f8
    19d8:	d9 18 60 90 	ldd  [ %g1 + 0x90 ], %f12
    19dc:	91 a0 19 08 	fitod  %f8, %f8
    19e0:	81 aa 0a 4c 	fcmpd  %f8, %f12
    19e4:	01 00 00 00 	nop 
    19e8:	13 80 00 66 	fbe  1b80 <cvt+0x1f0>
    19ec:	95 a2 88 c8 	fsubd  %f10, %f8, %f10
    19f0:	03 00 00 28 	sethi  %hi(0xa000), %g1
    19f4:	9a 07 60 50 	add  %i5, 0x50, %o5
    19f8:	35 00 00 28 	sethi  %hi(0xa000), %i2
    19fc:	e5 18 60 a0 	ldd  [ %g1 + 0xa0 ], %f18
    1a00:	b8 10 00 0d 	mov  %o5, %i4
    1a04:	03 00 00 28 	sethi  %hi(0xa000), %g1
    1a08:	86 10 20 00 	clr  %g3
    1a0c:	dd 1e a0 98 	ldd  [ %i2 + 0x98 ], %f14
    1a10:	e1 18 60 90 	ldd  [ %g1 + 0x90 ], %f16
    1a14:	99 a2 09 ce 	fdivd  %f8, %f14, %f12
    1a18:	91 a0 1a 4c 	fdtoi  %f12, %f8
    1a1c:	91 a0 19 08 	fitod  %f8, %f8
    1a20:	99 a3 08 c8 	fsubd  %f12, %f8, %f12
    1a24:	99 a3 08 52 	faddd  %f12, %f18, %f12
    1a28:	99 a3 09 4e 	fmuld  %f12, %f14, %f12
    1a2c:	99 a0 1a 4c 	fdtoi  %f12, %f12
    1a30:	d9 27 bf f4 	st  %f12, [ %fp + -12 ]
    1a34:	b8 07 3f ff 	add  %i4, -1, %i4
    1a38:	c2 07 bf f4 	ld  [ %fp + -12 ], %g1
    1a3c:	88 00 60 30 	add  %g1, 0x30, %g4
    1a40:	c8 2f 00 00 	stb  %g4, [ %i4 ]
    1a44:	b2 10 00 04 	mov  %g4, %i1
    1a48:	81 aa 0a 50 	fcmpd  %f8, %f16
    1a4c:	01 00 00 00 	nop 
    1a50:	03 bf ff f1 	fbne  1a14 <cvt+0x84>
    1a54:	86 00 e0 01 	inc  %g3
    1a58:	80 a3 40 1c 	cmp  %o5, %i4
    1a5c:	08 80 00 0e 	bleu  1a94 <cvt+0x104>
    1a60:	82 10 00 1d 	mov  %i5, %g1
    1a64:	b0 07 60 4f 	add  %i5, 0x4f, %i0
    1a68:	88 10 00 1c 	mov  %i4, %g4
    1a6c:	10 80 00 04 	b  1a7c <cvt+0xec>
    1a70:	b4 10 00 1d 	mov  %i5, %i2
    1a74:	f2 09 20 01 	ldub  [ %g4 + 1 ], %i1
    1a78:	88 01 20 01 	inc  %g4
    1a7c:	f2 2e 80 00 	stb  %i1, [ %i2 ]
    1a80:	80 a1 00 18 	cmp  %g4, %i0
    1a84:	12 bf ff fc 	bne  1a74 <cvt+0xe4>
    1a88:	b4 06 a0 01 	inc  %i2
    1a8c:	82 23 40 1c 	sub  %o5, %i4, %g1
    1a90:	82 07 40 01 	add  %i5, %g1, %g1
    1a94:	80 a3 e0 00 	cmp  %o7, 0
    1a98:	12 80 00 03 	bne  1aa4 <cvt+0x114>
    1a9c:	84 07 40 02 	add  %i5, %g2, %g2
    1aa0:	84 00 80 03 	add  %g2, %g3, %g2
    1aa4:	80 a0 80 1d 	cmp  %g2, %i5
    1aa8:	0a 80 00 5f 	bcs  1c24 <cvt+0x294>
    1aac:	c6 26 c0 00 	st  %g3, [ %i3 ]
    1ab0:	80 a0 40 02 	cmp  %g1, %g2
    1ab4:	18 80 00 17 	bgu  1b10 <cvt+0x180>
    1ab8:	88 07 60 50 	add  %i5, 0x50, %g4
    1abc:	35 00 00 28 	sethi  %hi(0xa000), %i2
    1ac0:	80 a0 40 04 	cmp  %g1, %g4
    1ac4:	1a 80 00 13 	bcc  1b10 <cvt+0x180>
    1ac8:	b4 16 a0 98 	or  %i2, 0x98, %i2
    1acc:	10 80 00 05 	b  1ae0 <cvt+0x150>
    1ad0:	d9 1e 80 00 	ldd  [ %i2 ], %f12
    1ad4:	80 a0 40 04 	cmp  %g1, %g4
    1ad8:	02 80 00 0f 	be  1b14 <cvt+0x184>
    1adc:	80 a0 80 04 	cmp  %g2, %g4
    1ae0:	95 a2 89 4c 	fmuld  %f10, %f12, %f10
    1ae4:	91 a0 1a 4a 	fdtoi  %f10, %f8
    1ae8:	91 a0 19 08 	fitod  %f8, %f8
    1aec:	9d a0 1a 48 	fdtoi  %f8, %f14
    1af0:	dd 27 bf f4 	st  %f14, [ %fp + -12 ]
    1af4:	c6 07 bf f4 	ld  [ %fp + -12 ], %g3
    1af8:	86 00 e0 30 	add  %g3, 0x30, %g3
    1afc:	c6 28 40 00 	stb  %g3, [ %g1 ]
    1b00:	82 00 60 01 	inc  %g1
    1b04:	80 a0 80 01 	cmp  %g2, %g1
    1b08:	1a bf ff f3 	bcc  1ad4 <cvt+0x144>
    1b0c:	95 a2 88 c8 	fsubd  %f10, %f8, %f10
    1b10:	80 a0 80 04 	cmp  %g2, %g4
    1b14:	1a 80 00 4a 	bcc  1c3c <cvt+0x2ac>
    1b18:	88 10 00 02 	mov  %g2, %g4
    1b1c:	f8 08 80 00 	ldub  [ %g2 ], %i4
    1b20:	b8 07 20 05 	add  %i4, 5, %i4
    1b24:	82 10 00 1c 	mov  %i4, %g1
    1b28:	f8 28 80 00 	stb  %i4, [ %g2 ]
    1b2c:	86 10 20 30 	mov  0x30, %g3
    1b30:	b8 10 20 31 	mov  0x31, %i4
    1b34:	83 28 60 18 	sll  %g1, 0x18, %g1
    1b38:	83 38 60 18 	sra  %g1, 0x18, %g1
    1b3c:	80 a0 60 39 	cmp  %g1, 0x39
    1b40:	24 80 00 0e 	ble,a   1b78 <cvt+0x1e8>
    1b44:	c0 29 00 00 	clrb  [ %g4 ]
    1b48:	80 a0 80 1d 	cmp  %g2, %i5
    1b4c:	08 80 00 2a 	bleu  1bf4 <cvt+0x264>
    1b50:	c6 28 80 00 	stb  %g3, [ %g2 ]
    1b54:	c2 08 bf ff 	ldub  [ %g2 + -1 ], %g1
    1b58:	82 00 60 01 	inc  %g1
    1b5c:	c2 28 bf ff 	stb  %g1, [ %g2 + -1 ]
    1b60:	83 28 60 18 	sll  %g1, 0x18, %g1
    1b64:	83 38 60 18 	sra  %g1, 0x18, %g1
    1b68:	80 a0 60 39 	cmp  %g1, 0x39
    1b6c:	14 bf ff f7 	bg  1b48 <cvt+0x1b8>
    1b70:	84 00 bf ff 	add  %g2, -1, %g2
    1b74:	c0 29 00 00 	clrb  [ %g4 ]
    1b78:	81 c7 e0 08 	ret 
    1b7c:	91 e8 00 1d 	restore  %g0, %i5, %o0
    1b80:	81 aa 8a cc 	fcmped  %f10, %f12
    1b84:	01 00 00 00 	nop 
    1b88:	1d 80 00 32 	fbule  1c50 <cvt+0x2c0>
    1b8c:	01 00 00 00 	nop 
    1b90:	35 00 00 28 	sethi  %hi(0xa000), %i2
    1b94:	03 00 00 28 	sethi  %hi(0xa000), %g1
    1b98:	d9 1e a0 98 	ldd  [ %i2 + 0x98 ], %f12
    1b9c:	d1 18 60 a8 	ldd  [ %g1 + 0xa8 ], %f8
    1ba0:	99 a2 89 4c 	fmuld  %f10, %f12, %f12
    1ba4:	86 10 20 00 	clr  %g3
    1ba8:	e1 1e a0 98 	ldd  [ %i2 + 0x98 ], %f16
    1bac:	9d a0 00 28 	fmovs  %f8, %f14
    1bb0:	81 ab 0a c8 	fcmped  %f12, %f8
    1bb4:	01 00 00 00 	nop 
    1bb8:	09 80 00 06 	fbl  1bd0 <cvt+0x240>
    1bbc:	9f a0 00 29 	fmovs  %f9, %f15
    1bc0:	10 bf ff b5 	b  1a94 <cvt+0x104>
    1bc4:	82 10 00 1d 	mov  %i5, %g1
    1bc8:	99 a0 00 28 	fmovs  %f8, %f12
    1bcc:	9b a0 00 29 	fmovs  %f9, %f13
    1bd0:	91 a3 09 50 	fmuld  %f12, %f16, %f8
    1bd4:	81 aa 0a ce 	fcmped  %f8, %f14
    1bd8:	01 00 00 00 	nop 
    1bdc:	09 bf ff fb 	fbl  1bc8 <cvt+0x238>
    1be0:	86 00 ff ff 	add  %g3, -1, %g3
    1be4:	82 10 00 1d 	mov  %i5, %g1
    1be8:	95 a0 00 2c 	fmovs  %f12, %f10
    1bec:	10 bf ff aa 	b  1a94 <cvt+0x104>
    1bf0:	97 a0 00 2d 	fmovs  %f13, %f11
    1bf4:	f8 28 80 00 	stb  %i4, [ %g2 ]
    1bf8:	c2 06 c0 00 	ld  [ %i3 ], %g1
    1bfc:	82 00 60 01 	inc  %g1
    1c00:	80 a3 e0 00 	cmp  %o7, 0
    1c04:	12 80 00 06 	bne  1c1c <cvt+0x28c>
    1c08:	c2 26 c0 00 	st  %g1, [ %i3 ]
    1c0c:	80 a1 00 1d 	cmp  %g4, %i5
    1c10:	38 80 00 02 	bgu,a   1c18 <cvt+0x288>
    1c14:	c6 29 00 00 	stb  %g3, [ %g4 ]
    1c18:	88 01 20 01 	inc  %g4
    1c1c:	10 bf ff c6 	b  1b34 <cvt+0x1a4>
    1c20:	c2 08 80 00 	ldub  [ %g2 ], %g1
    1c24:	c0 2f 40 00 	clrb  [ %i5 ]
    1c28:	81 c7 e0 08 	ret 
    1c2c:	91 e8 00 1d 	restore  %g0, %i5, %o0
    1c30:	95 a0 00 aa 	fnegs  %f10, %f10
    1c34:	10 bf ff 68 	b  19d4 <cvt+0x44>
    1c38:	c6 27 00 00 	st  %g3, [ %i4 ]
    1c3c:	c0 2f 60 4f 	clrb  [ %i5 + 0x4f ]
    1c40:	81 c7 e0 08 	ret 
    1c44:	91 e8 00 1d 	restore  %g0, %i5, %o0
    1c48:	10 bf ff 5c 	b  19b8 <cvt+0x28>
    1c4c:	84 10 00 1a 	mov  %i2, %g2
    1c50:	82 10 00 1d 	mov  %i5, %g1
    1c54:	10 bf ff 90 	b  1a94 <cvt+0x104>
    1c58:	86 10 20 00 	clr  %g3

00001c5c <__modf>:
    1c5c:	9c 03 bf b0 	add  %sp, -80, %sp
    1c60:	d0 3b a0 48 	std  %o0, [ %sp + 0x48 ]
    1c64:	c1 1b a0 48 	ldd  [ %sp + 0x48 ], %f0
    1c68:	9c 23 bf b0 	sub  %sp, -80, %sp
    1c6c:	91 a0 1a 40 	fdtoi  %f0, %f8
    1c70:	91 a0 19 08 	fitod  %f8, %f8
    1c74:	81 a0 08 c8 	fsubd  %f0, %f8, %f0
    1c78:	81 c3 e0 08 	retl 
    1c7c:	d1 3a 80 00 	std  %f8, [ %o2 ]

00001c80 <ecvt>:
    1c80:	9d e3 bf 98 	save  %sp, -104, %sp
    1c84:	82 10 20 01 	mov  1, %g1
    1c88:	90 10 00 18 	mov  %i0, %o0
    1c8c:	92 10 00 19 	mov  %i1, %o1
    1c90:	c2 23 a0 5c 	st  %g1, [ %sp + 0x5c ]
    1c94:	94 10 00 1a 	mov  %i2, %o2
    1c98:	96 10 00 1b 	mov  %i3, %o3
    1c9c:	98 10 00 1c 	mov  %i4, %o4
    1ca0:	1b 00 00 2c 	sethi  %hi(0xb000), %o5
    1ca4:	7f ff ff 3b 	call  1990 <cvt>
    1ca8:	9a 13 60 08 	or  %o5, 8, %o5	! b008 <CVTBUF>
    1cac:	81 c7 e0 08 	ret 
    1cb0:	91 e8 00 08 	restore  %g0, %o0, %o0

00001cb4 <ecvtbuf>:
    1cb4:	9d e3 bf 98 	save  %sp, -104, %sp
    1cb8:	82 10 20 01 	mov  1, %g1
    1cbc:	90 10 00 18 	mov  %i0, %o0
    1cc0:	92 10 00 19 	mov  %i1, %o1
    1cc4:	c2 23 a0 5c 	st  %g1, [ %sp + 0x5c ]
    1cc8:	94 10 00 1a 	mov  %i2, %o2
    1ccc:	96 10 00 1b 	mov  %i3, %o3
    1cd0:	98 10 00 1c 	mov  %i4, %o4
    1cd4:	7f ff ff 2f 	call  1990 <cvt>
    1cd8:	9a 10 00 1d 	mov  %i5, %o5
    1cdc:	81 c7 e0 08 	ret 
    1ce0:	91 e8 00 08 	restore  %g0, %o0, %o0

00001ce4 <fcvt>:
    1ce4:	9d e3 bf 98 	save  %sp, -104, %sp
    1ce8:	1b 00 00 2c 	sethi  %hi(0xb000), %o5
    1cec:	c0 23 a0 5c 	clr  [ %sp + 0x5c ]
    1cf0:	90 10 00 18 	mov  %i0, %o0
    1cf4:	92 10 00 19 	mov  %i1, %o1
    1cf8:	94 10 00 1a 	mov  %i2, %o2
    1cfc:	96 10 00 1b 	mov  %i3, %o3
    1d00:	98 10 00 1c 	mov  %i4, %o4
    1d04:	7f ff ff 23 	call  1990 <cvt>
    1d08:	9a 13 60 08 	or  %o5, 8, %o5
    1d0c:	81 c7 e0 08 	ret 
    1d10:	91 e8 00 08 	restore  %g0, %o0, %o0

00001d14 <fcvtbuf>:
    1d14:	9d e3 bf 98 	save  %sp, -104, %sp
    1d18:	c0 23 a0 5c 	clr  [ %sp + 0x5c ]
    1d1c:	90 10 00 18 	mov  %i0, %o0
    1d20:	92 10 00 19 	mov  %i1, %o1
    1d24:	94 10 00 1a 	mov  %i2, %o2
    1d28:	96 10 00 1b 	mov  %i3, %o3
    1d2c:	98 10 00 1c 	mov  %i4, %o4
    1d30:	7f ff ff 18 	call  1990 <cvt>
    1d34:	9a 10 00 1d 	mov  %i5, %o5
    1d38:	81 c7 e0 08 	ret 
    1d3c:	91 e8 00 08 	restore  %g0, %o0, %o0

00001d40 <ajit_initialize_interrupt_handlers_to_null>:
    1d40:	03 00 00 2c 	sethi  %hi(0xb000), %g1
    1d44:	82 10 62 a8 	or  %g1, 0x2a8, %g1	! b2a8 <ajit_global_interrupt_handlers>
    1d48:	84 00 60 40 	add  %g1, 0x40, %g2
    1d4c:	c0 20 40 00 	clr  [ %g1 ]
    1d50:	82 00 60 04 	add  %g1, 4, %g1
    1d54:	80 a0 40 02 	cmp  %g1, %g2
    1d58:	32 bf ff fe 	bne,a   1d50 <ajit_initialize_interrupt_handlers_to_null+0x10>
    1d5c:	c0 20 40 00 	clr  [ %g1 ]
    1d60:	81 c3 e0 08 	retl 
    1d64:	01 00 00 00 	nop 

00001d68 <ajit_set_interrupt_handler>:
    1d68:	80 a2 20 0f 	cmp  %o0, 0xf
    1d6c:	18 80 00 05 	bgu  1d80 <ajit_set_interrupt_handler+0x18>
    1d70:	91 2a 20 02 	sll  %o0, 2, %o0
    1d74:	03 00 00 2c 	sethi  %hi(0xb000), %g1
    1d78:	82 10 62 a8 	or  %g1, 0x2a8, %g1	! b2a8 <ajit_global_interrupt_handlers>
    1d7c:	d2 20 40 08 	st  %o1, [ %g1 + %o0 ]
    1d80:	81 c3 e0 08 	retl 
    1d84:	01 00 00 00 	nop 

00001d88 <readInterruptControlRegister>:
    1d88:	90 02 00 08 	add  %o0, %o0, %o0
    1d8c:	03 3f ff cc 	sethi  %hi(0xffff3000), %g1
    1d90:	92 02 00 09 	add  %o0, %o1, %o1
    1d94:	91 2a 60 02 	sll  %o1, 2, %o0
    1d98:	90 02 00 01 	add  %o0, %g1, %o0
    1d9c:	82 13 c0 00 	mov  %o7, %g1
    1da0:	40 00 02 a6 	call  2838 <__ajit_load_word_mmu_bypass__>
    1da4:	9e 10 40 00 	mov  %g1, %o7

00001da8 <writeInterruptControlRegister>:
    1da8:	90 02 00 08 	add  %o0, %o0, %o0
    1dac:	03 3f ff cc 	sethi  %hi(0xffff3000), %g1
    1db0:	92 02 00 09 	add  %o0, %o1, %o1
    1db4:	90 10 00 0a 	mov  %o2, %o0
    1db8:	93 2a 60 02 	sll  %o1, 2, %o1
    1dbc:	92 02 40 01 	add  %o1, %g1, %o1
    1dc0:	82 13 c0 00 	mov  %o7, %g1
    1dc4:	40 00 02 25 	call  2658 <__ajit_store_word_mmu_bypass__>
    1dc8:	9e 10 40 00 	mov  %g1, %o7

00001dcc <enableInterruptController>:
    1dcc:	9d e3 bf a0 	save  %sp, -96, %sp
    1dd0:	90 10 00 18 	mov  %i0, %o0
    1dd4:	7f ff ff ed 	call  1d88 <readInterruptControlRegister>
    1dd8:	92 10 00 19 	mov  %i1, %o1
    1ddc:	b4 12 20 01 	or  %o0, 1, %i2
    1de0:	7f ff ff f2 	call  1da8 <writeInterruptControlRegister>
    1de4:	81 e8 00 00 	restore 

00001de8 <disableInterruptController>:
    1de8:	9d e3 bf a0 	save  %sp, -96, %sp
    1dec:	90 10 00 18 	mov  %i0, %o0
    1df0:	7f ff ff e6 	call  1d88 <readInterruptControlRegister>
    1df4:	92 10 00 19 	mov  %i1, %o1
    1df8:	b4 0a 3f fe 	and  %o0, -2, %i2
    1dfc:	7f ff ff eb 	call  1da8 <writeInterruptControlRegister>
    1e00:	81 e8 00 00 	restore 

00001e04 <ajit_generic_interrupt_handler>:
    1e04:	9d e3 bf 98 	save  %sp, -104, %sp
    1e08:	90 07 bf fe 	add  %fp, -2, %o0
    1e0c:	40 00 01 d8 	call  256c <ajit_get_core_and_thread_id>
    1e10:	92 07 bf ff 	add  %fp, -1, %o1
    1e14:	d0 0f bf fe 	ldub  [ %fp + -2 ], %o0
    1e18:	7f ff ff f4 	call  1de8 <disableInterruptController>
    1e1c:	d2 0f bf ff 	ldub  [ %fp + -1 ], %o1
    1e20:	b1 36 20 04 	srl  %i0, 4, %i0
    1e24:	b0 0e 20 ff 	and  %i0, 0xff, %i0
    1e28:	82 06 3f ef 	add  %i0, -17, %g1
    1e2c:	80 a0 60 0e 	cmp  %g1, 0xe
    1e30:	18 80 00 11 	bgu  1e74 <ajit_generic_interrupt_handler+0x70>
    1e34:	d0 0f bf fe 	ldub  [ %fp + -2 ], %o0
    1e38:	b0 06 3f f0 	add  %i0, -16, %i0
    1e3c:	03 00 00 2c 	sethi  %hi(0xb000), %g1
    1e40:	b1 2e 20 02 	sll  %i0, 2, %i0
    1e44:	82 10 62 a8 	or  %g1, 0x2a8, %g1
    1e48:	c2 00 40 18 	ld  [ %g1 + %i0 ], %g1
    1e4c:	80 a0 60 00 	cmp  %g1, 0
    1e50:	02 80 00 09 	be  1e74 <ajit_generic_interrupt_handler+0x70>
    1e54:	01 00 00 00 	nop 
    1e58:	9f c0 40 00 	call  %g1
    1e5c:	01 00 00 00 	nop 
    1e60:	d0 0f bf fe 	ldub  [ %fp + -2 ], %o0
    1e64:	7f ff ff da 	call  1dcc <enableInterruptController>
    1e68:	d2 0f bf ff 	ldub  [ %fp + -1 ], %o1
    1e6c:	81 c7 e0 08 	ret 
    1e70:	81 e8 00 00 	restore 
    1e74:	7f ff ff d6 	call  1dcc <enableInterruptController>
    1e78:	d2 0f bf ff 	ldub  [ %fp + -1 ], %o1
    1e7c:	91 d0 20 00 	ta  0
    1e80:	81 c7 e0 08 	ret 
    1e84:	81 e8 00 00 	restore 

00001e88 <enableInterrupt>:
    1e88:	9d e3 bf a0 	save  %sp, -96, %sp
    1e8c:	90 10 00 18 	mov  %i0, %o0
    1e90:	7f ff ff be 	call  1d88 <readInterruptControlRegister>
    1e94:	92 10 00 19 	mov  %i1, %o1
    1e98:	82 10 20 01 	mov  1, %g1
    1e9c:	b5 28 40 1a 	sll  %g1, %i2, %i2
    1ea0:	b4 12 00 1a 	or  %o0, %i2, %i2
    1ea4:	7f ff ff c1 	call  1da8 <writeInterruptControlRegister>
    1ea8:	81 e8 00 00 	restore 

00001eac <enableAllInterrupts>:
    1eac:	9d e3 bf a0 	save  %sp, -96, %sp
    1eb0:	35 00 00 3f 	sethi  %hi(0xfc00), %i2
    1eb4:	90 10 00 18 	mov  %i0, %o0
    1eb8:	92 10 00 19 	mov  %i1, %o1
    1ebc:	7f ff ff b3 	call  1d88 <readInterruptControlRegister>
    1ec0:	b4 16 a3 fe 	or  %i2, 0x3fe, %i2
    1ec4:	b4 12 00 1a 	or  %o0, %i2, %i2
    1ec8:	7f ff ff b8 	call  1da8 <writeInterruptControlRegister>
    1ecc:	81 e8 00 00 	restore 

00001ed0 <enableInterruptControllerAndAllInterrupts>:
    1ed0:	15 00 00 3f 	sethi  %hi(0xfc00), %o2
    1ed4:	94 12 a3 ff 	or  %o2, 0x3ff, %o2	! ffff <ajit_global_interrupt_handlers+0x4d57>
    1ed8:	82 13 c0 00 	mov  %o7, %g1
    1edc:	7f ff ff b3 	call  1da8 <writeInterruptControlRegister>
    1ee0:	9e 10 40 00 	mov  %g1, %o7

00001ee4 <setInterruptMask>:
    1ee4:	9d e3 bf a0 	save  %sp, -96, %sp
    1ee8:	90 10 00 18 	mov  %i0, %o0
    1eec:	7f ff ff a7 	call  1d88 <readInterruptControlRegister>
    1ef0:	92 10 00 19 	mov  %i1, %o1
    1ef4:	03 3f ff c0 	sethi  %hi(0xffff0000), %g1
    1ef8:	05 00 00 3f 	sethi  %hi(0xfc00), %g2
    1efc:	82 10 60 01 	or  %g1, 1, %g1
    1f00:	84 10 a3 fe 	or  %g2, 0x3fe, %g2
    1f04:	90 0a 00 01 	and  %o0, %g1, %o0
    1f08:	b4 0e 80 02 	and  %i2, %g2, %i2
    1f0c:	b4 12 00 1a 	or  %o0, %i2, %i2
    1f10:	7f ff ff a6 	call  1da8 <writeInterruptControlRegister>
    1f14:	81 e8 00 00 	restore 

00001f18 <disableInterrupt>:
    1f18:	9d e3 bf a0 	save  %sp, -96, %sp
    1f1c:	90 10 00 18 	mov  %i0, %o0
    1f20:	7f ff ff 9a 	call  1d88 <readInterruptControlRegister>
    1f24:	92 10 00 19 	mov  %i1, %o1
    1f28:	82 10 20 01 	mov  1, %g1
    1f2c:	b5 28 40 1a 	sll  %g1, %i2, %i2
    1f30:	b4 2a 00 1a 	andn  %o0, %i2, %i2
    1f34:	7f ff ff 9d 	call  1da8 <writeInterruptControlRegister>
    1f38:	81 e8 00 00 	restore 

00001f3c <__cortos_bpool>:
    1f3c:	9d e3 bf a0 	save  %sp, -96, %sp
    1f40:	3b 00 00 2c 	sethi  %hi(0xb000), %i5
    1f44:	c2 07 60 5c 	ld  [ %i5 + 0x5c ], %g1	! b05c <bgetLockAddr>
    1f48:	80 a0 60 00 	cmp  %g1, 0
    1f4c:	12 80 00 0b 	bne  1f78 <__cortos_bpool+0x3c>
    1f50:	11 00 00 38 	sethi  %hi(0xe000), %o0
    1f54:	40 00 00 75 	call  2128 <bpool>
    1f58:	13 00 00 64 	sethi  %hi(0x19000), %o1
    1f5c:	03 00 00 2c 	sethi  %hi(0xb000), %g1
    1f60:	82 10 60 68 	or  %g1, 0x68, %g1	! b068 <allocatedLocksNc>
    1f64:	84 10 20 01 	mov  1, %g2
    1f68:	c4 28 60 02 	stb  %g2, [ %g1 + 2 ]
    1f6c:	03 00 00 34 	sethi  %hi(0xd000), %g1
    1f70:	82 10 60 02 	or  %g1, 2, %g1	! d002 <ajit_global_interrupt_handlers+0x1d5a>
    1f74:	c2 27 60 5c 	st  %g1, [ %i5 + 0x5c ]
    1f78:	81 c7 e0 08 	ret 
    1f7c:	81 e8 00 00 	restore 

00001f80 <cortos_bget>:
    1f80:	9d e3 bf a0 	save  %sp, -96, %sp
    1f84:	3b 00 00 2c 	sethi  %hi(0xb000), %i5
    1f88:	7f ff f8 cb 	call  2b4 <cortos_lock_acquire_buzy>
    1f8c:	d0 07 60 5c 	ld  [ %i5 + 0x5c ], %o0	! b05c <bgetLockAddr>
    1f90:	40 00 00 36 	call  2068 <bget>
    1f94:	90 10 00 18 	mov  %i0, %o0
    1f98:	b0 10 00 08 	mov  %o0, %i0
    1f9c:	7f ff f8 e0 	call  31c <cortos_lock_release>
    1fa0:	d0 07 60 5c 	ld  [ %i5 + 0x5c ], %o0
    1fa4:	81 c7 e0 08 	ret 
    1fa8:	81 e8 00 00 	restore 

00001fac <cortos_brel>:
    1fac:	9d e3 bf a0 	save  %sp, -96, %sp
    1fb0:	3b 00 00 2c 	sethi  %hi(0xb000), %i5
    1fb4:	7f ff f8 c0 	call  2b4 <cortos_lock_acquire_buzy>
    1fb8:	d0 07 60 5c 	ld  [ %i5 + 0x5c ], %o0	! b05c <bgetLockAddr>
    1fbc:	40 00 00 6c 	call  216c <brel>
    1fc0:	90 10 00 18 	mov  %i0, %o0
    1fc4:	f0 07 60 5c 	ld  [ %i5 + 0x5c ], %i0
    1fc8:	7f ff f8 d5 	call  31c <cortos_lock_release>
    1fcc:	81 e8 00 00 	restore 

00001fd0 <__cortos_bpool_ncram>:
    1fd0:	9d e3 bf a0 	save  %sp, -96, %sp
    1fd4:	3b 00 00 2c 	sethi  %hi(0xb000), %i5
    1fd8:	c2 07 60 58 	ld  [ %i5 + 0x58 ], %g1	! b058 <bgetNcramLockAddr>
    1fdc:	80 a0 60 00 	cmp  %g1, 0
    1fe0:	12 80 00 0c 	bne  2010 <__cortos_bpool_ncram+0x40>
    1fe4:	11 00 08 00 	sethi  %hi(0x200000), %o0
    1fe8:	13 00 07 ff 	sethi  %hi(0x1ffc00), %o1
    1fec:	7f ff f9 9d 	call  660 <bpool_ncram>
    1ff0:	92 12 63 ff 	or  %o1, 0x3ff, %o1	! 1fffff <ajit_global_interrupt_handlers+0x1f4d57>
    1ff4:	03 00 00 2c 	sethi  %hi(0xb000), %g1
    1ff8:	82 10 60 68 	or  %g1, 0x68, %g1	! b068 <allocatedLocksNc>
    1ffc:	84 10 20 01 	mov  1, %g2
    2000:	c4 28 60 03 	stb  %g2, [ %g1 + 3 ]
    2004:	03 00 00 34 	sethi  %hi(0xd000), %g1
    2008:	82 10 60 03 	or  %g1, 3, %g1	! d003 <ajit_global_interrupt_handlers+0x1d5b>
    200c:	c2 27 60 58 	st  %g1, [ %i5 + 0x58 ]
    2010:	81 c7 e0 08 	ret 
    2014:	81 e8 00 00 	restore 

00002018 <cortos_bget_ncram>:
    2018:	9d e3 bf a0 	save  %sp, -96, %sp
    201c:	3b 00 00 2c 	sethi  %hi(0xb000), %i5
    2020:	7f ff f8 a5 	call  2b4 <cortos_lock_acquire_buzy>
    2024:	d0 07 60 58 	ld  [ %i5 + 0x58 ], %o0	! b058 <bgetNcramLockAddr>
    2028:	7f ff f9 58 	call  588 <bget_ncram>
    202c:	90 10 00 18 	mov  %i0, %o0
    2030:	b0 10 00 08 	mov  %o0, %i0
    2034:	7f ff f8 ba 	call  31c <cortos_lock_release>
    2038:	d0 07 60 58 	ld  [ %i5 + 0x58 ], %o0
    203c:	81 c7 e0 08 	ret 
    2040:	81 e8 00 00 	restore 

00002044 <cortos_brel_ncram>:
    2044:	9d e3 bf a0 	save  %sp, -96, %sp
    2048:	3b 00 00 2c 	sethi  %hi(0xb000), %i5
    204c:	7f ff f8 9a 	call  2b4 <cortos_lock_acquire_buzy>
    2050:	d0 07 60 58 	ld  [ %i5 + 0x58 ], %o0	! b058 <bgetNcramLockAddr>
    2054:	7f ff f9 94 	call  6a4 <brel_ncram>
    2058:	90 10 00 18 	mov  %i0, %o0
    205c:	f0 07 60 58 	ld  [ %i5 + 0x58 ], %i0
    2060:	7f ff f8 af 	call  31c <cortos_lock_release>
    2064:	81 e8 00 00 	restore 

00002068 <bget>:
    2068:	80 a2 20 07 	cmp  %o0, 7
    206c:	08 80 00 23 	bleu  20f8 <bget+0x90>
    2070:	86 10 20 10 	mov  0x10, %g3
    2074:	88 02 20 07 	add  %o0, 7, %g4
    2078:	88 09 3f f8 	and  %g4, -8, %g4
    207c:	88 01 20 08 	add  %g4, 8, %g4
    2080:	86 10 00 04 	mov  %g4, %g3
    2084:	05 00 00 29 	sethi  %hi(0xa400), %g2
    2088:	84 10 a1 68 	or  %g2, 0x168, %g2	! a568 <freelist>
    208c:	d0 00 a0 08 	ld  [ %g2 + 8 ], %o0
    2090:	80 a2 00 02 	cmp  %o0, %g2
    2094:	32 80 00 08 	bne,a   20b4 <bget+0x4c>
    2098:	c2 02 20 04 	ld  [ %o0 + 4 ], %g1
    209c:	81 c3 e0 08 	retl 
    20a0:	90 10 20 00 	clr  %o0
    20a4:	80 a2 00 02 	cmp  %o0, %g2
    20a8:	02 80 00 12 	be  20f0 <bget+0x88>
    20ac:	01 00 00 00 	nop 
    20b0:	c2 02 20 04 	ld  [ %o0 + 4 ], %g1
    20b4:	80 a0 40 03 	cmp  %g1, %g3
    20b8:	26 bf ff fb 	bl,a   20a4 <bget+0x3c>
    20bc:	d0 02 20 08 	ld  [ %o0 + 8 ], %o0
    20c0:	84 20 40 03 	sub  %g1, %g3, %g2
    20c4:	80 a0 a0 10 	cmp  %g2, 0x10
    20c8:	28 80 00 0e 	bleu,a   2100 <bget+0x98>
    20cc:	c6 02 20 08 	ld  [ %o0 + 8 ], %g3
    20d0:	c4 22 20 04 	st  %g2, [ %o0 + 4 ]
    20d4:	c4 22 00 02 	st  %g2, [ %o0 + %g2 ]
    20d8:	86 20 00 03 	neg  %g3
    20dc:	90 02 00 02 	add  %o0, %g2, %o0
    20e0:	c0 22 00 04 	clr  [ %o0 + %g4 ]
    20e4:	c6 22 20 04 	st  %g3, [ %o0 + 4 ]
    20e8:	81 c3 e0 08 	retl 
    20ec:	90 02 20 08 	add  %o0, 8, %o0
    20f0:	81 c3 e0 08 	retl 
    20f4:	90 10 20 00 	clr  %o0
    20f8:	10 bf ff e3 	b  2084 <bget+0x1c>
    20fc:	88 10 20 10 	mov  0x10, %g4
    2100:	c4 02 20 0c 	ld  [ %o0 + 0xc ], %g2
    2104:	c6 20 a0 08 	st  %g3, [ %g2 + 8 ]
    2108:	c6 02 20 08 	ld  [ %o0 + 8 ], %g3
    210c:	c4 20 e0 0c 	st  %g2, [ %g3 + 0xc ]
    2110:	c0 22 00 01 	clr  [ %o0 + %g1 ]
    2114:	84 20 00 01 	neg  %g1, %g2
    2118:	c4 22 20 04 	st  %g2, [ %o0 + 4 ]
    211c:	90 02 20 08 	add  %o0, 8, %o0
    2120:	81 c3 e0 08 	retl 
    2124:	01 00 00 00 	nop 

00002128 <bpool>:
    2128:	03 00 00 29 	sethi  %hi(0xa400), %g1
    212c:	82 10 61 68 	or  %g1, 0x168, %g1	! a568 <freelist>
    2130:	c4 00 60 0c 	ld  [ %g1 + 0xc ], %g2
    2134:	c2 22 20 08 	st  %g1, [ %o0 + 8 ]
    2138:	c4 22 20 0c 	st  %g2, [ %o0 + 0xc ]
    213c:	d0 20 60 0c 	st  %o0, [ %g1 + 0xc ]
    2140:	c0 22 00 00 	clr  [ %o0 ]
    2144:	c2 02 20 0c 	ld  [ %o0 + 0xc ], %g1
    2148:	92 0a 7f f8 	and  %o1, -8, %o1
    214c:	d0 20 60 08 	st  %o0, [ %g1 + 8 ]
    2150:	92 02 7f f8 	add  %o1, -8, %o1
    2154:	d2 22 20 04 	st  %o1, [ %o0 + 4 ]
    2158:	82 02 00 09 	add  %o0, %o1, %g1
    215c:	05 20 00 00 	sethi  %hi(0x80000000), %g2
    2160:	d2 22 00 09 	st  %o1, [ %o0 + %o1 ]
    2164:	81 c3 e0 08 	retl 
    2168:	c4 20 60 04 	st  %g2, [ %g1 + 4 ]

0000216c <brel>:
    216c:	c2 02 3f f8 	ld  [ %o0 + -8 ], %g1
    2170:	80 a0 60 00 	cmp  %g1, 0
    2174:	02 80 00 16 	be  21cc <brel+0x60>
    2178:	84 02 3f f8 	add  %o0, -8, %g2
    217c:	84 20 80 01 	sub  %g2, %g1, %g2
    2180:	c2 02 3f fc 	ld  [ %o0 + -4 ], %g1
    2184:	c6 00 a0 04 	ld  [ %g2 + 4 ], %g3
    2188:	82 20 c0 01 	sub  %g3, %g1, %g1
    218c:	c2 20 a0 04 	st  %g1, [ %g2 + 4 ]
    2190:	86 00 80 01 	add  %g2, %g1, %g3
    2194:	c8 00 e0 04 	ld  [ %g3 + 4 ], %g4
    2198:	80 a1 20 00 	cmp  %g4, 0
    219c:	04 80 00 0a 	ble  21c4 <brel+0x58>
    21a0:	01 00 00 00 	nop 
    21a4:	da 00 e0 0c 	ld  [ %g3 + 0xc ], %o5
    21a8:	82 00 40 04 	add  %g1, %g4, %g1
    21ac:	d8 00 e0 08 	ld  [ %g3 + 8 ], %o4
    21b0:	c2 20 a0 04 	st  %g1, [ %g2 + 4 ]
    21b4:	d8 23 60 08 	st  %o4, [ %o5 + 8 ]
    21b8:	c8 00 e0 08 	ld  [ %g3 + 8 ], %g4
    21bc:	86 00 80 01 	add  %g2, %g1, %g3
    21c0:	da 21 20 0c 	st  %o5, [ %g4 + 0xc ]
    21c4:	81 c3 e0 08 	retl 
    21c8:	c2 20 c0 00 	st  %g1, [ %g3 ]
    21cc:	07 00 00 29 	sethi  %hi(0xa400), %g3
    21d0:	86 10 e1 68 	or  %g3, 0x168, %g3	! a568 <freelist>
    21d4:	c2 00 e0 0c 	ld  [ %g3 + 0xc ], %g1
    21d8:	c6 22 00 00 	st  %g3, [ %o0 ]
    21dc:	c2 22 20 04 	st  %g1, [ %o0 + 4 ]
    21e0:	c4 20 e0 0c 	st  %g2, [ %g3 + 0xc ]
    21e4:	c2 02 3f fc 	ld  [ %o0 + -4 ], %g1
    21e8:	c6 02 20 04 	ld  [ %o0 + 4 ], %g3
    21ec:	82 20 00 01 	neg  %g1
    21f0:	c4 20 e0 08 	st  %g2, [ %g3 + 8 ]
    21f4:	10 bf ff e7 	b  2190 <brel+0x24>
    21f8:	c2 22 3f fc 	st  %g1, [ %o0 + -4 ]
    21fc:	00 00 26 74 	unimp  0x2674
    2200:	00 00 26 ac 	unimp  0x26ac
    2204:	00 00 26 b8 	unimp  0x26b8
    2208:	00 00 26 c4 	unimp  0x26c4
    220c:	00 00 26 d0 	unimp  0x26d0
    2210:	00 00 26 dc 	unimp  0x26dc
    2214:	00 00 26 e8 	unimp  0x26e8
    2218:	00 00 26 f4 	unimp  0x26f4
    221c:	00 00 27 00 	unimp  0x2700
    2220:	00 00 27 0c 	unimp  0x270c
    2224:	00 00 27 18 	unimp  0x2718
    2228:	00 00 27 24 	unimp  0x2724
    222c:	00 00 27 30 	unimp  0x2730
    2230:	00 00 27 3c 	unimp  0x273c
    2234:	00 00 26 94 	unimp  0x2694
    2238:	00 00 26 a0 	unimp  0x26a0
    223c:	00 00 27 58 	unimp  0x2758
    2240:	00 00 27 90 	unimp  0x2790
    2244:	00 00 27 9c 	unimp  0x279c
    2248:	00 00 27 a8 	unimp  0x27a8
    224c:	00 00 27 b4 	unimp  0x27b4
    2250:	00 00 27 c0 	unimp  0x27c0
    2254:	00 00 27 cc 	unimp  0x27cc
    2258:	00 00 27 d8 	unimp  0x27d8
    225c:	00 00 27 e4 	unimp  0x27e4
    2260:	00 00 27 f0 	unimp  0x27f0
    2264:	00 00 27 fc 	unimp  0x27fc
    2268:	00 00 28 08 	unimp  0x2808
    226c:	00 00 28 14 	unimp  0x2814
    2270:	00 00 28 20 	unimp  0x2820
    2274:	00 00 27 78 	unimp  0x2778
    2278:	00 00 27 84 	unimp  0x2784

0000227c <__ajit_clear_all_gp_registers__>:
    227c:	82 10 00 00 	mov  %g0, %g1
    2280:	84 10 00 00 	mov  %g0, %g2
    2284:	86 10 00 00 	mov  %g0, %g3
    2288:	88 10 00 00 	mov  %g0, %g4
    228c:	8a 10 00 00 	mov  %g0, %g5
    2290:	8c 10 00 00 	mov  %g0, %g6
    2294:	8e 10 00 00 	mov  %g0, %g7
    2298:	b0 10 00 00 	mov  %g0, %i0
    229c:	b2 10 00 00 	mov  %g0, %i1
    22a0:	b4 10 00 00 	mov  %g0, %i2
    22a4:	b6 10 00 00 	mov  %g0, %i3
    22a8:	b8 10 00 00 	mov  %g0, %i4
    22ac:	ba 10 00 00 	mov  %g0, %i5
    22b0:	bc 10 00 00 	mov  %g0, %fp
    22b4:	be 10 00 00 	mov  %g0, %i7
    22b8:	a0 10 00 00 	mov  %g0, %l0
    22bc:	a2 10 00 00 	mov  %g0, %l1
    22c0:	a4 10 00 00 	mov  %g0, %l2
    22c4:	a6 10 00 00 	mov  %g0, %l3
    22c8:	a8 10 00 00 	mov  %g0, %l4
    22cc:	aa 10 00 00 	mov  %g0, %l5
    22d0:	ac 10 00 00 	mov  %g0, %l6
    22d4:	ae 10 00 00 	mov  %g0, %l7
    22d8:	90 10 00 00 	mov  %g0, %o0
    22dc:	92 10 00 00 	mov  %g0, %o1
    22e0:	94 10 00 00 	mov  %g0, %o2
    22e4:	96 10 00 00 	mov  %g0, %o3
    22e8:	98 10 00 00 	mov  %g0, %o4
    22ec:	9a 10 00 00 	mov  %g0, %o5
    22f0:	9c 10 00 00 	mov  %g0, %sp
    22f4:	9e 10 00 00 	mov  %g0, %o7
    22f8:	82 10 20 07 	mov  7, %g1
    22fc:	81 e0 00 00 	save 
    2300:	a0 10 00 00 	mov  %g0, %l0
    2304:	a2 10 00 00 	mov  %g0, %l1
    2308:	a4 10 00 00 	mov  %g0, %l2
    230c:	a6 10 00 00 	mov  %g0, %l3
    2310:	a8 10 00 00 	mov  %g0, %l4
    2314:	aa 10 00 00 	mov  %g0, %l5
    2318:	ac 10 00 00 	mov  %g0, %l6
    231c:	ae 10 00 00 	mov  %g0, %l7
    2320:	90 10 00 00 	mov  %g0, %o0
    2324:	92 10 00 00 	mov  %g0, %o1
    2328:	94 10 00 00 	mov  %g0, %o2
    232c:	96 10 00 00 	mov  %g0, %o3
    2330:	98 10 00 00 	mov  %g0, %o4
    2334:	9a 10 00 00 	mov  %g0, %o5
    2338:	9c 10 00 00 	mov  %g0, %sp
    233c:	9e 10 00 00 	mov  %g0, %o7
    2340:	82 80 7f ff 	addcc  %g1, -1, %g1
    2344:	12 bf ff ee 	bne  22fc <__ajit_clear_all_gp_registers__+0x80>
    2348:	01 00 00 00 	nop 
    234c:	82 10 20 07 	mov  7, %g1	! 7 <_start+0x7>
    2350:	81 e8 00 00 	restore 
    2354:	82 80 7f ff 	addcc  %g1, -1, %g1
    2358:	12 bf ff fe 	bne  2350 <__ajit_clear_all_gp_registers__+0xd4>
    235c:	01 00 00 00 	nop 
    2360:	81 c3 e0 08 	retl 
    2364:	01 00 00 00 	nop 

00002368 <ajit_read_from_scratch_pad>:
    2368:	80 a2 20 1f 	cmp  %o0, 0x1f
    236c:	18 80 00 05 	bgu  2380 <ajit_read_from_scratch_pad+0x18>
    2370:	82 10 20 00 	clr  %g1
    2374:	91 2a 20 02 	sll  %o0, 2, %o0
    2378:	03 3f ff cb 	sethi  %hi(0xffff2c00), %g1
    237c:	c2 02 00 01 	ld  [ %o0 + %g1 ], %g1
    2380:	81 c3 e0 08 	retl 
    2384:	90 10 00 01 	mov  %g1, %o0

00002388 <ajit_write_to_scratch_pad>:
    2388:	80 a2 20 1f 	cmp  %o0, 0x1f
    238c:	18 80 00 04 	bgu  239c <ajit_write_to_scratch_pad+0x14>
    2390:	91 2a 20 02 	sll  %o0, 2, %o0
    2394:	03 3f ff cb 	sethi  %hi(0xffff2c00), %g1
    2398:	d2 22 00 01 	st  %o1, [ %o0 + %g1 ]
    239c:	81 c3 e0 08 	retl 
    23a0:	01 00 00 00 	nop 

000023a4 <ajit_configure_i2c_master>:
    23a4:	81 80 20 00 	mov  %g0, %y
    23a8:	01 00 00 00 	nop 
    23ac:	01 00 00 00 	nop 
    23b0:	01 00 00 00 	nop 
    23b4:	92 72 00 09 	udiv  %o0, %o1, %o1
    23b8:	03 3f ff cd 	sethi  %hi(0xffff3400), %g1
    23bc:	93 32 60 02 	srl  %o1, 2, %o1
    23c0:	82 10 62 00 	or  %g1, 0x200, %g1
    23c4:	90 10 20 00 	clr  %o0
    23c8:	81 c3 e0 08 	retl 
    23cc:	d2 20 40 00 	st  %o1, [ %g1 ]

000023d0 <ajit_i2c_master_is_ready>:
    23d0:	03 3f ff cd 	sethi  %hi(0xffff3400), %g1
    23d4:	82 10 62 08 	or  %g1, 0x208, %g1	! ffff3608 <ajit_global_interrupt_handlers+0xfffe8360>
    23d8:	d0 00 40 00 	ld  [ %g1 ], %o0
    23dc:	91 32 20 0a 	srl  %o0, 0xa, %o0
    23e0:	81 c3 e0 08 	retl 
    23e4:	90 0a 20 01 	and  %o0, 1, %o0

000023e8 <ajit_i2c_master_write_command>:
    23e8:	03 3f ff cd 	sethi  %hi(0xffff3400), %g1
    23ec:	82 10 62 04 	or  %g1, 0x204, %g1	! ffff3604 <ajit_global_interrupt_handlers+0xfffe835c>
    23f0:	81 c3 e0 08 	retl 
    23f4:	d0 20 40 00 	st  %o0, [ %g1 ]

000023f8 <ajit_i2c_master_read_status>:
    23f8:	03 3f ff cd 	sethi  %hi(0xffff3400), %g1
    23fc:	82 10 62 08 	or  %g1, 0x208, %g1	! ffff3608 <ajit_global_interrupt_handlers+0xfffe8360>
    2400:	81 c3 e0 08 	retl 
    2404:	d0 00 40 00 	ld  [ %g1 ], %o0

00002408 <ajit_i2c_master_access_slave_memory_device>:
    2408:	03 3f ff cd 	sethi  %hi(0xffff3400), %g1
    240c:	84 10 62 08 	or  %g1, 0x208, %g2	! ffff3608 <ajit_global_interrupt_handlers+0xfffe8360>
    2410:	c4 00 80 00 	ld  [ %g2 ], %g2
    2414:	80 88 a4 00 	btst  0x400, %g2
    2418:	02 80 00 11 	be  245c <ajit_i2c_master_access_slave_memory_device+0x54>
    241c:	82 10 62 04 	or  %g1, 0x204, %g1
    2420:	91 2a 20 10 	sll  %o0, 0x10, %o0
    2424:	87 2a 60 1f 	sll  %o1, 0x1f, %g3
    2428:	09 18 00 00 	sethi  %hi(0x60000000), %g4
    242c:	95 2a a0 08 	sll  %o2, 8, %o2
    2430:	90 12 00 04 	or  %o0, %g4, %o0
    2434:	90 12 00 03 	or  %o0, %g3, %o0
    2438:	94 12 00 0a 	or  %o0, %o2, %o2
    243c:	96 12 80 0b 	or  %o2, %o3, %o3
    2440:	d6 20 40 00 	st  %o3, [ %g1 ]
    2444:	80 a2 60 00 	cmp  %o1, 0
    2448:	02 80 00 03 	be  2454 <ajit_i2c_master_access_slave_memory_device+0x4c>
    244c:	90 10 20 00 	clr  %o0
    2450:	90 10 00 02 	mov  %g2, %o0
    2454:	81 c3 e0 08 	retl 
    2458:	90 0a 20 ff 	and  %o0, 0xff, %o0
    245c:	30 80 00 00 	b,a   245c <ajit_i2c_master_access_slave_memory_device+0x54>

00002460 <__ajit_read_core_thread_id_word__>:
    2460:	91 47 40 00 	rd  %asr29, %o0
    2464:	81 c3 e0 08 	retl 
    2468:	01 00 00 00 	nop 

0000246c <ajit_read_thread_descriptor>:
    246c:	9d e3 bf a0 	save  %sp, -96, %sp
    2470:	83 47 00 00 	rd  %asr28, %g1
    2474:	87 30 60 1e 	srl  %g1, 0x1e, %g3
    2478:	80 a0 e0 03 	cmp  %g3, 3
    247c:	02 80 00 0a 	be  24a4 <ajit_read_thread_descriptor+0x38>
    2480:	84 10 20 20 	mov  0x20, %g2
    2484:	80 a0 e0 02 	cmp  %g3, 2
    2488:	02 80 00 07 	be  24a4 <ajit_read_thread_descriptor+0x38>
    248c:	84 10 20 10 	mov  0x10, %g2
    2490:	86 18 e0 01 	xor  %g3, 1, %g3
    2494:	80 a0 00 03 	cmp  %g0, %g3
    2498:	84 60 20 00 	subx  %g0, 0, %g2
    249c:	84 08 a0 fc 	and  %g2, 0xfc, %g2
    24a0:	84 00 a0 08 	add  %g2, 8, %g2
    24a4:	87 30 60 1c 	srl  %g1, 0x1c, %g3
    24a8:	86 08 e0 03 	and  %g3, 3, %g3
    24ac:	80 a0 e0 03 	cmp  %g3, 3
    24b0:	02 80 00 2d 	be  2564 <ajit_read_thread_descriptor+0xf8>
    24b4:	c4 2e 00 00 	stb  %g2, [ %i0 ]
    24b8:	80 a0 e0 02 	cmp  %g3, 2
    24bc:	02 80 00 07 	be  24d8 <ajit_read_thread_descriptor+0x6c>
    24c0:	84 10 20 10 	mov  0x10, %g2
    24c4:	86 18 e0 01 	xor  %g3, 1, %g3
    24c8:	80 a0 00 03 	cmp  %g0, %g3
    24cc:	84 60 20 00 	subx  %g0, 0, %g2
    24d0:	84 08 a0 fc 	and  %g2, 0xfc, %g2
    24d4:	84 00 a0 08 	add  %g2, 8, %g2
    24d8:	99 30 60 1a 	srl  %g1, 0x1a, %o4
    24dc:	9b 30 60 18 	srl  %g1, 0x18, %o5
    24e0:	9f 30 60 14 	srl  %g1, 0x14, %o7
    24e4:	b3 30 60 10 	srl  %g1, 0x10, %i1
    24e8:	b5 30 60 0c 	srl  %g1, 0xc, %i2
    24ec:	b7 30 60 09 	srl  %g1, 9, %i3
    24f0:	b9 30 60 07 	srl  %g1, 7, %i4
    24f4:	bb 30 60 05 	srl  %g1, 5, %i5
    24f8:	89 30 60 02 	srl  %g1, 2, %g4
    24fc:	87 30 60 01 	srl  %g1, 1, %g3
    2500:	98 0b 20 03 	and  %o4, 3, %o4
    2504:	9a 0b 60 03 	and  %o5, 3, %o5
    2508:	9e 0b e0 0f 	and  %o7, 0xf, %o7
    250c:	b2 0e 60 0f 	and  %i1, 0xf, %i1
    2510:	b4 0e a0 0f 	and  %i2, 0xf, %i2
    2514:	b6 0e e0 07 	and  %i3, 7, %i3
    2518:	b8 0f 20 03 	and  %i4, 3, %i4
    251c:	ba 0f 60 03 	and  %i5, 3, %i5
    2520:	88 09 20 01 	and  %g4, 1, %g4
    2524:	86 08 e0 01 	and  %g3, 1, %g3
    2528:	82 08 60 01 	and  %g1, 1, %g1
    252c:	c4 2e 20 01 	stb  %g2, [ %i0 + 1 ]
    2530:	d8 2e 20 02 	stb  %o4, [ %i0 + 2 ]
    2534:	da 2e 20 03 	stb  %o5, [ %i0 + 3 ]
    2538:	de 2e 20 04 	stb  %o7, [ %i0 + 4 ]
    253c:	f2 2e 20 05 	stb  %i1, [ %i0 + 5 ]
    2540:	f4 2e 20 06 	stb  %i2, [ %i0 + 6 ]
    2544:	f6 2e 20 07 	stb  %i3, [ %i0 + 7 ]
    2548:	f8 2e 20 08 	stb  %i4, [ %i0 + 8 ]
    254c:	fa 2e 20 09 	stb  %i5, [ %i0 + 9 ]
    2550:	c8 2e 20 0a 	stb  %g4, [ %i0 + 0xa ]
    2554:	c6 2e 20 0b 	stb  %g3, [ %i0 + 0xb ]
    2558:	c2 2e 20 0c 	stb  %g1, [ %i0 + 0xc ]
    255c:	81 c7 e0 08 	ret 
    2560:	81 e8 00 00 	restore 
    2564:	10 bf ff dd 	b  24d8 <ajit_read_thread_descriptor+0x6c>
    2568:	84 10 20 20 	mov  0x20, %g2

0000256c <ajit_get_core_and_thread_id>:
    256c:	83 47 40 00 	rd  %asr29, %g1
    2570:	85 30 60 08 	srl  %g1, 8, %g2
    2574:	c4 2a 00 00 	stb  %g2, [ %o0 ]
    2578:	81 c3 e0 08 	retl 
    257c:	c2 2a 40 00 	stb  %g1, [ %o1 ]

00002580 <__ajit_read_cycle_count_register_high__>:
    2580:	91 47 80 00 	rd  %asr30, %o0
    2584:	81 c3 e0 08 	retl 
    2588:	01 00 00 00 	nop 

0000258c <__ajit_read_cycle_count_register_low__>:
    258c:	91 47 c0 00 	rd  %asr31, %o0
    2590:	81 c3 e0 08 	retl 
    2594:	01 00 00 00 	nop 

00002598 <__ajit_get_clock_time>:
    2598:	99 47 c0 00 	rd  %asr31, %o4
    259c:	83 47 80 00 	rd  %asr30, %g1
    25a0:	86 10 20 00 	clr  %g3
    25a4:	9a 10 00 0c 	mov  %o4, %o5
    25a8:	98 10 20 00 	clr  %o4
    25ac:	86 10 c0 0d 	or  %g3, %o5, %g3
    25b0:	84 10 40 0c 	or  %g1, %o4, %g2
    25b4:	92 10 00 03 	mov  %g3, %o1
    25b8:	81 c3 e0 08 	retl 
    25bc:	90 10 00 02 	mov  %g2, %o0

000025c0 <__ajit_sleep__>:
    25c0:	95 47 c0 00 	rd  %asr31, %o2
    25c4:	83 47 80 00 	rd  %asr30, %g1
    25c8:	9a 10 20 00 	clr  %o5
    25cc:	96 10 00 0a 	mov  %o2, %o3
    25d0:	9a 13 40 0b 	or  %o5, %o3, %o5
    25d4:	92 83 40 08 	addcc  %o5, %o0, %o1
    25d8:	94 10 20 00 	clr  %o2
    25dc:	98 10 40 0a 	or  %g1, %o2, %o4
    25e0:	90 43 20 00 	addx  %o4, 0, %o0
    25e4:	80 a2 00 0c 	cmp  %o0, %o4
    25e8:	08 80 00 0c 	bleu  2618 <__ajit_sleep__+0x58>
    25ec:	01 00 00 00 	nop 
    25f0:	99 47 c0 00 	rd  %asr31, %o4
    25f4:	83 47 80 00 	rd  %asr30, %g1
    25f8:	86 10 20 00 	clr  %g3
    25fc:	9a 10 00 0c 	mov  %o4, %o5
    2600:	98 10 20 00 	clr  %o4
    2604:	98 10 40 0c 	or  %g1, %o4, %o4
    2608:	80 a2 00 0c 	cmp  %o0, %o4
    260c:	18 bf ff f9 	bgu  25f0 <__ajit_sleep__+0x30>
    2610:	9a 10 c0 0d 	or  %g3, %o5, %o5
    2614:	80 a2 00 0c 	cmp  %o0, %o4
    2618:	12 80 00 04 	bne  2628 <__ajit_sleep__+0x68>
    261c:	80 a2 40 0d 	cmp  %o1, %o5
    2620:	18 bf ff f4 	bgu  25f0 <__ajit_sleep__+0x30>
    2624:	01 00 00 00 	nop 
    2628:	81 c3 e0 08 	retl 
    262c:	01 00 00 00 	nop 

00002630 <__ajit_set_mmu_default_cacheable_bit__>:
    2630:	80 a0 00 08 	cmp  %g0, %o0
    2634:	84 10 20 00 	clr  %g2
    2638:	82 40 20 00 	addx  %g0, 0, %g1
    263c:	83 28 60 08 	sll  %g1, 8, %g1
    2640:	c2 a0 80 80 	sta  %g1, [ %g2 ] #ASI_N
    2644:	81 c3 e0 08 	retl 
    2648:	01 00 00 00 	nop 

0000264c <__ajit_store_word_mmu_reg__>:
    264c:	d0 a2 40 80 	sta  %o0, [ %o1 ] #ASI_N
    2650:	81 c3 e0 08 	retl 
    2654:	01 00 00 00 	nop 

00002658 <__ajit_store_word_mmu_bypass__>:
    2658:	d0 a2 44 00 	sta  %o0, [ %o1 ] #ASI_SCRATCHPAD
    265c:	81 c3 e0 08 	retl 
    2660:	01 00 00 00 	nop 

00002664 <__ajit_store_word_to_physical_address__>:
    2664:	86 0a 60 0f 	and  %o1, 0xf, %g3
    2668:	80 a0 e0 0f 	cmp  %g3, 0xf
    266c:	08 80 00 05 	bleu  2680 <__ajit_store_word_to_physical_address__+0x1c>
    2670:	83 28 e0 02 	sll  %g3, 2, %g1
    2674:	d0 a2 84 00 	sta  %o0, [ %o2 ] #ASI_SCRATCHPAD
    2678:	81 c3 e0 08 	retl 
    267c:	01 00 00 00 	nop 
    2680:	05 00 00 08 	sethi  %hi(0x2000), %g2
    2684:	84 10 a1 fc 	or  %g2, 0x1fc, %g2	! 21fc <brel+0x90>
    2688:	c2 00 80 01 	ld  [ %g2 + %g1 ], %g1
    268c:	81 c0 40 00 	jmp  %g1
    2690:	01 00 00 00 	nop 
    2694:	d0 a2 85 c0 	sta  %o0, [ %o2 ] (46)
    2698:	81 c3 e0 08 	retl 
    269c:	01 00 00 00 	nop 
    26a0:	d0 a2 85 e0 	sta  %o0, [ %o2 ] (47)
    26a4:	81 c3 e0 08 	retl 
    26a8:	01 00 00 00 	nop 
    26ac:	d0 a2 84 20 	sta  %o0, [ %o2 ] #ASI_MMU
    26b0:	81 c3 e0 08 	retl 
    26b4:	01 00 00 00 	nop 
    26b8:	d0 a2 84 40 	sta  %o0, [ %o2 ] (34)
    26bc:	81 c3 e0 08 	retl 
    26c0:	01 00 00 00 	nop 
    26c4:	d0 a2 84 60 	sta  %o0, [ %o2 ] #ASI_BLK_INIT_QUAD_LDD_AIUS
    26c8:	81 c3 e0 08 	retl 
    26cc:	01 00 00 00 	nop 
    26d0:	d0 a2 84 80 	sta  %o0, [ %o2 ] #ASI_NUCLEUS_QUAD_LDD
    26d4:	81 c3 e0 08 	retl 
    26d8:	01 00 00 00 	nop 
    26dc:	d0 a2 84 a0 	sta  %o0, [ %o2 ] #ASI_QUEUE
    26e0:	81 c3 e0 08 	retl 
    26e4:	01 00 00 00 	nop 
    26e8:	d0 a2 84 c0 	sta  %o0, [ %o2 ] #ASI_QUAD_LDD_PHYS_4V
    26ec:	81 c3 e0 08 	retl 
    26f0:	01 00 00 00 	nop 
    26f4:	d0 a2 84 e0 	sta  %o0, [ %o2 ] (39)
    26f8:	81 c3 e0 08 	retl 
    26fc:	01 00 00 00 	nop 
    2700:	d0 a2 85 00 	sta  %o0, [ %o2 ] (40)
    2704:	81 c3 e0 08 	retl 
    2708:	01 00 00 00 	nop 
    270c:	d0 a2 85 20 	sta  %o0, [ %o2 ] (41)
    2710:	81 c3 e0 08 	retl 
    2714:	01 00 00 00 	nop 
    2718:	d0 a2 85 40 	sta  %o0, [ %o2 ] (42)
    271c:	81 c3 e0 08 	retl 
    2720:	01 00 00 00 	nop 
    2724:	d0 a2 85 60 	sta  %o0, [ %o2 ] (43)
    2728:	81 c3 e0 08 	retl 
    272c:	01 00 00 00 	nop 
    2730:	d0 a2 85 80 	sta  %o0, [ %o2 ] #ASI_NUCLEUS_QUAD_LDD_L
    2734:	81 c3 e0 08 	retl 
    2738:	01 00 00 00 	nop 
    273c:	d0 a2 85 a0 	sta  %o0, [ %o2 ] (45)
    2740:	81 c3 e0 08 	retl 
    2744:	01 00 00 00 	nop 

00002748 <__ajit_load_word_from_physical_address__>:
    2748:	86 0a 20 0f 	and  %o0, 0xf, %g3
    274c:	80 a0 e0 0f 	cmp  %g3, 0xf
    2750:	08 80 00 05 	bleu  2764 <__ajit_load_word_from_physical_address__+0x1c>
    2754:	83 28 e0 02 	sll  %g3, 2, %g1
    2758:	d0 82 44 00 	lda  [ %o1 ] #ASI_SCRATCHPAD, %o0
    275c:	81 c3 e0 08 	retl 
    2760:	01 00 00 00 	nop 
    2764:	05 00 00 08 	sethi  %hi(0x2000), %g2
    2768:	84 10 a2 3c 	or  %g2, 0x23c, %g2	! 223c <brel+0xd0>
    276c:	c2 00 80 01 	ld  [ %g2 + %g1 ], %g1
    2770:	81 c0 40 00 	jmp  %g1
    2774:	01 00 00 00 	nop 
    2778:	d0 82 45 c0 	lda  [ %o1 ] (46), %o0
    277c:	81 c3 e0 08 	retl 
    2780:	01 00 00 00 	nop 
    2784:	d0 82 45 e0 	lda  [ %o1 ] (47), %o0
    2788:	81 c3 e0 08 	retl 
    278c:	01 00 00 00 	nop 
    2790:	d0 82 44 20 	lda  [ %o1 ] #ASI_MMU, %o0
    2794:	81 c3 e0 08 	retl 
    2798:	01 00 00 00 	nop 
    279c:	d0 82 44 40 	lda  [ %o1 ] (34), %o0
    27a0:	81 c3 e0 08 	retl 
    27a4:	01 00 00 00 	nop 
    27a8:	d0 82 44 60 	lda  [ %o1 ] #ASI_BLK_INIT_QUAD_LDD_AIUS, %o0
    27ac:	81 c3 e0 08 	retl 
    27b0:	01 00 00 00 	nop 
    27b4:	d0 82 44 80 	lda  [ %o1 ] #ASI_NUCLEUS_QUAD_LDD, %o0
    27b8:	81 c3 e0 08 	retl 
    27bc:	01 00 00 00 	nop 
    27c0:	d0 82 44 a0 	lda  [ %o1 ] #ASI_QUEUE, %o0
    27c4:	81 c3 e0 08 	retl 
    27c8:	01 00 00 00 	nop 
    27cc:	d0 82 44 c0 	lda  [ %o1 ] #ASI_QUAD_LDD_PHYS_4V, %o0
    27d0:	81 c3 e0 08 	retl 
    27d4:	01 00 00 00 	nop 
    27d8:	d0 82 44 e0 	lda  [ %o1 ] (39), %o0
    27dc:	81 c3 e0 08 	retl 
    27e0:	01 00 00 00 	nop 
    27e4:	d0 82 45 00 	lda  [ %o1 ] (40), %o0
    27e8:	81 c3 e0 08 	retl 
    27ec:	01 00 00 00 	nop 
    27f0:	d0 82 45 20 	lda  [ %o1 ] (41), %o0
    27f4:	81 c3 e0 08 	retl 
    27f8:	01 00 00 00 	nop 
    27fc:	d0 82 45 40 	lda  [ %o1 ] (42), %o0
    2800:	81 c3 e0 08 	retl 
    2804:	01 00 00 00 	nop 
    2808:	d0 82 45 60 	lda  [ %o1 ] (43), %o0
    280c:	81 c3 e0 08 	retl 
    2810:	01 00 00 00 	nop 
    2814:	d0 82 45 80 	lda  [ %o1 ] #ASI_NUCLEUS_QUAD_LDD_L, %o0
    2818:	81 c3 e0 08 	retl 
    281c:	01 00 00 00 	nop 
    2820:	d0 82 45 a0 	lda  [ %o1 ] (45), %o0
    2824:	81 c3 e0 08 	retl 
    2828:	01 00 00 00 	nop 

0000282c <__ajit_load_word_mmu_reg__>:
    282c:	d0 82 00 80 	lda  [ %o0 ] #ASI_N, %o0
    2830:	81 c3 e0 08 	retl 
    2834:	01 00 00 00 	nop 

00002838 <__ajit_load_word_mmu_bypass__>:
    2838:	d0 82 04 00 	lda  [ %o0 ] #ASI_SCRATCHPAD, %o0
    283c:	81 c3 e0 08 	retl 
    2840:	01 00 00 00 	nop 

00002844 <__ajit_flush_icache__>:
    2844:	81 d8 20 00 	flush  %g0
    2848:	81 c3 e0 08 	retl 
    284c:	01 00 00 00 	nop 

00002850 <__ajit_flush_dcache__>:
    2850:	c0 a0 02 60 	sta  %g0, [ %g0 ] (19)
    2854:	81 c3 e0 08 	retl 
    2858:	01 00 00 00 	nop 

0000285c <__ajit_write_timer_control_register__>:
    285c:	03 3f ff cc 	sethi  %hi(0xffff3000), %g1
    2860:	82 10 61 00 	or  %g1, 0x100, %g1	! ffff3100 <ajit_global_interrupt_handlers+0xfffe7e58>
    2864:	d0 a0 44 00 	sta  %o0, [ %g1 ] #ASI_SCRATCHPAD
    2868:	81 c3 e0 08 	retl 
    286c:	01 00 00 00 	nop 

00002870 <__ajit_read_timer_control_register__>:
    2870:	11 3f ff cc 	sethi  %hi(0xffff3000), %o0
    2874:	90 12 21 00 	or  %o0, 0x100, %o0	! ffff3100 <ajit_global_interrupt_handlers+0xfffe7e58>
    2878:	d0 82 04 00 	lda  [ %o0 ] #ASI_SCRATCHPAD, %o0
    287c:	81 c3 e0 08 	retl 
    2880:	01 00 00 00 	nop 

00002884 <__ajit_write_timer_control_register_via_vmap__>:
    2884:	03 3f ff cc 	sethi  %hi(0xffff3000), %g1
    2888:	82 10 61 00 	or  %g1, 0x100, %g1	! ffff3100 <ajit_global_interrupt_handlers+0xfffe7e58>
    288c:	81 c3 e0 08 	retl 
    2890:	d0 20 40 00 	st  %o0, [ %g1 ]

00002894 <__ajit_read_timer_control_register_via_vmap__>:
    2894:	03 3f ff cc 	sethi  %hi(0xffff3000), %g1
    2898:	82 10 61 00 	or  %g1, 0x100, %g1	! ffff3100 <ajit_global_interrupt_handlers+0xfffe7e58>
    289c:	81 c3 e0 08 	retl 
    28a0:	d0 00 40 00 	ld  [ %g1 ], %o0

000028a4 <__ajit_write_serial_control_register__>:
    28a4:	03 3f ff cc 	sethi  %hi(0xffff3000), %g1
    28a8:	82 10 62 00 	or  %g1, 0x200, %g1	! ffff3200 <ajit_global_interrupt_handlers+0xfffe7f58>
    28ac:	d0 a0 44 00 	sta  %o0, [ %g1 ] #ASI_SCRATCHPAD
    28b0:	81 c3 e0 08 	retl 
    28b4:	01 00 00 00 	nop 

000028b8 <__ajit_read_serial_control_register__>:
    28b8:	11 3f ff cc 	sethi  %hi(0xffff3000), %o0
    28bc:	90 12 22 00 	or  %o0, 0x200, %o0	! ffff3200 <ajit_global_interrupt_handlers+0xfffe7f58>
    28c0:	d0 82 04 00 	lda  [ %o0 ] #ASI_SCRATCHPAD, %o0
    28c4:	81 c3 e0 08 	retl 
    28c8:	01 00 00 00 	nop 

000028cc <__ajit_write_serial_tx_register__>:
    28cc:	03 3f ff cc 	sethi  %hi(0xffff3000), %g1
    28d0:	82 10 62 04 	or  %g1, 0x204, %g1	! ffff3204 <ajit_global_interrupt_handlers+0xfffe7f5c>
    28d4:	d0 a8 44 00 	stba  %o0, [ %g1 ] #ASI_SCRATCHPAD
    28d8:	81 c3 e0 08 	retl 
    28dc:	01 00 00 00 	nop 

000028e0 <__ajit_read_serial_tx_register__>:
    28e0:	11 3f ff cc 	sethi  %hi(0xffff3000), %o0
    28e4:	90 12 22 04 	or  %o0, 0x204, %o0	! ffff3204 <ajit_global_interrupt_handlers+0xfffe7f5c>
    28e8:	d0 8a 04 00 	lduba  [ %o0 ] #ASI_SCRATCHPAD, %o0
    28ec:	81 c3 e0 08 	retl 
    28f0:	90 0a 20 ff 	and  %o0, 0xff, %o0

000028f4 <__ajit_read_serial_rx_register__>:
    28f4:	11 3f ff cc 	sethi  %hi(0xffff3000), %o0
    28f8:	90 12 22 08 	or  %o0, 0x208, %o0	! ffff3208 <ajit_global_interrupt_handlers+0xfffe7f60>
    28fc:	d0 8a 04 00 	lduba  [ %o0 ] #ASI_SCRATCHPAD, %o0
    2900:	81 c3 e0 08 	retl 
    2904:	90 0a 20 ff 	and  %o0, 0xff, %o0

00002908 <__ajit_write_serial_baud_limit_register__>:
    2908:	03 3f ff cc 	sethi  %hi(0xffff3000), %g1
    290c:	82 10 62 0c 	or  %g1, 0x20c, %g1	! ffff320c <ajit_global_interrupt_handlers+0xfffe7f64>
    2910:	d0 a0 44 00 	sta  %o0, [ %g1 ] #ASI_SCRATCHPAD
    2914:	81 c3 e0 08 	retl 
    2918:	01 00 00 00 	nop 

0000291c <__ajit_read_serial_baud_limit_register__>:
    291c:	11 3f ff cc 	sethi  %hi(0xffff3000), %o0
    2920:	90 12 22 0c 	or  %o0, 0x20c, %o0	! ffff320c <ajit_global_interrupt_handlers+0xfffe7f64>
    2924:	d0 82 04 00 	lda  [ %o0 ] #ASI_SCRATCHPAD, %o0
    2928:	81 c3 e0 08 	retl 
    292c:	01 00 00 00 	nop 

00002930 <__ajit_write_serial_baud_frequency_register__>:
    2930:	03 3f ff cc 	sethi  %hi(0xffff3000), %g1
    2934:	82 10 62 10 	or  %g1, 0x210, %g1	! ffff3210 <ajit_global_interrupt_handlers+0xfffe7f68>
    2938:	d0 a0 44 00 	sta  %o0, [ %g1 ] #ASI_SCRATCHPAD
    293c:	81 c3 e0 08 	retl 
    2940:	01 00 00 00 	nop 

00002944 <__ajit_read_serial_baud_frequency_register__>:
    2944:	11 3f ff cc 	sethi  %hi(0xffff3000), %o0
    2948:	90 12 22 10 	or  %o0, 0x210, %o0	! ffff3210 <ajit_global_interrupt_handlers+0xfffe7f68>
    294c:	d0 82 04 00 	lda  [ %o0 ] #ASI_SCRATCHPAD, %o0
    2950:	81 c3 e0 08 	retl 
    2954:	01 00 00 00 	nop 

00002958 <__ajit_serial_set_baudrate__>:
    2958:	91 2a 20 04 	sll  %o0, 4, %o0
    295c:	80 a2 00 09 	cmp  %o0, %o1
    2960:	1a 80 00 1f 	bcc  29dc <__ajit_serial_set_baudrate__+0x84>
    2964:	03 3f ff cc 	sethi  %hi(0xffff3000), %g1
    2968:	80 a2 20 00 	cmp  %o0, 0
    296c:	02 80 00 1d 	be  29e0 <__ajit_serial_set_baudrate__+0x88>
    2970:	86 10 62 0c 	or  %g1, 0x20c, %g3
    2974:	84 10 00 09 	mov  %o1, %g2
    2978:	10 80 00 03 	b  2984 <__ajit_serial_set_baudrate__+0x2c>
    297c:	82 10 00 08 	mov  %o0, %g1
    2980:	82 10 00 03 	mov  %g3, %g1
    2984:	81 80 20 00 	mov  %g0, %y
    2988:	01 00 00 00 	nop 
    298c:	01 00 00 00 	nop 
    2990:	01 00 00 00 	nop 
    2994:	86 70 80 01 	udiv  %g2, %g1, %g3
    2998:	86 58 c0 01 	smul  %g3, %g1, %g3
    299c:	86 20 80 03 	sub  %g2, %g3, %g3
    29a0:	80 a0 e0 00 	cmp  %g3, 0
    29a4:	12 bf ff f7 	bne  2980 <__ajit_serial_set_baudrate__+0x28>
    29a8:	84 10 00 01 	mov  %g1, %g2
    29ac:	81 80 20 00 	mov  %g0, %y
    29b0:	01 00 00 00 	nop 
    29b4:	01 00 00 00 	nop 
    29b8:	01 00 00 00 	nop 
    29bc:	84 72 00 01 	udiv  %o0, %g1, %g2
    29c0:	81 80 20 00 	mov  %g0, %y
    29c4:	01 00 00 00 	nop 
    29c8:	01 00 00 00 	nop 
    29cc:	01 00 00 00 	nop 
    29d0:	88 72 40 01 	udiv  %o1, %g1, %g4
    29d4:	88 21 00 02 	sub  %g4, %g2, %g4
    29d8:	03 3f ff cc 	sethi  %hi(0xffff3000), %g1
    29dc:	86 10 62 0c 	or  %g1, 0x20c, %g3	! ffff320c <ajit_global_interrupt_handlers+0xfffe7f64>
    29e0:	c8 a0 c4 00 	sta  %g4, [ %g3 ] #ASI_SCRATCHPAD
    29e4:	82 10 62 10 	or  %g1, 0x210, %g1
    29e8:	c4 a0 44 00 	sta  %g2, [ %g1 ] #ASI_SCRATCHPAD
    29ec:	81 c3 e0 08 	retl 
    29f0:	01 00 00 00 	nop 

000029f4 <__ajit_write_serial_control_register_via_vmap__>:
    29f4:	03 3f ff cc 	sethi  %hi(0xffff3000), %g1
    29f8:	82 10 62 00 	or  %g1, 0x200, %g1	! ffff3200 <ajit_global_interrupt_handlers+0xfffe7f58>
    29fc:	81 c3 e0 08 	retl 
    2a00:	d0 20 40 00 	st  %o0, [ %g1 ]

00002a04 <__ajit_read_serial_control_register_via_vmap__>:
    2a04:	03 3f ff cc 	sethi  %hi(0xffff3000), %g1
    2a08:	82 10 62 00 	or  %g1, 0x200, %g1	! ffff3200 <ajit_global_interrupt_handlers+0xfffe7f58>
    2a0c:	81 c3 e0 08 	retl 
    2a10:	d0 08 40 00 	ldub  [ %g1 ], %o0

00002a14 <__ajit_write_serial_tx_register_via_vmap__>:
    2a14:	03 3f ff cc 	sethi  %hi(0xffff3000), %g1
    2a18:	82 10 62 04 	or  %g1, 0x204, %g1	! ffff3204 <ajit_global_interrupt_handlers+0xfffe7f5c>
    2a1c:	81 c3 e0 08 	retl 
    2a20:	d0 28 40 00 	stb  %o0, [ %g1 ]

00002a24 <__ajit_read_serial_tx_register_via_vmap__>:
    2a24:	03 3f ff cc 	sethi  %hi(0xffff3000), %g1
    2a28:	82 10 62 04 	or  %g1, 0x204, %g1	! ffff3204 <ajit_global_interrupt_handlers+0xfffe7f5c>
    2a2c:	81 c3 e0 08 	retl 
    2a30:	d0 08 40 00 	ldub  [ %g1 ], %o0

00002a34 <__ajit_read_serial_rx_register_via_vmap__>:
    2a34:	03 3f ff cc 	sethi  %hi(0xffff3000), %g1
    2a38:	82 10 62 08 	or  %g1, 0x208, %g1	! ffff3208 <ajit_global_interrupt_handlers+0xfffe7f60>
    2a3c:	81 c3 e0 08 	retl 
    2a40:	d0 08 40 00 	ldub  [ %g1 ], %o0

00002a44 <__ajit_serial_set_baudrate_via_vmap__>:
    2a44:	91 2a 20 04 	sll  %o0, 4, %o0
    2a48:	80 a2 00 09 	cmp  %o0, %o1
    2a4c:	1a 80 00 1f 	bcc  2ac8 <__ajit_serial_set_baudrate_via_vmap__+0x84>
    2a50:	03 3f ff cc 	sethi  %hi(0xffff3000), %g1
    2a54:	80 a2 20 00 	cmp  %o0, 0
    2a58:	02 80 00 1d 	be  2acc <__ajit_serial_set_baudrate_via_vmap__+0x88>
    2a5c:	86 10 62 0c 	or  %g1, 0x20c, %g3
    2a60:	84 10 00 09 	mov  %o1, %g2
    2a64:	10 80 00 03 	b  2a70 <__ajit_serial_set_baudrate_via_vmap__+0x2c>
    2a68:	82 10 00 08 	mov  %o0, %g1
    2a6c:	82 10 00 03 	mov  %g3, %g1
    2a70:	81 80 20 00 	mov  %g0, %y
    2a74:	01 00 00 00 	nop 
    2a78:	01 00 00 00 	nop 
    2a7c:	01 00 00 00 	nop 
    2a80:	86 70 80 01 	udiv  %g2, %g1, %g3
    2a84:	86 58 c0 01 	smul  %g3, %g1, %g3
    2a88:	86 20 80 03 	sub  %g2, %g3, %g3
    2a8c:	80 a0 e0 00 	cmp  %g3, 0
    2a90:	12 bf ff f7 	bne  2a6c <__ajit_serial_set_baudrate_via_vmap__+0x28>
    2a94:	84 10 00 01 	mov  %g1, %g2
    2a98:	81 80 20 00 	mov  %g0, %y
    2a9c:	01 00 00 00 	nop 
    2aa0:	01 00 00 00 	nop 
    2aa4:	01 00 00 00 	nop 
    2aa8:	84 72 00 01 	udiv  %o0, %g1, %g2
    2aac:	81 80 20 00 	mov  %g0, %y
    2ab0:	01 00 00 00 	nop 
    2ab4:	01 00 00 00 	nop 
    2ab8:	01 00 00 00 	nop 
    2abc:	88 72 40 01 	udiv  %o1, %g1, %g4
    2ac0:	88 21 00 02 	sub  %g4, %g2, %g4
    2ac4:	03 3f ff cc 	sethi  %hi(0xffff3000), %g1
    2ac8:	86 10 62 0c 	or  %g1, 0x20c, %g3	! ffff320c <ajit_global_interrupt_handlers+0xfffe7f64>
    2acc:	c8 20 c0 00 	st  %g4, [ %g3 ]
    2ad0:	82 10 62 10 	or  %g1, 0x210, %g1
    2ad4:	81 c3 e0 08 	retl 
    2ad8:	c4 20 40 00 	st  %g2, [ %g1 ]

00002adc <__ajit_read_serial_baud_limit_register_via_vmap__>:
    2adc:	03 3f ff cc 	sethi  %hi(0xffff3000), %g1
    2ae0:	82 10 62 0c 	or  %g1, 0x20c, %g1	! ffff320c <ajit_global_interrupt_handlers+0xfffe7f64>
    2ae4:	81 c3 e0 08 	retl 
    2ae8:	d0 00 40 00 	ld  [ %g1 ], %o0

00002aec <__ajit_write_serial_baud_limit_register_via_vmap__>:
    2aec:	03 3f ff cc 	sethi  %hi(0xffff3000), %g1
    2af0:	82 10 62 0c 	or  %g1, 0x20c, %g1	! ffff320c <ajit_global_interrupt_handlers+0xfffe7f64>
    2af4:	81 c3 e0 08 	retl 
    2af8:	d0 20 40 00 	st  %o0, [ %g1 ]

00002afc <__ajit_read_serial_baud_frequency_register_via_vmap__>:
    2afc:	03 3f ff cc 	sethi  %hi(0xffff3000), %g1
    2b00:	82 10 62 10 	or  %g1, 0x210, %g1	! ffff3210 <ajit_global_interrupt_handlers+0xfffe7f68>
    2b04:	81 c3 e0 08 	retl 
    2b08:	d0 00 40 00 	ld  [ %g1 ], %o0

00002b0c <__ajit_write_serial_baud_frequency_register_via_vmap__>:
    2b0c:	03 3f ff cc 	sethi  %hi(0xffff3000), %g1
    2b10:	82 10 62 10 	or  %g1, 0x210, %g1	! ffff3210 <ajit_global_interrupt_handlers+0xfffe7f68>
    2b14:	81 c3 e0 08 	retl 
    2b18:	d0 20 40 00 	st  %o0, [ %g1 ]

00002b1c <calculate_baud_control_values_for_uart>:
    2b1c:	91 2a 20 04 	sll  %o0, 4, %o0
    2b20:	80 a2 00 09 	cmp  %o0, %o1
    2b24:	1a 80 00 1e 	bcc  2b9c <calculate_baud_control_values_for_uart+0x80>
    2b28:	80 a2 20 00 	cmp  %o0, 0
    2b2c:	02 80 00 1c 	be  2b9c <calculate_baud_control_values_for_uart+0x80>
    2b30:	84 10 00 09 	mov  %o1, %g2
    2b34:	10 80 00 03 	b  2b40 <calculate_baud_control_values_for_uart+0x24>
    2b38:	82 10 00 08 	mov  %o0, %g1
    2b3c:	82 10 00 03 	mov  %g3, %g1
    2b40:	81 80 20 00 	mov  %g0, %y
    2b44:	01 00 00 00 	nop 
    2b48:	01 00 00 00 	nop 
    2b4c:	01 00 00 00 	nop 
    2b50:	86 70 80 01 	udiv  %g2, %g1, %g3
    2b54:	86 58 c0 01 	smul  %g3, %g1, %g3
    2b58:	86 20 80 03 	sub  %g2, %g3, %g3
    2b5c:	80 a0 e0 00 	cmp  %g3, 0
    2b60:	12 bf ff f7 	bne  2b3c <calculate_baud_control_values_for_uart+0x20>
    2b64:	84 10 00 01 	mov  %g1, %g2
    2b68:	81 80 20 00 	mov  %g0, %y
    2b6c:	01 00 00 00 	nop 
    2b70:	01 00 00 00 	nop 
    2b74:	01 00 00 00 	nop 
    2b78:	84 72 00 01 	udiv  %o0, %g1, %g2
    2b7c:	c4 22 c0 00 	st  %g2, [ %o3 ]
    2b80:	81 80 20 00 	mov  %g0, %y
    2b84:	01 00 00 00 	nop 
    2b88:	01 00 00 00 	nop 
    2b8c:	01 00 00 00 	nop 
    2b90:	86 72 40 01 	udiv  %o1, %g1, %g3
    2b94:	84 20 c0 02 	sub  %g3, %g2, %g2
    2b98:	c4 22 80 00 	st  %g2, [ %o2 ]
    2b9c:	81 c3 e0 08 	retl 
    2ba0:	01 00 00 00 	nop 

00002ba4 <__ajit_serial_configure_inner__>:
    2ba4:	05 3f ff cc 	sethi  %hi(0xffff3000), %g2
    2ba8:	80 a2 60 00 	cmp  %o1, 0
    2bac:	12 80 00 03 	bne  2bb8 <__ajit_serial_configure_inner__+0x14>
    2bb0:	82 10 a2 40 	or  %g2, 0x240, %g1
    2bb4:	82 10 a2 00 	or  %g2, 0x200, %g1
    2bb8:	80 a2 20 00 	cmp  %o0, 0
    2bbc:	02 80 00 15 	be  2c10 <__ajit_serial_configure_inner__+0x6c>
    2bc0:	01 00 00 00 	nop 
    2bc4:	c4 00 40 00 	ld  [ %g1 ], %g2
    2bc8:	80 a2 a0 00 	cmp  %o2, 0
    2bcc:	02 80 00 03 	be  2bd8 <__ajit_serial_configure_inner__+0x34>
    2bd0:	86 08 bf fe 	and  %g2, -2, %g3
    2bd4:	86 10 a0 01 	or  %g2, 1, %g3
    2bd8:	80 a2 e0 00 	cmp  %o3, 0
    2bdc:	02 80 00 03 	be  2be8 <__ajit_serial_configure_inner__+0x44>
    2be0:	84 08 ff fd 	and  %g3, -3, %g2
    2be4:	84 10 e0 02 	or  %g3, 2, %g2
    2be8:	80 a3 20 00 	cmp  %o4, 0
    2bec:	02 80 00 03 	be  2bf8 <__ajit_serial_configure_inner__+0x54>
    2bf0:	86 08 bf fb 	and  %g2, -5, %g3
    2bf4:	86 10 a0 04 	or  %g2, 4, %g3
    2bf8:	80 a2 20 00 	cmp  %o0, 0
    2bfc:	12 80 00 08 	bne  2c1c <__ajit_serial_configure_inner__+0x78>
    2c00:	01 00 00 00 	nop 
    2c04:	c6 a0 44 00 	sta  %g3, [ %g1 ] #ASI_SCRATCHPAD
    2c08:	81 c3 e0 08 	retl 
    2c0c:	01 00 00 00 	nop 
    2c10:	c4 80 44 00 	lda  [ %g1 ] #ASI_SCRATCHPAD, %g2
    2c14:	10 bf ff ee 	b  2bcc <__ajit_serial_configure_inner__+0x28>
    2c18:	80 a2 a0 00 	cmp  %o2, 0
    2c1c:	81 c3 e0 08 	retl 
    2c20:	c6 20 40 00 	st  %g3, [ %g1 ]

00002c24 <__ajit_serial_configure_via_vmap__>:
    2c24:	82 10 00 08 	mov  %o0, %g1
    2c28:	96 10 00 09 	mov  %o1, %o3
    2c2c:	98 10 00 0a 	mov  %o2, %o4
    2c30:	90 10 20 01 	mov  1, %o0
    2c34:	92 10 20 00 	clr  %o1
    2c38:	94 10 00 01 	mov  %g1, %o2
    2c3c:	82 13 c0 00 	mov  %o7, %g1
    2c40:	7f ff ff d9 	call  2ba4 <__ajit_serial_configure_inner__>
    2c44:	9e 10 40 00 	mov  %g1, %o7

00002c48 <__ajit_serial_configure__>:
    2c48:	82 10 00 08 	mov  %o0, %g1
    2c4c:	96 10 00 09 	mov  %o1, %o3
    2c50:	98 10 00 0a 	mov  %o2, %o4
    2c54:	90 10 20 00 	clr  %o0
    2c58:	92 10 20 00 	clr  %o1
    2c5c:	94 10 00 01 	mov  %g1, %o2
    2c60:	82 13 c0 00 	mov  %o7, %g1
    2c64:	7f ff ff d0 	call  2ba4 <__ajit_serial_configure_inner__>
    2c68:	9e 10 40 00 	mov  %g1, %o7

00002c6c <__ajit_serial_set_baudrate_inner__>:
    2c6c:	95 2a a0 04 	sll  %o2, 4, %o2
    2c70:	80 a2 80 0b 	cmp  %o2, %o3
    2c74:	1a 80 00 06 	bcc  2c8c <__ajit_serial_set_baudrate_inner__+0x20>
    2c78:	80 a2 60 00 	cmp  %o1, 0
    2c7c:	80 a2 a0 00 	cmp  %o2, 0
    2c80:	32 80 00 0d 	bne,a   2cb4 <__ajit_serial_set_baudrate_inner__+0x48>
    2c84:	84 10 00 0b 	mov  %o3, %g2
    2c88:	80 a2 60 00 	cmp  %o1, 0
    2c8c:	02 80 00 25 	be  2d20 <__ajit_serial_set_baudrate_inner__+0xb4>
    2c90:	03 3f ff cc 	sethi  %hi(0xffff3000), %g1
    2c94:	86 10 62 4c 	or  %g1, 0x24c, %g3	! ffff324c <ajit_global_interrupt_handlers+0xfffe7fa4>
    2c98:	80 a2 20 00 	cmp  %o0, 0
    2c9c:	12 80 00 25 	bne  2d30 <__ajit_serial_set_baudrate_inner__+0xc4>
    2ca0:	82 10 62 50 	or  %g1, 0x250, %g1
    2ca4:	c8 a0 c4 00 	sta  %g4, [ %g3 ] #ASI_SCRATCHPAD
    2ca8:	c4 a0 44 00 	sta  %g2, [ %g1 ] #ASI_SCRATCHPAD
    2cac:	81 c3 e0 08 	retl 
    2cb0:	01 00 00 00 	nop 
    2cb4:	10 80 00 03 	b  2cc0 <__ajit_serial_set_baudrate_inner__+0x54>
    2cb8:	82 10 00 0a 	mov  %o2, %g1
    2cbc:	82 10 00 03 	mov  %g3, %g1
    2cc0:	81 80 20 00 	mov  %g0, %y
    2cc4:	01 00 00 00 	nop 
    2cc8:	01 00 00 00 	nop 
    2ccc:	01 00 00 00 	nop 
    2cd0:	86 70 80 01 	udiv  %g2, %g1, %g3
    2cd4:	86 58 c0 01 	smul  %g3, %g1, %g3
    2cd8:	86 20 80 03 	sub  %g2, %g3, %g3
    2cdc:	80 a0 e0 00 	cmp  %g3, 0
    2ce0:	12 bf ff f7 	bne  2cbc <__ajit_serial_set_baudrate_inner__+0x50>
    2ce4:	84 10 00 01 	mov  %g1, %g2
    2ce8:	81 80 20 00 	mov  %g0, %y
    2cec:	01 00 00 00 	nop 
    2cf0:	01 00 00 00 	nop 
    2cf4:	01 00 00 00 	nop 
    2cf8:	84 72 80 01 	udiv  %o2, %g1, %g2
    2cfc:	81 80 20 00 	mov  %g0, %y
    2d00:	01 00 00 00 	nop 
    2d04:	01 00 00 00 	nop 
    2d08:	01 00 00 00 	nop 
    2d0c:	88 72 c0 01 	udiv  %o3, %g1, %g4
    2d10:	80 a2 60 00 	cmp  %o1, 0
    2d14:	88 21 00 02 	sub  %g4, %g2, %g4
    2d18:	12 bf ff df 	bne  2c94 <__ajit_serial_set_baudrate_inner__+0x28>
    2d1c:	03 3f ff cc 	sethi  %hi(0xffff3000), %g1
    2d20:	86 10 62 0c 	or  %g1, 0x20c, %g3	! ffff320c <ajit_global_interrupt_handlers+0xfffe7f64>
    2d24:	80 a2 20 00 	cmp  %o0, 0
    2d28:	02 bf ff df 	be  2ca4 <__ajit_serial_set_baudrate_inner__+0x38>
    2d2c:	82 10 62 10 	or  %g1, 0x210, %g1
    2d30:	c8 20 c0 00 	st  %g4, [ %g3 ]
    2d34:	81 c3 e0 08 	retl 
    2d38:	c4 20 40 00 	st  %g2, [ %g1 ]

00002d3c <__ajit_serial_putchar_inner__>:
    2d3c:	84 10 00 08 	mov  %o0, %g2
    2d40:	80 a2 60 00 	cmp  %o1, 0
    2d44:	02 80 00 17 	be  2da0 <__ajit_serial_putchar_inner__+0x64>
    2d48:	07 3f ff cc 	sethi  %hi(0xffff3000), %g3
    2d4c:	82 10 e2 40 	or  %g3, 0x240, %g1	! ffff3240 <ajit_global_interrupt_handlers+0xfffe7f98>
    2d50:	86 10 e2 44 	or  %g3, 0x244, %g3
    2d54:	80 a0 a0 00 	cmp  %g2, 0
    2d58:	02 80 00 0f 	be  2d94 <__ajit_serial_putchar_inner__+0x58>
    2d5c:	01 00 00 00 	nop 
    2d60:	c2 00 40 00 	ld  [ %g1 ], %g1
    2d64:	80 88 60 01 	btst  1, %g1
    2d68:	02 80 00 09 	be  2d8c <__ajit_serial_putchar_inner__+0x50>
    2d6c:	90 10 20 00 	clr  %o0
    2d70:	80 88 60 08 	btst  8, %g1
    2d74:	12 80 00 06 	bne  2d8c <__ajit_serial_putchar_inner__+0x50>
    2d78:	80 a0 a0 00 	cmp  %g2, 0
    2d7c:	32 80 00 0c 	bne,a   2dac <__ajit_serial_putchar_inner__+0x70>
    2d80:	d4 28 c0 00 	stb  %o2, [ %g3 ]
    2d84:	d4 a8 c4 00 	stba  %o2, [ %g3 ] #ASI_SCRATCHPAD
    2d88:	90 10 20 01 	mov  1, %o0
    2d8c:	81 c3 e0 08 	retl 
    2d90:	01 00 00 00 	nop 
    2d94:	c2 80 44 00 	lda  [ %g1 ] #ASI_SCRATCHPAD, %g1
    2d98:	10 bf ff f4 	b  2d68 <__ajit_serial_putchar_inner__+0x2c>
    2d9c:	80 88 60 01 	btst  1, %g1
    2da0:	82 10 e2 00 	or  %g3, 0x200, %g1
    2da4:	10 bf ff ec 	b  2d54 <__ajit_serial_putchar_inner__+0x18>
    2da8:	86 10 e2 04 	or  %g3, 0x204, %g3
    2dac:	81 c3 e0 08 	retl 
    2db0:	90 10 20 01 	mov  1, %o0

00002db4 <__ajit_serial_putchar_via_vmap__>:
    2db4:	94 10 00 08 	mov  %o0, %o2
    2db8:	92 10 20 00 	clr  %o1
    2dbc:	90 10 20 01 	mov  1, %o0
    2dc0:	82 13 c0 00 	mov  %o7, %g1
    2dc4:	7f ff ff de 	call  2d3c <__ajit_serial_putchar_inner__>
    2dc8:	9e 10 40 00 	mov  %g1, %o7

00002dcc <__ajit_serial_putchar__>:
    2dcc:	94 10 00 08 	mov  %o0, %o2
    2dd0:	92 10 20 00 	clr  %o1
    2dd4:	90 10 20 00 	clr  %o0
    2dd8:	82 13 c0 00 	mov  %o7, %g1
    2ddc:	7f ff ff d8 	call  2d3c <__ajit_serial_putchar_inner__>
    2de0:	9e 10 40 00 	mov  %g1, %o7

00002de4 <__ajit_serial_getchar_inner__>:
    2de4:	80 a2 60 00 	cmp  %o1, 0
    2de8:	02 80 00 0f 	be  2e24 <__ajit_serial_getchar_inner__+0x40>
    2dec:	05 3f ff cc 	sethi  %hi(0xffff3000), %g2
    2df0:	82 10 a2 40 	or  %g2, 0x240, %g1	! ffff3240 <ajit_global_interrupt_handlers+0xfffe7f98>
    2df4:	80 a2 20 00 	cmp  %o0, 0
    2df8:	02 80 00 0f 	be  2e34 <__ajit_serial_getchar_inner__+0x50>
    2dfc:	84 10 a2 48 	or  %g2, 0x248, %g2
    2e00:	c2 00 40 00 	ld  [ %g1 ], %g1
    2e04:	82 08 60 12 	and  %g1, 0x12, %g1
    2e08:	80 a0 60 12 	cmp  %g1, 0x12
    2e0c:	12 80 00 13 	bne  2e58 <__ajit_serial_getchar_inner__+0x74>
    2e10:	01 00 00 00 	nop 
    2e14:	c2 08 80 00 	ldub  [ %g2 ], %g1
    2e18:	90 10 20 01 	mov  1, %o0
    2e1c:	81 c3 e0 08 	retl 
    2e20:	c2 2a 80 00 	stb  %g1, [ %o2 ]
    2e24:	82 10 a2 00 	or  %g2, 0x200, %g1
    2e28:	80 a2 20 00 	cmp  %o0, 0
    2e2c:	12 bf ff f5 	bne  2e00 <__ajit_serial_getchar_inner__+0x1c>
    2e30:	84 10 a2 08 	or  %g2, 0x208, %g2
    2e34:	c2 80 44 00 	lda  [ %g1 ] #ASI_SCRATCHPAD, %g1
    2e38:	82 08 60 12 	and  %g1, 0x12, %g1
    2e3c:	80 a0 60 12 	cmp  %g1, 0x12
    2e40:	12 80 00 06 	bne  2e58 <__ajit_serial_getchar_inner__+0x74>
    2e44:	01 00 00 00 	nop 
    2e48:	c4 88 84 00 	lduba  [ %g2 ] #ASI_SCRATCHPAD, %g2
    2e4c:	90 10 20 01 	mov  1, %o0
    2e50:	81 c3 e0 08 	retl 
    2e54:	c4 2a 80 00 	stb  %g2, [ %o2 ]
    2e58:	81 c3 e0 08 	retl 
    2e5c:	90 10 20 00 	clr  %o0

00002e60 <__ajit_serial_getchar_via_vmap__>:
    2e60:	9d e3 bf 98 	save  %sp, -104, %sp
    2e64:	90 10 20 01 	mov  1, %o0
    2e68:	92 10 20 00 	clr  %o1
    2e6c:	7f ff ff de 	call  2de4 <__ajit_serial_getchar_inner__>
    2e70:	94 07 bf ff 	add  %fp, -1, %o2
    2e74:	80 a2 20 00 	cmp  %o0, 0
    2e78:	22 bf ff fc 	be,a   2e68 <__ajit_serial_getchar_via_vmap__+0x8>
    2e7c:	90 10 20 01 	mov  1, %o0
    2e80:	f0 4f bf ff 	ldsb  [ %fp + -1 ], %i0
    2e84:	81 c7 e0 08 	ret 
    2e88:	81 e8 00 00 	restore 

00002e8c <__ajit_serial_getchar__>:
    2e8c:	9d e3 bf 98 	save  %sp, -104, %sp
    2e90:	90 10 20 00 	clr  %o0
    2e94:	92 10 20 00 	clr  %o1
    2e98:	7f ff ff d3 	call  2de4 <__ajit_serial_getchar_inner__>
    2e9c:	94 07 bf ff 	add  %fp, -1, %o2
    2ea0:	80 a2 20 00 	cmp  %o0, 0
    2ea4:	22 bf ff fc 	be,a   2e94 <__ajit_serial_getchar__+0x8>
    2ea8:	90 10 20 00 	clr  %o0
    2eac:	f0 4f bf ff 	ldsb  [ %fp + -1 ], %i0
    2eb0:	81 c7 e0 08 	ret 
    2eb4:	81 e8 00 00 	restore 

00002eb8 <__ajit_serial_puts_inner__>:
    2eb8:	9d e3 bf a0 	save  %sp, -96, %sp
    2ebc:	80 a6 e0 00 	cmp  %i3, 0
    2ec0:	02 80 00 1a 	be  2f28 <__ajit_serial_puts_inner__+0x70>
    2ec4:	01 00 00 00 	nop 
    2ec8:	d4 0e 80 00 	ldub  [ %i2 ], %o2
    2ecc:	95 2a a0 18 	sll  %o2, 0x18, %o2
    2ed0:	80 a2 a0 00 	cmp  %o2, 0
    2ed4:	02 80 00 15 	be  2f28 <__ajit_serial_puts_inner__+0x70>
    2ed8:	ba 06 a0 01 	add  %i2, 1, %i5
    2edc:	10 80 00 03 	b  2ee8 <__ajit_serial_puts_inner__+0x30>
    2ee0:	b8 06 80 1b 	add  %i2, %i3, %i4
    2ee4:	95 2a a0 18 	sll  %o2, 0x18, %o2
    2ee8:	95 3a a0 18 	sra  %o2, 0x18, %o2
    2eec:	90 10 00 18 	mov  %i0, %o0
    2ef0:	7f ff ff 93 	call  2d3c <__ajit_serial_putchar_inner__>
    2ef4:	92 10 00 19 	mov  %i1, %o1
    2ef8:	80 a2 20 00 	cmp  %o0, 0
    2efc:	22 bf ff fa 	be,a   2ee4 <__ajit_serial_puts_inner__+0x2c>
    2f00:	d4 0e 80 00 	ldub  [ %i2 ], %o2
    2f04:	80 a7 40 1c 	cmp  %i5, %i4
    2f08:	02 80 00 08 	be  2f28 <__ajit_serial_puts_inner__+0x70>
    2f0c:	b4 10 00 1d 	mov  %i5, %i2
    2f10:	ba 07 60 01 	inc  %i5
    2f14:	d4 0f 7f ff 	ldub  [ %i5 + -1 ], %o2
    2f18:	95 2a a0 18 	sll  %o2, 0x18, %o2
    2f1c:	80 a2 a0 00 	cmp  %o2, 0
    2f20:	12 bf ff f3 	bne  2eec <__ajit_serial_puts_inner__+0x34>
    2f24:	95 3a a0 18 	sra  %o2, 0x18, %o2
    2f28:	81 c7 e0 08 	ret 
    2f2c:	81 e8 00 00 	restore 

00002f30 <__ajit_serial_puts_via_vmap__>:
    2f30:	94 10 00 08 	mov  %o0, %o2
    2f34:	96 10 00 09 	mov  %o1, %o3
    2f38:	90 10 20 01 	mov  1, %o0
    2f3c:	92 10 20 00 	clr  %o1
    2f40:	82 13 c0 00 	mov  %o7, %g1
    2f44:	7f ff ff dd 	call  2eb8 <__ajit_serial_puts_inner__>
    2f48:	9e 10 40 00 	mov  %g1, %o7

00002f4c <__ajit_serial_puts__>:
    2f4c:	94 10 00 08 	mov  %o0, %o2
    2f50:	96 10 00 09 	mov  %o1, %o3
    2f54:	90 10 20 00 	clr  %o0
    2f58:	92 10 20 00 	clr  %o1
    2f5c:	82 13 c0 00 	mov  %o7, %g1
    2f60:	7f ff ff d6 	call  2eb8 <__ajit_serial_puts_inner__>
    2f64:	9e 10 40 00 	mov  %g1, %o7

00002f68 <__ajit_serial_gets_inner__>:
    2f68:	9d e3 bf 98 	save  %sp, -104, %sp
    2f6c:	80 a6 e0 01 	cmp  %i3, 1
    2f70:	22 80 00 18 	be,a   2fd0 <__ajit_serial_gets_inner__+0x68>
    2f74:	b6 06 80 1b 	add  %i2, %i3, %i3
    2f78:	a0 06 ff ff 	add  %i3, -1, %l0
    2f7c:	b8 10 20 00 	clr  %i4
    2f80:	ba 10 20 00 	clr  %i5
    2f84:	c0 2f bf ff 	clrb  [ %fp + -1 ]
    2f88:	90 10 00 18 	mov  %i0, %o0
    2f8c:	92 10 00 19 	mov  %i1, %o1
    2f90:	7f ff ff 95 	call  2de4 <__ajit_serial_getchar_inner__>
    2f94:	94 07 bf ff 	add  %fp, -1, %o2
    2f98:	80 a2 20 00 	cmp  %o0, 0
    2f9c:	22 bf ff fc 	be,a   2f8c <__ajit_serial_gets_inner__+0x24>
    2fa0:	90 10 00 18 	mov  %i0, %o0
    2fa4:	c2 0f bf ff 	ldub  [ %fp + -1 ], %g1
    2fa8:	c2 2e 80 1c 	stb  %g1, [ %i2 + %i4 ]
    2fac:	83 28 60 18 	sll  %g1, 0x18, %g1
    2fb0:	80 a0 60 00 	cmp  %g1, 0
    2fb4:	22 80 00 07 	be,a   2fd0 <__ajit_serial_gets_inner__+0x68>
    2fb8:	b6 06 80 1b 	add  %i2, %i3, %i3
    2fbc:	ba 07 60 01 	inc  %i5
    2fc0:	80 a7 40 10 	cmp  %i5, %l0
    2fc4:	12 bf ff f0 	bne  2f84 <__ajit_serial_gets_inner__+0x1c>
    2fc8:	b8 10 00 1d 	mov  %i5, %i4
    2fcc:	b6 06 80 1b 	add  %i2, %i3, %i3
    2fd0:	c0 2e ff ff 	clrb  [ %i3 + -1 ]
    2fd4:	81 c7 e0 08 	ret 
    2fd8:	81 e8 00 00 	restore 

00002fdc <__ajit_serial_gets_via_vmap__>:
    2fdc:	94 10 00 08 	mov  %o0, %o2
    2fe0:	96 10 00 09 	mov  %o1, %o3
    2fe4:	90 10 20 01 	mov  1, %o0
    2fe8:	92 10 20 00 	clr  %o1
    2fec:	82 13 c0 00 	mov  %o7, %g1
    2ff0:	7f ff ff de 	call  2f68 <__ajit_serial_gets_inner__>
    2ff4:	9e 10 40 00 	mov  %g1, %o7

00002ff8 <__ajit_serial_gets__>:
    2ff8:	94 10 00 08 	mov  %o0, %o2
    2ffc:	96 10 00 09 	mov  %o1, %o3
    3000:	90 10 20 00 	clr  %o0
    3004:	92 10 20 00 	clr  %o1
    3008:	82 13 c0 00 	mov  %o7, %g1
    300c:	7f ff ff d7 	call  2f68 <__ajit_serial_gets_inner__>
    3010:	9e 10 40 00 	mov  %g1, %o7

00003014 <__ajit_serial_set_uart_reset_inner__>:
    3014:	05 3f ff cc 	sethi  %hi(0xffff3000), %g2
    3018:	80 a2 60 00 	cmp  %o1, 0
    301c:	12 80 00 03 	bne  3028 <__ajit_serial_set_uart_reset_inner__+0x14>
    3020:	82 10 a2 40 	or  %g2, 0x240, %g1
    3024:	82 10 a2 00 	or  %g2, 0x200, %g1
    3028:	80 a2 20 00 	cmp  %o0, 0
    302c:	02 80 00 0d 	be  3060 <__ajit_serial_set_uart_reset_inner__+0x4c>
    3030:	01 00 00 00 	nop 
    3034:	c6 00 40 00 	ld  [ %g1 ], %g3
    3038:	80 a2 a0 00 	cmp  %o2, 0
    303c:	12 80 00 03 	bne  3048 <__ajit_serial_set_uart_reset_inner__+0x34>
    3040:	84 10 e0 20 	or  %g3, 0x20, %g2
    3044:	84 08 ff df 	and  %g3, -33, %g2
    3048:	80 a2 20 00 	cmp  %o0, 0
    304c:	12 80 00 08 	bne  306c <__ajit_serial_set_uart_reset_inner__+0x58>
    3050:	01 00 00 00 	nop 
    3054:	c4 a0 44 00 	sta  %g2, [ %g1 ] #ASI_SCRATCHPAD
    3058:	81 c3 e0 08 	retl 
    305c:	01 00 00 00 	nop 
    3060:	c6 80 44 00 	lda  [ %g1 ] #ASI_SCRATCHPAD, %g3
    3064:	10 bf ff f6 	b  303c <__ajit_serial_set_uart_reset_inner__+0x28>
    3068:	80 a2 a0 00 	cmp  %o2, 0
    306c:	81 c3 e0 08 	retl 
    3070:	c4 20 40 00 	st  %g2, [ %g1 ]

00003074 <__ajit_serial_set_uart_reset_via_vmap__>:
    3074:	94 10 00 08 	mov  %o0, %o2
    3078:	92 10 20 00 	clr  %o1
    307c:	90 10 20 01 	mov  1, %o0
    3080:	82 13 c0 00 	mov  %o7, %g1
    3084:	7f ff ff e4 	call  3014 <__ajit_serial_set_uart_reset_inner__>
    3088:	9e 10 40 00 	mov  %g1, %o7

0000308c <__ajit_serial_set_uart_reset__>:
    308c:	94 10 00 08 	mov  %o0, %o2
    3090:	92 10 20 00 	clr  %o1
    3094:	90 10 20 00 	clr  %o0
    3098:	82 13 c0 00 	mov  %o7, %g1
    309c:	7f ff ff de 	call  3014 <__ajit_serial_set_uart_reset_inner__>
    30a0:	9e 10 40 00 	mov  %g1, %o7

000030a4 <__ajit_write_irc_control_register__>:
    30a4:	03 3f ff cc 	sethi  %hi(0xffff3000), %g1
    30a8:	d0 a0 44 00 	sta  %o0, [ %g1 ] #ASI_SCRATCHPAD
    30ac:	81 c3 e0 08 	retl 
    30b0:	01 00 00 00 	nop 

000030b4 <__ajit_read_irc_control_register__>:
    30b4:	11 3f ff cc 	sethi  %hi(0xffff3000), %o0
    30b8:	d0 82 04 00 	lda  [ %o0 ] #ASI_SCRATCHPAD, %o0
    30bc:	81 c3 e0 08 	retl 
    30c0:	01 00 00 00 	nop 

000030c4 <__ajit_write_irc_control_register_via_vmap__>:
    30c4:	03 3f ff cc 	sethi  %hi(0xffff3000), %g1
    30c8:	81 c3 e0 08 	retl 
    30cc:	d0 20 40 00 	st  %o0, [ %g1 ]

000030d0 <__ajit_read_irc_control_register_via_vmap__>:
    30d0:	03 3f ff cc 	sethi  %hi(0xffff3000), %g1
    30d4:	81 c3 e0 08 	retl 
    30d8:	d0 00 40 00 	ld  [ %g1 ], %o0

000030dc <__ajit_write_spi_master_register__>:
    30dc:	91 2a 20 02 	sll  %o0, 2, %o0
    30e0:	03 3f ff cc 	sethi  %hi(0xffff3000), %g1
    30e4:	82 10 63 00 	or  %g1, 0x300, %g1	! ffff3300 <ajit_global_interrupt_handlers+0xfffe8058>
    30e8:	90 02 00 01 	add  %o0, %g1, %o0
    30ec:	d2 a2 04 00 	sta  %o1, [ %o0 ] #ASI_SCRATCHPAD
    30f0:	81 c3 e0 08 	retl 
    30f4:	01 00 00 00 	nop 

000030f8 <__ajit_write_spi_master_register_via_vmap__>:
    30f8:	91 2a 20 02 	sll  %o0, 2, %o0
    30fc:	03 3f ff cc 	sethi  %hi(0xffff3000), %g1
    3100:	82 10 63 00 	or  %g1, 0x300, %g1	! ffff3300 <ajit_global_interrupt_handlers+0xfffe8058>
    3104:	81 c3 e0 08 	retl 
    3108:	d2 2a 00 01 	stb  %o1, [ %o0 + %g1 ]

0000310c <__ajit_read_spi_master_register__>:
    310c:	91 2a 20 02 	sll  %o0, 2, %o0
    3110:	03 3f ff cc 	sethi  %hi(0xffff3000), %g1
    3114:	82 10 63 00 	or  %g1, 0x300, %g1	! ffff3300 <ajit_global_interrupt_handlers+0xfffe8058>
    3118:	90 02 00 01 	add  %o0, %g1, %o0
    311c:	d0 82 04 00 	lda  [ %o0 ] #ASI_SCRATCHPAD, %o0
    3120:	81 c3 e0 08 	retl 
    3124:	90 0a 20 ff 	and  %o0, 0xff, %o0

00003128 <__ajit_read_spi_master_register_via_vmap__>:
    3128:	91 2a 20 02 	sll  %o0, 2, %o0
    312c:	03 3f ff cc 	sethi  %hi(0xffff3000), %g1
    3130:	82 10 63 00 	or  %g1, 0x300, %g1	! ffff3300 <ajit_global_interrupt_handlers+0xfffe8058>
    3134:	81 c3 e0 08 	retl 
    3138:	d0 0a 00 01 	ldub  [ %o0 + %g1 ], %o0

0000313c <__ajit_do_spi_transfer__>:
    313c:	07 3f ff cc 	sethi  %hi(0xffff3000), %g3
    3140:	82 10 e3 00 	or  %g3, 0x300, %g1	! ffff3300 <ajit_global_interrupt_handlers+0xfffe8058>
    3144:	d2 a0 44 00 	sta  %o1, [ %g1 ] #ASI_SCRATCHPAD
    3148:	82 0a 20 07 	and  %o0, 7, %g1
    314c:	94 0a a0 01 	and  %o2, 1, %o2
    3150:	83 28 60 03 	sll  %g1, 3, %g1
    3154:	94 02 80 0a 	add  %o2, %o2, %o2
    3158:	82 10 60 01 	or  %g1, 1, %g1
    315c:	86 10 e3 08 	or  %g3, 0x308, %g3
    3160:	94 12 80 01 	or  %o2, %g1, %o2
    3164:	d4 a0 c4 00 	sta  %o2, [ %g3 ] #ASI_SCRATCHPAD
    3168:	10 80 00 04 	b  3178 <__ajit_do_spi_transfer__+0x3c>
    316c:	03 00 00 08 	sethi  %hi(0x2000), %g1
    3170:	02 80 00 07 	be  318c <__ajit_do_spi_transfer__+0x50>
    3174:	11 3f ff cc 	sethi  %hi(0xffff3000), %o0
    3178:	c4 80 c4 00 	lda  [ %g3 ] #ASI_SCRATCHPAD, %g2
    317c:	80 88 a0 01 	btst  1, %g2
    3180:	32 bf ff fc 	bne,a   3170 <__ajit_do_spi_transfer__+0x34>
    3184:	82 80 7f ff 	addcc  %g1, -1, %g1
    3188:	11 3f ff cc 	sethi  %hi(0xffff3000), %o0
    318c:	90 12 23 00 	or  %o0, 0x300, %o0	! ffff3300 <ajit_global_interrupt_handlers+0xfffe8058>
    3190:	d0 82 04 00 	lda  [ %o0 ] #ASI_SCRATCHPAD, %o0
    3194:	81 c3 e0 08 	retl 
    3198:	90 0a 20 ff 	and  %o0, 0xff, %o0

0000319c <__ajit_do_spi_transfer_via_vmap__>:
    319c:	03 3f ff cc 	sethi  %hi(0xffff3000), %g1
    31a0:	90 0a 20 07 	and  %o0, 7, %o0
    31a4:	84 10 63 00 	or  %g1, 0x300, %g2
    31a8:	91 2a 20 03 	sll  %o0, 3, %o0
    31ac:	d2 20 80 00 	st  %o1, [ %g2 ]
    31b0:	90 12 20 01 	or  %o0, 1, %o0
    31b4:	82 10 63 08 	or  %g1, 0x308, %g1
    31b8:	94 0a a0 01 	and  %o2, 1, %o2
    31bc:	94 02 80 0a 	add  %o2, %o2, %o2
    31c0:	94 12 80 08 	or  %o2, %o0, %o2
    31c4:	90 10 00 09 	mov  %o1, %o0
    31c8:	81 c3 e0 08 	retl 
    31cc:	d4 20 40 00 	st  %o2, [ %g1 ]

000031d0 <__ajit_do_spi_transfer_inner__>:
    31d0:	92 0a 60 07 	and  %o1, 7, %o1
    31d4:	83 2a 60 03 	sll  %o1, 3, %g1
    31d8:	82 10 60 01 	or  %g1, 1, %g1
    31dc:	96 0a e0 01 	and  %o3, 1, %o3
    31e0:	80 a2 20 00 	cmp  %o0, 0
    31e4:	96 02 c0 0b 	add  %o3, %o3, %o3
    31e8:	96 12 c0 01 	or  %o3, %g1, %o3
    31ec:	02 80 00 20 	be  326c <__ajit_do_spi_transfer_inner__+0x9c>
    31f0:	03 3f ff cc 	sethi  %hi(0xffff3000), %g1
    31f4:	84 10 63 00 	or  %g1, 0x300, %g2	! ffff3300 <ajit_global_interrupt_handlers+0xfffe8058>
    31f8:	d4 20 80 00 	st  %o2, [ %g2 ]
    31fc:	96 0a e0 ff 	and  %o3, 0xff, %o3
    3200:	82 10 63 08 	or  %g1, 0x308, %g1
    3204:	d6 20 40 00 	st  %o3, [ %g1 ]
    3208:	07 3f ff cc 	sethi  %hi(0xffff3000), %g3
    320c:	03 00 00 08 	sethi  %hi(0x2000), %g1
    3210:	10 80 00 08 	b  3230 <__ajit_do_spi_transfer_inner__+0x60>
    3214:	86 10 e3 08 	or  %g3, 0x308, %g3
    3218:	80 88 a0 01 	btst  1, %g2
    321c:	02 80 00 0d 	be  3250 <__ajit_do_spi_transfer_inner__+0x80>
    3220:	80 a2 20 00 	cmp  %o0, 0
    3224:	82 80 7f ff 	addcc  %g1, -1, %g1
    3228:	02 80 00 0a 	be  3250 <__ajit_do_spi_transfer_inner__+0x80>
    322c:	80 a2 20 00 	cmp  %o0, 0
    3230:	80 a2 20 00 	cmp  %o0, 0
    3234:	32 bf ff f9 	bne,a   3218 <__ajit_do_spi_transfer_inner__+0x48>
    3238:	c4 00 c0 00 	ld  [ %g3 ], %g2
    323c:	c4 80 c4 00 	lda  [ %g3 ] #ASI_SCRATCHPAD, %g2
    3240:	80 88 a0 01 	btst  1, %g2
    3244:	32 bf ff f9 	bne,a   3228 <__ajit_do_spi_transfer_inner__+0x58>
    3248:	82 80 7f ff 	addcc  %g1, -1, %g1
    324c:	80 a2 20 00 	cmp  %o0, 0
    3250:	32 80 00 0d 	bne,a   3284 <__ajit_do_spi_transfer_inner__+0xb4>
    3254:	03 3f ff cc 	sethi  %hi(0xffff3000), %g1
    3258:	11 3f ff cc 	sethi  %hi(0xffff3000), %o0
    325c:	90 12 23 00 	or  %o0, 0x300, %o0	! ffff3300 <ajit_global_interrupt_handlers+0xfffe8058>
    3260:	d0 82 04 00 	lda  [ %o0 ] #ASI_SCRATCHPAD, %o0
    3264:	81 c3 e0 08 	retl 
    3268:	90 0a 20 ff 	and  %o0, 0xff, %o0
    326c:	84 10 63 00 	or  %g1, 0x300, %g2
    3270:	d4 a0 84 00 	sta  %o2, [ %g2 ] #ASI_SCRATCHPAD
    3274:	82 10 63 08 	or  %g1, 0x308, %g1
    3278:	d6 a0 44 00 	sta  %o3, [ %g1 ] #ASI_SCRATCHPAD
    327c:	10 bf ff e4 	b  320c <__ajit_do_spi_transfer_inner__+0x3c>
    3280:	07 3f ff cc 	sethi  %hi(0xffff3000), %g3
    3284:	82 10 63 00 	or  %g1, 0x300, %g1
    3288:	d0 00 40 00 	ld  [ %g1 ], %o0
    328c:	81 c3 e0 08 	retl 
    3290:	90 0a 20 ff 	and  %o0, 0xff, %o0

00003294 <__ajit_gpio_xfer__>:
    3294:	09 3f ff cc 	sethi  %hi(0xffff3000), %g4
    3298:	82 11 23 00 	or  %g4, 0x300, %g1	! ffff3300 <ajit_global_interrupt_handlers+0xfffe8058>
    329c:	d2 a0 44 00 	sta  %o1, [ %g1 ] #ASI_SCRATCHPAD
    32a0:	90 0a 20 07 	and  %o0, 7, %o0
    32a4:	88 11 23 08 	or  %g4, 0x308, %g4
    32a8:	91 2a 20 03 	sll  %o0, 3, %o0
    32ac:	90 12 20 03 	or  %o0, 3, %o0
    32b0:	d0 a1 04 00 	sta  %o0, [ %g4 ] #ASI_SCRATCHPAD
    32b4:	82 10 21 00 	mov  0x100, %g1
    32b8:	c4 81 04 00 	lda  [ %g4 ] #ASI_SCRATCHPAD, %g2
    32bc:	82 00 7f ff 	add  %g1, -1, %g1
    32c0:	87 38 60 1f 	sra  %g1, 0x1f, %g3
    32c4:	86 20 c0 01 	sub  %g3, %g1, %g3
    32c8:	87 30 e0 1f 	srl  %g3, 0x1f, %g3
    32cc:	80 88 c0 02 	btst  %g3, %g2
    32d0:	12 bf ff fa 	bne  32b8 <__ajit_gpio_xfer__+0x24>
    32d4:	11 3f ff cc 	sethi  %hi(0xffff3000), %o0
    32d8:	90 12 23 00 	or  %o0, 0x300, %o0	! ffff3300 <ajit_global_interrupt_handlers+0xfffe8058>
    32dc:	d0 82 04 00 	lda  [ %o0 ] #ASI_SCRATCHPAD, %o0
    32e0:	81 c3 e0 08 	retl 
    32e4:	90 0a 20 ff 	and  %o0, 0xff, %o0

000032e8 <__ajit_gpio_xfer_via_vmap__>:
    32e8:	03 3f ff cc 	sethi  %hi(0xffff3000), %g1
    32ec:	90 0a 20 07 	and  %o0, 7, %o0
    32f0:	88 10 63 00 	or  %g1, 0x300, %g4
    32f4:	87 2a 20 03 	sll  %o0, 3, %g3
    32f8:	82 10 63 08 	or  %g1, 0x308, %g1
    32fc:	d2 29 00 00 	stb  %o1, [ %g4 ]
    3300:	84 10 e0 03 	or  %g3, 3, %g2
    3304:	c4 28 40 00 	stb  %g2, [ %g1 ]
    3308:	86 10 00 02 	mov  %g2, %g3
    330c:	82 10 21 00 	mov  0x100, %g1
    3310:	82 00 7f ff 	add  %g1, -1, %g1
    3314:	85 38 60 1f 	sra  %g1, 0x1f, %g2
    3318:	84 20 80 01 	sub  %g2, %g1, %g2
    331c:	85 30 a0 1f 	srl  %g2, 0x1f, %g2
    3320:	80 88 c0 02 	btst  %g3, %g2
    3324:	12 bf ff fc 	bne  3314 <__ajit_gpio_xfer_via_vmap__+0x2c>
    3328:	82 00 7f ff 	add  %g1, -1, %g1
    332c:	03 3f ff cc 	sethi  %hi(0xffff3000), %g1
    3330:	82 10 63 00 	or  %g1, 0x300, %g1	! ffff3300 <ajit_global_interrupt_handlers+0xfffe8058>
    3334:	81 c3 e0 08 	retl 
    3338:	d0 08 40 00 	ldub  [ %g1 ], %o0

0000333c <__ajit_read_gpio_32__>:
    333c:	03 3f ff cd 	sethi  %hi(0xffff3400), %g1
    3340:	82 10 60 04 	or  %g1, 4, %g1	! ffff3404 <ajit_global_interrupt_handlers+0xfffe815c>
    3344:	81 c3 e0 08 	retl 
    3348:	d0 00 40 00 	ld  [ %g1 ], %o0

0000334c <__ajit_write_gpio_32__>:
    334c:	03 3f ff cd 	sethi  %hi(0xffff3400), %g1
    3350:	81 c3 e0 08 	retl 
    3354:	d0 20 40 00 	st  %o0, [ %g1 ]

00003358 <__ajit_read_gpio_32_via_vmap__>:
    3358:	11 3f ff cd 	sethi  %hi(0xffff3400), %o0
    335c:	90 12 20 04 	or  %o0, 4, %o0	! ffff3404 <ajit_global_interrupt_handlers+0xfffe815c>
    3360:	d0 82 04 00 	lda  [ %o0 ] #ASI_SCRATCHPAD, %o0
    3364:	81 c3 e0 08 	retl 
    3368:	01 00 00 00 	nop 

0000336c <__ajit_write_gpio_32_via_vmap__>:
    336c:	03 3f ff cd 	sethi  %hi(0xffff3400), %g1
    3370:	d0 a0 44 00 	sta  %o0, [ %g1 ] #ASI_SCRATCHPAD
    3374:	81 c3 e0 08 	retl 
    3378:	01 00 00 00 	nop 

0000337c <__ajit_ta_0__>:
    337c:	91 d0 20 00 	ta  0
    3380:	01 00 00 00 	nop 
    3384:	01 00 00 00 	nop 
    3388:	81 c3 e0 08 	retl 
    338c:	01 00 00 00 	nop 

00003390 <__ajit_fsqrtd__>:
    3390:	c1 1a 00 00 	ldd  [ %o0 ], %f0
    3394:	85 a0 05 40 	fsqrtd  %f0, %f2
    3398:	c5 3a 40 00 	std  %f2, [ %o1 ]
    339c:	81 c3 e0 08 	retl 
    33a0:	01 00 00 00 	nop 

000033a4 <__ajit_fsqrts__>:
    33a4:	c1 02 00 00 	ld  [ %o0 ], %f0
    33a8:	83 a0 05 20 	fsqrts  %f0, %f1
    33ac:	c3 22 40 00 	st  %f1, [ %o1 ]
    33b0:	81 c3 e0 08 	retl 
    33b4:	01 00 00 00 	nop 

000033b8 <__ajit_fitod__>:
    33b8:	c1 02 00 00 	ld  [ %o0 ], %f0
    33bc:	85 a0 19 00 	fitod  %f0, %f2
    33c0:	c5 3a 40 00 	std  %f2, [ %o1 ]
    33c4:	81 c3 e0 08 	retl 
    33c8:	01 00 00 00 	nop 

000033cc <__ajit_fitos__>:
    33cc:	c1 02 00 00 	ld  [ %o0 ], %f0
    33d0:	83 a0 18 80 	fitos  %f0, %f1
    33d4:	c3 22 40 00 	st  %f1, [ %o1 ]
    33d8:	81 c3 e0 08 	retl 
    33dc:	01 00 00 00 	nop 

000033e0 <__ajit_fdtoi__>:
    33e0:	c1 1a 00 00 	ldd  [ %o0 ], %f0
    33e4:	85 a0 1a 40 	fdtoi  %f0, %f2
    33e8:	c5 22 40 00 	st  %f2, [ %o1 ]
    33ec:	81 c3 e0 08 	retl 
    33f0:	01 00 00 00 	nop 

000033f4 <__ajit_fstoi__>:
    33f4:	c1 02 00 00 	ld  [ %o0 ], %f0
    33f8:	83 a0 1a 20 	fstoi  %f0, %f1
    33fc:	c3 22 40 00 	st  %f1, [ %o1 ]
    3400:	81 c3 e0 08 	retl 
    3404:	01 00 00 00 	nop 

00003408 <readNicReg>:
    3408:	91 2a 20 02 	sll  %o0, 2, %o0
    340c:	03 00 00 29 	sethi  %hi(0xa400), %g1
    3410:	d2 00 61 78 	ld  [ %g1 + 0x178 ], %o1	! a578 <NIC_REG>
    3414:	92 02 40 08 	add  %o1, %o0, %o1
    3418:	91 3a 60 1f 	sra  %o1, 0x1f, %o0
    341c:	82 13 c0 00 	mov  %o7, %g1
    3420:	7f ff fc ca 	call  2748 <__ajit_load_word_from_physical_address__>
    3424:	9e 10 40 00 	mov  %g1, %o7

00003428 <writeNicReg>:
    3428:	83 2a 20 02 	sll  %o0, 2, %g1
    342c:	05 00 00 29 	sethi  %hi(0xa400), %g2
    3430:	90 10 00 09 	mov  %o1, %o0
    3434:	d4 00 a1 78 	ld  [ %g2 + 0x178 ], %o2
    3438:	94 02 80 01 	add  %o2, %g1, %o2
    343c:	93 3a a0 1f 	sra  %o2, 0x1f, %o1
    3440:	82 13 c0 00 	mov  %o7, %g1
    3444:	7f ff fc 88 	call  2664 <__ajit_store_word_to_physical_address__>
    3448:	9e 10 40 00 	mov  %g1, %o7

0000344c <readMemory>:
    344c:	9d e3 bf a0 	save  %sp, -96, %sp
    3450:	90 10 00 18 	mov  %i0, %o0
    3454:	92 10 00 19 	mov  %i1, %o1
    3458:	7f ff fc bc 	call  2748 <__ajit_load_word_from_physical_address__>
    345c:	b4 10 00 19 	mov  %i1, %i2
    3460:	b2 10 00 18 	mov  %i0, %i1
    3464:	b6 10 00 18 	mov  %i0, %i3
    3468:	b8 10 00 1a 	mov  %i2, %i4
    346c:	31 00 00 28 	sethi  %hi(0xa000), %i0
    3470:	ba 10 00 08 	mov  %o0, %i5
    3474:	7f ff f9 2c 	call  1924 <ee_printf>
    3478:	91 ee 20 b0 	restore  %i0, 0xb0, %o0

0000347c <printMemory>:
    347c:	9d e3 bf a0 	save  %sp, -96, %sp
    3480:	92 10 20 00 	clr  %o1
    3484:	11 00 00 28 	sethi  %hi(0xa000), %o0
    3488:	37 00 00 29 	sethi  %hi(0xa400), %i3
    348c:	90 12 20 d8 	or  %o0, 0xd8, %o0
    3490:	39 00 00 28 	sethi  %hi(0xa000), %i4
    3494:	7f ff f9 24 	call  1924 <ee_printf>
    3498:	ba 10 20 00 	clr  %i5
    349c:	b6 16 e1 84 	or  %i3, 0x184, %i3
    34a0:	b8 17 20 e0 	or  %i4, 0xe0, %i4
    34a4:	c2 06 c0 00 	ld  [ %i3 ], %g1
    34a8:	90 10 00 1c 	mov  %i4, %o0
    34ac:	92 00 40 1d 	add  %g1, %i5, %o1
    34b0:	d4 00 40 1d 	ld  [ %g1 + %i5 ], %o2
    34b4:	7f ff f9 1c 	call  1924 <ee_printf>
    34b8:	d6 02 60 04 	ld  [ %o1 + 4 ], %o3
    34bc:	ba 07 60 08 	add  %i5, 8, %i5
    34c0:	80 a7 64 00 	cmp  %i5, 0x400
    34c4:	32 bf ff f9 	bne,a   34a8 <printMemory+0x2c>
    34c8:	c2 06 c0 00 	ld  [ %i3 ], %g1
    34cc:	81 c7 e0 08 	ret 
    34d0:	81 e8 00 00 	restore 

000034d4 <printBuffers>:
    34d4:	9d e3 bf a0 	save  %sp, -96, %sp
    34d8:	11 00 00 28 	sethi  %hi(0xa000), %o0
    34dc:	37 00 00 29 	sethi  %hi(0xa400), %i3
    34e0:	90 12 21 08 	or  %o0, 0x108, %o0
    34e4:	39 00 00 28 	sethi  %hi(0xa000), %i4
    34e8:	7f ff f9 0f 	call  1924 <ee_printf>
    34ec:	ba 10 20 00 	clr  %i5
    34f0:	b6 16 e1 80 	or  %i3, 0x180, %i3
    34f4:	b8 17 21 20 	or  %i4, 0x120, %i4
    34f8:	c2 06 c0 00 	ld  [ %i3 ], %g1
    34fc:	84 00 40 1d 	add  %g1, %i5, %g2
    3500:	d2 00 40 1d 	ld  [ %g1 + %i5 ], %o1
    3504:	90 10 00 1c 	mov  %i4, %o0
    3508:	7f ff f9 07 	call  1924 <ee_printf>
    350c:	d4 00 a0 04 	ld  [ %g2 + 4 ], %o2
    3510:	ba 07 60 08 	add  %i5, 8, %i5
    3514:	80 a7 60 58 	cmp  %i5, 0x58
    3518:	32 bf ff f9 	bne,a   34fc <printBuffers+0x28>
    351c:	c2 06 c0 00 	ld  [ %i3 ], %g1
    3520:	31 00 00 29 	sethi  %hi(0xa400), %i0
    3524:	7f ff f9 00 	call  1924 <ee_printf>
    3528:	90 16 20 e0 	or  %i0, 0xe0, %o0	! a4e0 <main+0x24e0>
    352c:	11 00 00 28 	sethi  %hi(0xa000), %o0
    3530:	37 00 00 29 	sethi  %hi(0xa400), %i3
    3534:	90 12 21 30 	or  %o0, 0x130, %o0
    3538:	7f ff f8 fb 	call  1924 <ee_printf>
    353c:	ba 10 20 00 	clr  %i5
    3540:	b6 16 e1 7c 	or  %i3, 0x17c, %i3
    3544:	c2 06 c0 00 	ld  [ %i3 ], %g1
    3548:	84 00 40 1d 	add  %g1, %i5, %g2
    354c:	d2 00 40 1d 	ld  [ %g1 + %i5 ], %o1
    3550:	90 10 00 1c 	mov  %i4, %o0
    3554:	7f ff f8 f4 	call  1924 <ee_printf>
    3558:	d4 00 a0 04 	ld  [ %g2 + 4 ], %o2
    355c:	ba 07 60 08 	add  %i5, 8, %i5
    3560:	80 a7 60 58 	cmp  %i5, 0x58
    3564:	32 bf ff f9 	bne,a   3548 <printBuffers+0x74>
    3568:	c2 06 c0 00 	ld  [ %i3 ], %g1
    356c:	7f ff f8 ee 	call  1924 <ee_printf>
    3570:	91 ee 20 e0 	restore  %i0, 0xe0, %o0

00003574 <initBufferQueue>:
    3574:	c0 22 00 00 	clr  [ %o0 ]
    3578:	c0 22 20 0c 	clr  [ %o0 + 0xc ]
    357c:	c0 22 20 08 	clr  [ %o0 + 8 ]
    3580:	81 c3 e0 08 	retl 
    3584:	d2 22 20 04 	st  %o1, [ %o0 + 4 ]

00003588 <acquireMutex>:
    3588:	9d e3 bf a0 	save  %sp, -96, %sp
    358c:	3b 00 00 28 	sethi  %hi(0xa000), %i5
    3590:	c2 06 00 00 	ld  [ %i0 ], %g1
    3594:	80 a0 60 01 	cmp  %g1, 1
    3598:	12 80 00 08 	bne  35b8 <acquireMutex+0x30>
    359c:	ba 17 61 48 	or  %i5, 0x148, %i5
    35a0:	7f ff f8 e1 	call  1924 <ee_printf>
    35a4:	90 10 00 1d 	mov  %i5, %o0
    35a8:	c2 06 00 00 	ld  [ %i0 ], %g1
    35ac:	80 a0 60 01 	cmp  %g1, 1
    35b0:	02 bf ff fc 	be  35a0 <acquireMutex+0x18>
    35b4:	01 00 00 00 	nop 
    35b8:	82 10 20 01 	mov  1, %g1	! 1 <_start+0x1>
    35bc:	c2 26 00 00 	st  %g1, [ %i0 ]
    35c0:	81 c7 e0 08 	ret 
    35c4:	81 e8 00 00 	restore 

000035c8 <releaseMutex>:
    35c8:	81 c3 e0 08 	retl 
    35cc:	c0 22 00 00 	clr  [ %o0 ]

000035d0 <pushIntoBufferQueue>:
    35d0:	9d e3 bf a0 	save  %sp, -96, %sp
    35d4:	7f ff ff ed 	call  3588 <acquireMutex>
    35d8:	90 10 00 18 	mov  %i0, %o0
    35dc:	c4 06 20 08 	ld  [ %i0 + 8 ], %g2
    35e0:	88 00 a0 01 	add  %g2, 1, %g4
    35e4:	c2 06 20 04 	ld  [ %i0 + 4 ], %g1
    35e8:	c6 06 20 0c 	ld  [ %i0 + 0xc ], %g3
    35ec:	82 00 7f ff 	add  %g1, -1, %g1
    35f0:	ba 10 00 18 	mov  %i0, %i5
    35f4:	82 08 40 04 	and  %g1, %g4, %g1
    35f8:	80 a0 c0 01 	cmp  %g3, %g1
    35fc:	02 80 00 08 	be  361c <pushIntoBufferQueue+0x4c>
    3600:	88 06 20 10 	add  %i0, 0x10, %g4
    3604:	85 28 a0 02 	sll  %g2, 2, %g2
    3608:	f2 21 00 02 	st  %i1, [ %g4 + %g2 ]
    360c:	c2 26 20 08 	st  %g1, [ %i0 + 8 ]
    3610:	c0 27 40 00 	clr  [ %i5 ]
    3614:	81 c7 e0 08 	ret 
    3618:	91 e8 20 00 	restore  %g0, 0, %o0
    361c:	11 00 00 28 	sethi  %hi(0xa000), %o0
    3620:	b0 10 20 01 	mov  1, %i0
    3624:	7f ff f8 c0 	call  1924 <ee_printf>
    3628:	90 12 21 60 	or  %o0, 0x160, %o0
    362c:	c0 27 40 00 	clr  [ %i5 ]
    3630:	81 c7 e0 08 	ret 
    3634:	81 e8 00 00 	restore 

00003638 <popFromBufferQueue>:
    3638:	9d e3 bf a0 	save  %sp, -96, %sp
    363c:	7f ff ff d3 	call  3588 <acquireMutex>
    3640:	90 10 00 18 	mov  %i0, %o0
    3644:	c2 06 20 0c 	ld  [ %i0 + 0xc ], %g1
    3648:	c4 06 20 08 	ld  [ %i0 + 8 ], %g2
    364c:	ba 10 00 18 	mov  %i0, %i5
    3650:	80 a0 80 01 	cmp  %g2, %g1
    3654:	02 80 00 0e 	be  368c <popFromBufferQueue+0x54>
    3658:	86 06 20 10 	add  %i0, 0x10, %g3
    365c:	83 28 60 02 	sll  %g1, 2, %g1
    3660:	c2 00 c0 01 	ld  [ %g3 + %g1 ], %g1
    3664:	c2 26 40 00 	st  %g1, [ %i1 ]
    3668:	c4 07 60 0c 	ld  [ %i5 + 0xc ], %g2
    366c:	c2 07 60 04 	ld  [ %i5 + 4 ], %g1
    3670:	84 00 a0 01 	inc  %g2
    3674:	82 00 7f ff 	add  %g1, -1, %g1
    3678:	c0 27 40 00 	clr  [ %i5 ]
    367c:	82 08 40 02 	and  %g1, %g2, %g1
    3680:	c2 27 60 0c 	st  %g1, [ %i5 + 0xc ]
    3684:	81 c7 e0 08 	ret 
    3688:	91 e8 20 00 	restore  %g0, 0, %o0
    368c:	c0 27 40 00 	clr  [ %i5 ]
    3690:	81 c7 e0 08 	ret 
    3694:	91 e8 20 01 	restore  %g0, 1, %o0

00003698 <nicRegConfig>:
    3698:	9d e3 bf a0 	save  %sp, -96, %sp
    369c:	7f ff ff 5b 	call  3408 <readNicReg>
    36a0:	90 10 20 16 	mov  0x16, %o0
    36a4:	92 10 00 08 	mov  %o0, %o1
    36a8:	11 00 00 28 	sethi  %hi(0xa000), %o0
    36ac:	7f ff f8 9e 	call  1924 <ee_printf>
    36b0:	90 12 21 70 	or  %o0, 0x170, %o0	! a170 <main+0x2170>
    36b4:	90 10 20 01 	mov  1, %o0
    36b8:	7f ff ff 5c 	call  3428 <writeNicReg>
    36bc:	92 10 20 01 	mov  1, %o1
    36c0:	92 10 00 19 	mov  %i1, %o1
    36c4:	7f ff ff 59 	call  3428 <writeNicReg>
    36c8:	90 10 20 02 	mov  2, %o0
    36cc:	90 10 20 0a 	mov  0xa, %o0
    36d0:	7f ff ff 56 	call  3428 <writeNicReg>
    36d4:	92 10 00 1a 	mov  %i2, %o1
    36d8:	92 10 00 18 	mov  %i0, %o1
    36dc:	90 10 20 12 	mov  0x12, %o0
    36e0:	7f ff ff 52 	call  3428 <writeNicReg>
    36e4:	b0 10 20 00 	clr  %i0
    36e8:	7f ff ff 50 	call  3428 <writeNicReg>
    36ec:	93 e8 20 01 	restore  %g0, 1, %o1

000036f0 <readNicRegs>:
    36f0:	9d e3 bf a0 	save  %sp, -96, %sp
    36f4:	39 00 00 28 	sethi  %hi(0xa000), %i4
    36f8:	ba 10 20 00 	clr  %i5
    36fc:	b8 17 21 88 	or  %i4, 0x188, %i4
    3700:	7f ff ff 42 	call  3408 <readNicReg>
    3704:	90 10 00 1d 	mov  %i5, %o0
    3708:	92 10 00 1d 	mov  %i5, %o1
    370c:	94 10 00 08 	mov  %o0, %o2
    3710:	7f ff f8 85 	call  1924 <ee_printf>
    3714:	90 10 00 1c 	mov  %i4, %o0
    3718:	ba 07 60 01 	inc  %i5
    371c:	80 a7 60 40 	cmp  %i5, 0x40
    3720:	12 bf ff f8 	bne  3700 <readNicRegs+0x10>
    3724:	01 00 00 00 	nop 
    3728:	11 00 00 28 	sethi  %hi(0xa000), %o0
    372c:	7f ff f8 7e 	call  1924 <ee_printf>
    3730:	90 12 21 a0 	or  %o0, 0x1a0, %o0	! a1a0 <main+0x21a0>
    3734:	7f ff ff 35 	call  3408 <readNicReg>
    3738:	90 10 20 00 	clr  %o0
    373c:	92 10 00 08 	mov  %o0, %o1
    3740:	11 00 00 28 	sethi  %hi(0xa000), %o0
    3744:	7f ff f8 78 	call  1924 <ee_printf>
    3748:	90 12 21 c0 	or  %o0, 0x1c0, %o0	! a1c0 <main+0x21c0>
    374c:	7f ff ff 2f 	call  3408 <readNicReg>
    3750:	90 10 20 01 	mov  1, %o0
    3754:	92 10 00 08 	mov  %o0, %o1
    3758:	11 00 00 28 	sethi  %hi(0xa000), %o0
    375c:	7f ff f8 72 	call  1924 <ee_printf>
    3760:	90 12 21 e8 	or  %o0, 0x1e8, %o0	! a1e8 <main+0x21e8>
    3764:	7f ff ff 29 	call  3408 <readNicReg>
    3768:	90 10 20 02 	mov  2, %o0
    376c:	92 10 00 08 	mov  %o0, %o1
    3770:	11 00 00 28 	sethi  %hi(0xa000), %o0
    3774:	7f ff f8 6c 	call  1924 <ee_printf>
    3778:	90 12 22 10 	or  %o0, 0x210, %o0	! a210 <main+0x2210>
    377c:	7f ff ff 23 	call  3408 <readNicReg>
    3780:	90 10 20 0a 	mov  0xa, %o0
    3784:	92 10 00 08 	mov  %o0, %o1
    3788:	11 00 00 28 	sethi  %hi(0xa000), %o0
    378c:	7f ff f8 66 	call  1924 <ee_printf>
    3790:	90 12 22 38 	or  %o0, 0x238, %o0	! a238 <main+0x2238>
    3794:	7f ff ff 1d 	call  3408 <readNicReg>
    3798:	90 10 20 12 	mov  0x12, %o0
    379c:	92 10 00 08 	mov  %o0, %o1
    37a0:	11 00 00 28 	sethi  %hi(0xa000), %o0
    37a4:	7f ff f8 60 	call  1924 <ee_printf>
    37a8:	90 12 22 60 	or  %o0, 0x260, %o0	! a260 <main+0x2260>
    37ac:	7f ff ff 17 	call  3408 <readNicReg>
    37b0:	90 10 20 17 	mov  0x17, %o0
    37b4:	92 10 00 08 	mov  %o0, %o1
    37b8:	11 00 00 28 	sethi  %hi(0xa000), %o0
    37bc:	7f ff f8 5a 	call  1924 <ee_printf>
    37c0:	90 12 22 88 	or  %o0, 0x288, %o0	! a288 <main+0x2288>
    37c4:	7f ff ff 11 	call  3408 <readNicReg>
    37c8:	90 10 20 19 	mov  0x19, %o0
    37cc:	92 10 00 08 	mov  %o0, %o1
    37d0:	11 00 00 28 	sethi  %hi(0xa000), %o0
    37d4:	7f ff f8 54 	call  1924 <ee_printf>
    37d8:	90 12 22 b8 	or  %o0, 0x2b8, %o0	! a2b8 <main+0x22b8>
    37dc:	90 10 20 15 	mov  0x15, %o0
    37e0:	7f ff ff 0a 	call  3408 <readNicReg>
    37e4:	31 00 00 28 	sethi  %hi(0xa000), %i0
    37e8:	b0 16 22 e8 	or  %i0, 0x2e8, %i0	! a2e8 <main+0x22e8>
    37ec:	7f ff f8 4e 	call  1924 <ee_printf>
    37f0:	93 e8 00 08 	restore  %g0, %o0, %o1
    37f4:	80 8a 60 01 	btst  1, %o1
    37f8:	02 80 00 08 	be  3818 <readNicRegs+0x128>
    37fc:	80 8a 60 02 	btst  2, %o1
    3800:	c4 0a 7f ff 	ldub  [ %o1 + -1 ], %g2
    3804:	92 22 60 01 	dec  %o1
    3808:	c4 2a 3f ff 	stb  %g2, [ %o0 + -1 ]
    380c:	94 22 a0 01 	dec  %o2
    3810:	02 80 00 1a 	be  3878 <__GI_memmove+0x3c>
    3814:	90 22 20 01 	dec  %o0
    3818:	c4 12 7f fe 	lduh  [ %o1 + -2 ], %g2
    381c:	92 22 60 02 	sub  %o1, 2, %o1
    3820:	c4 32 3f fe 	sth  %g2, [ %o0 + -2 ]
    3824:	94 22 a0 02 	sub  %o2, 2, %o2
    3828:	10 80 00 14 	b  3878 <__GI_memmove+0x3c>
    382c:	90 22 20 02 	sub  %o0, 2, %o0

00003830 <bcopy>:
    3830:	96 10 00 08 	mov  %o0, %o3
    3834:	90 10 00 09 	mov  %o1, %o0
    3838:	92 10 00 0b 	mov  %o3, %o1

0000383c <__GI_memmove>:
    383c:	80 a2 00 09 	cmp  %o0, %o1
    3840:	d0 23 a0 40 	st  %o0, [ %sp + 0x40 ]
    3844:	08 80 01 79 	bleu  3e28 <__GI_memcpy+0x8>
    3848:	98 22 00 09 	sub  %o0, %o1, %o4
    384c:	96 02 40 0a 	add  %o1, %o2, %o3
    3850:	80 a2 c0 08 	cmp  %o3, %o0
    3854:	08 80 01 76 	bleu  3e2c <__GI_memcpy+0xc>
    3858:	9a 8b 20 03 	andcc  %o4, 3, %o5
    385c:	92 02 40 0a 	add  %o1, %o2, %o1
    3860:	90 02 00 0a 	add  %o0, %o2, %o0
    3864:	12 80 00 f9 	bne  3c48 <__GI_memmove+0x40c>
    3868:	80 a2 a0 0f 	cmp  %o2, 0xf
    386c:	08 80 00 eb 	bleu  3c18 <__GI_memmove+0x3dc>
    3870:	80 8a 60 03 	btst  3, %o1
    3874:	12 bf ff e0 	bne  37f4 <readNicRegs+0x104>
    3878:	80 8a 60 04 	btst  4, %o1
    387c:	02 80 00 07 	be  3898 <__GI_memmove+0x5c>
    3880:	82 10 00 0a 	mov  %o2, %g1
    3884:	d8 02 7f fc 	ld  [ %o1 + -4 ], %o4
    3888:	82 20 60 04 	sub  %g1, 4, %g1
    388c:	d8 22 3f fc 	st  %o4, [ %o0 + -4 ]
    3890:	92 22 60 04 	sub  %o1, 4, %o1
    3894:	90 22 20 04 	sub  %o0, 4, %o0
    3898:	8c 88 7f 80 	andcc  %g1, -128, %g6
    389c:	02 80 00 37 	be  3978 <__GI_memmove+0x13c>
    38a0:	80 8a 20 04 	btst  4, %o0
    38a4:	02 80 00 84 	be  3ab4 <__GI_memmove+0x278>
    38a8:	d4 1a 7f e0 	ldd  [ %o1 + -32 ], %o2
    38ac:	d8 1a 7f e8 	ldd  [ %o1 + -24 ], %o4
    38b0:	c4 1a 7f f0 	ldd  [ %o1 + -16 ], %g2
    38b4:	c8 1a 7f f8 	ldd  [ %o1 + -8 ], %g4
    38b8:	d4 22 3f e0 	st  %o2, [ %o0 + -32 ]
    38bc:	d6 22 3f e4 	st  %o3, [ %o0 + -28 ]
    38c0:	d8 22 3f e8 	st  %o4, [ %o0 + -24 ]
    38c4:	da 22 3f ec 	st  %o5, [ %o0 + -20 ]
    38c8:	c4 22 3f f0 	st  %g2, [ %o0 + -16 ]
    38cc:	c6 22 3f f4 	st  %g3, [ %o0 + -12 ]
    38d0:	c8 22 3f f8 	st  %g4, [ %o0 + -8 ]
    38d4:	ca 22 3f fc 	st  %g5, [ %o0 + -4 ]
    38d8:	d4 1a 7f c0 	ldd  [ %o1 + -64 ], %o2
    38dc:	d8 1a 7f c8 	ldd  [ %o1 + -56 ], %o4
    38e0:	c4 1a 7f d0 	ldd  [ %o1 + -48 ], %g2
    38e4:	c8 1a 7f d8 	ldd  [ %o1 + -40 ], %g4
    38e8:	d4 22 3f c0 	st  %o2, [ %o0 + -64 ]
    38ec:	d6 22 3f c4 	st  %o3, [ %o0 + -60 ]
    38f0:	d8 22 3f c8 	st  %o4, [ %o0 + -56 ]
    38f4:	da 22 3f cc 	st  %o5, [ %o0 + -52 ]
    38f8:	c4 22 3f d0 	st  %g2, [ %o0 + -48 ]
    38fc:	c6 22 3f d4 	st  %g3, [ %o0 + -44 ]
    3900:	c8 22 3f d8 	st  %g4, [ %o0 + -40 ]
    3904:	ca 22 3f dc 	st  %g5, [ %o0 + -36 ]
    3908:	d4 1a 7f a0 	ldd  [ %o1 + -96 ], %o2
    390c:	d8 1a 7f a8 	ldd  [ %o1 + -88 ], %o4
    3910:	c4 1a 7f b0 	ldd  [ %o1 + -80 ], %g2
    3914:	c8 1a 7f b8 	ldd  [ %o1 + -72 ], %g4
    3918:	d4 22 3f a0 	st  %o2, [ %o0 + -96 ]
    391c:	d6 22 3f a4 	st  %o3, [ %o0 + -92 ]
    3920:	d8 22 3f a8 	st  %o4, [ %o0 + -88 ]
    3924:	da 22 3f ac 	st  %o5, [ %o0 + -84 ]
    3928:	c4 22 3f b0 	st  %g2, [ %o0 + -80 ]
    392c:	c6 22 3f b4 	st  %g3, [ %o0 + -76 ]
    3930:	c8 22 3f b8 	st  %g4, [ %o0 + -72 ]
    3934:	ca 22 3f bc 	st  %g5, [ %o0 + -68 ]
    3938:	d4 1a 7f 80 	ldd  [ %o1 + -128 ], %o2
    393c:	d8 1a 7f 88 	ldd  [ %o1 + -120 ], %o4
    3940:	c4 1a 7f 90 	ldd  [ %o1 + -112 ], %g2
    3944:	c8 1a 7f 98 	ldd  [ %o1 + -104 ], %g4
    3948:	d4 22 3f 80 	st  %o2, [ %o0 + -128 ]
    394c:	d6 22 3f 84 	st  %o3, [ %o0 + -124 ]
    3950:	d8 22 3f 88 	st  %o4, [ %o0 + -120 ]
    3954:	da 22 3f 8c 	st  %o5, [ %o0 + -116 ]
    3958:	c4 22 3f 90 	st  %g2, [ %o0 + -112 ]
    395c:	c6 22 3f 94 	st  %g3, [ %o0 + -108 ]
    3960:	c8 22 3f 98 	st  %g4, [ %o0 + -104 ]
    3964:	ca 22 3f 9c 	st  %g5, [ %o0 + -100 ]
    3968:	8c a1 a0 80 	subcc  %g6, 0x80, %g6
    396c:	92 22 60 80 	sub  %o1, 0x80, %o1
    3970:	12 bf ff ce 	bne  38a8 <__GI_memmove+0x6c>
    3974:	90 22 20 80 	sub  %o0, 0x80, %o0
    3978:	8c 88 60 70 	andcc  %g1, 0x70, %g6
    397c:	02 80 00 34 	be  3a4c <__GI_memmove+0x210>
    3980:	80 88 60 08 	btst  8, %g1
    3984:	99 31 a0 01 	srl  %g6, 1, %o4
    3988:	84 10 00 0f 	mov  %o7, %g2
    398c:	98 01 80 0c 	add  %g6, %o4, %o4
    3990:	40 00 05 3d 	call  4e84 <__GI_memcpy+0x1064>
    3994:	92 22 40 06 	sub  %o1, %g6, %o1
    3998:	9e 10 00 02 	mov  %g2, %o7
    399c:	81 c3 60 bc 	jmp  %o5 + 0xbc
    39a0:	90 22 00 06 	sub  %o0, %g6, %o0
    39a4:	c4 1a 60 60 	ldd  [ %o1 + 0x60 ], %g2
    39a8:	c8 1a 60 68 	ldd  [ %o1 + 0x68 ], %g4
    39ac:	c4 22 20 60 	st  %g2, [ %o0 + 0x60 ]
    39b0:	c6 22 20 64 	st  %g3, [ %o0 + 0x64 ]
    39b4:	c8 22 20 68 	st  %g4, [ %o0 + 0x68 ]
    39b8:	ca 22 20 6c 	st  %g5, [ %o0 + 0x6c ]
    39bc:	c4 1a 60 50 	ldd  [ %o1 + 0x50 ], %g2
    39c0:	c8 1a 60 58 	ldd  [ %o1 + 0x58 ], %g4
    39c4:	c4 22 20 50 	st  %g2, [ %o0 + 0x50 ]
    39c8:	c6 22 20 54 	st  %g3, [ %o0 + 0x54 ]
    39cc:	c8 22 20 58 	st  %g4, [ %o0 + 0x58 ]
    39d0:	ca 22 20 5c 	st  %g5, [ %o0 + 0x5c ]
    39d4:	c4 1a 60 40 	ldd  [ %o1 + 0x40 ], %g2
    39d8:	c8 1a 60 48 	ldd  [ %o1 + 0x48 ], %g4
    39dc:	c4 22 20 40 	st  %g2, [ %o0 + 0x40 ]
    39e0:	c6 22 20 44 	st  %g3, [ %o0 + 0x44 ]
    39e4:	c8 22 20 48 	st  %g4, [ %o0 + 0x48 ]
    39e8:	ca 22 20 4c 	st  %g5, [ %o0 + 0x4c ]
    39ec:	c4 1a 60 30 	ldd  [ %o1 + 0x30 ], %g2
    39f0:	c8 1a 60 38 	ldd  [ %o1 + 0x38 ], %g4
    39f4:	c4 22 20 30 	st  %g2, [ %o0 + 0x30 ]
    39f8:	c6 22 20 34 	st  %g3, [ %o0 + 0x34 ]
    39fc:	c8 22 20 38 	st  %g4, [ %o0 + 0x38 ]
    3a00:	ca 22 20 3c 	st  %g5, [ %o0 + 0x3c ]
    3a04:	c4 1a 60 20 	ldd  [ %o1 + 0x20 ], %g2
    3a08:	c8 1a 60 28 	ldd  [ %o1 + 0x28 ], %g4
    3a0c:	c4 22 20 20 	st  %g2, [ %o0 + 0x20 ]
    3a10:	c6 22 20 24 	st  %g3, [ %o0 + 0x24 ]
    3a14:	c8 22 20 28 	st  %g4, [ %o0 + 0x28 ]
    3a18:	ca 22 20 2c 	st  %g5, [ %o0 + 0x2c ]
    3a1c:	c4 1a 60 10 	ldd  [ %o1 + 0x10 ], %g2
    3a20:	c8 1a 60 18 	ldd  [ %o1 + 0x18 ], %g4
    3a24:	c4 22 20 10 	st  %g2, [ %o0 + 0x10 ]
    3a28:	c6 22 20 14 	st  %g3, [ %o0 + 0x14 ]
    3a2c:	c8 22 20 18 	st  %g4, [ %o0 + 0x18 ]
    3a30:	ca 22 20 1c 	st  %g5, [ %o0 + 0x1c ]
    3a34:	c4 1a 60 00 	ldd  [ %o1 ], %g2
    3a38:	c8 1a 60 08 	ldd  [ %o1 + 8 ], %g4
    3a3c:	c4 22 20 00 	st  %g2, [ %o0 ]
    3a40:	c6 22 20 04 	st  %g3, [ %o0 + 4 ]
    3a44:	c8 22 20 08 	st  %g4, [ %o0 + 8 ]
    3a48:	ca 22 20 0c 	st  %g5, [ %o0 + 0xc ]
    3a4c:	02 80 00 07 	be  3a68 <__GI_memmove+0x22c>
    3a50:	80 88 60 04 	btst  4, %g1
    3a54:	c4 1a 7f f8 	ldd  [ %o1 + -8 ], %g2
    3a58:	90 22 20 08 	sub  %o0, 8, %o0
    3a5c:	92 22 60 08 	sub  %o1, 8, %o1
    3a60:	c4 22 00 00 	st  %g2, [ %o0 ]
    3a64:	c6 22 20 04 	st  %g3, [ %o0 + 4 ]
    3a68:	02 80 00 06 	be  3a80 <__GI_memmove+0x244>
    3a6c:	80 88 60 02 	btst  2, %g1
    3a70:	c4 02 7f fc 	ld  [ %o1 + -4 ], %g2
    3a74:	92 22 60 04 	sub  %o1, 4, %o1
    3a78:	c4 22 3f fc 	st  %g2, [ %o0 + -4 ]
    3a7c:	90 22 20 04 	sub  %o0, 4, %o0
    3a80:	02 80 00 06 	be  3a98 <__GI_memmove+0x25c>
    3a84:	80 88 60 01 	btst  1, %g1
    3a88:	c4 12 7f fe 	lduh  [ %o1 + -2 ], %g2
    3a8c:	92 22 60 02 	sub  %o1, 2, %o1
    3a90:	c4 32 3f fe 	sth  %g2, [ %o0 + -2 ]
    3a94:	90 22 20 02 	sub  %o0, 2, %o0
    3a98:	02 80 00 04 	be  3aa8 <__GI_memmove+0x26c>
    3a9c:	01 00 00 00 	nop 
    3aa0:	c4 0a 7f ff 	ldub  [ %o1 + -1 ], %g2
    3aa4:	c4 2a 3f ff 	stb  %g2, [ %o0 + -1 ]
    3aa8:	81 c3 e0 08 	retl 
    3aac:	d0 03 a0 40 	ld  [ %sp + 0x40 ], %o0
    3ab0:	d4 1a 7f e0 	ldd  [ %o1 + -32 ], %o2
    3ab4:	d8 1a 7f e8 	ldd  [ %o1 + -24 ], %o4
    3ab8:	c4 1a 7f f0 	ldd  [ %o1 + -16 ], %g2
    3abc:	c8 1a 7f f8 	ldd  [ %o1 + -8 ], %g4
    3ac0:	d4 3a 3f e0 	std  %o2, [ %o0 + -32 ]
    3ac4:	d8 3a 3f e8 	std  %o4, [ %o0 + -24 ]
    3ac8:	c4 3a 3f f0 	std  %g2, [ %o0 + -16 ]
    3acc:	c8 3a 3f f8 	std  %g4, [ %o0 + -8 ]
    3ad0:	d4 1a 7f c0 	ldd  [ %o1 + -64 ], %o2
    3ad4:	d8 1a 7f c8 	ldd  [ %o1 + -56 ], %o4
    3ad8:	c4 1a 7f d0 	ldd  [ %o1 + -48 ], %g2
    3adc:	c8 1a 7f d8 	ldd  [ %o1 + -40 ], %g4
    3ae0:	d4 3a 3f c0 	std  %o2, [ %o0 + -64 ]
    3ae4:	d8 3a 3f c8 	std  %o4, [ %o0 + -56 ]
    3ae8:	c4 3a 3f d0 	std  %g2, [ %o0 + -48 ]
    3aec:	c8 3a 3f d8 	std  %g4, [ %o0 + -40 ]
    3af0:	d4 1a 7f a0 	ldd  [ %o1 + -96 ], %o2
    3af4:	d8 1a 7f a8 	ldd  [ %o1 + -88 ], %o4
    3af8:	c4 1a 7f b0 	ldd  [ %o1 + -80 ], %g2
    3afc:	c8 1a 7f b8 	ldd  [ %o1 + -72 ], %g4
    3b00:	d4 3a 3f a0 	std  %o2, [ %o0 + -96 ]
    3b04:	d8 3a 3f a8 	std  %o4, [ %o0 + -88 ]
    3b08:	c4 3a 3f b0 	std  %g2, [ %o0 + -80 ]
    3b0c:	c8 3a 3f b8 	std  %g4, [ %o0 + -72 ]
    3b10:	d4 1a 7f 80 	ldd  [ %o1 + -128 ], %o2
    3b14:	d8 1a 7f 88 	ldd  [ %o1 + -120 ], %o4
    3b18:	c4 1a 7f 90 	ldd  [ %o1 + -112 ], %g2
    3b1c:	c8 1a 7f 98 	ldd  [ %o1 + -104 ], %g4
    3b20:	d4 3a 3f 80 	std  %o2, [ %o0 + -128 ]
    3b24:	d8 3a 3f 88 	std  %o4, [ %o0 + -120 ]
    3b28:	c4 3a 3f 90 	std  %g2, [ %o0 + -112 ]
    3b2c:	c8 3a 3f 98 	std  %g4, [ %o0 + -104 ]
    3b30:	8c a1 a0 80 	subcc  %g6, 0x80, %g6
    3b34:	92 22 60 80 	sub  %o1, 0x80, %o1
    3b38:	12 bf ff de 	bne  3ab0 <__GI_memmove+0x274>
    3b3c:	90 22 20 80 	sub  %o0, 0x80, %o0
    3b40:	8c 88 60 70 	andcc  %g1, 0x70, %g6
    3b44:	02 bf ff c2 	be  3a4c <__GI_memmove+0x210>
    3b48:	80 88 60 08 	btst  8, %g1
    3b4c:	99 31 a0 01 	srl  %g6, 1, %o4
    3b50:	84 10 00 0f 	mov  %o7, %g2
    3b54:	98 01 80 0c 	add  %g6, %o4, %o4
    3b58:	40 00 04 cb 	call  4e84 <__GI_memcpy+0x1064>
    3b5c:	92 22 40 06 	sub  %o1, %g6, %o1
    3b60:	9e 10 00 02 	mov  %g2, %o7
    3b64:	81 c3 7e f4 	jmp  %o5 + -268
    3b68:	90 22 00 06 	sub  %o0, %g6, %o0
    3b6c:	96 0a a0 0e 	and  %o2, 0xe, %o3
    3b70:	84 10 00 0f 	mov  %o7, %g2
    3b74:	99 2a e0 03 	sll  %o3, 3, %o4
    3b78:	90 22 00 0b 	sub  %o0, %o3, %o0
    3b7c:	40 00 04 c2 	call  4e84 <__GI_memcpy+0x1064>
    3b80:	92 22 40 0b 	sub  %o1, %o3, %o1
    3b84:	9e 10 00 02 	mov  %g2, %o7
    3b88:	81 c3 60 84 	jmp  %o5 + 0x84
    3b8c:	80 8a a0 01 	btst  1, %o2
    3b90:	c4 0a 60 0c 	ldub  [ %o1 + 0xc ], %g2
    3b94:	c6 0a 60 0d 	ldub  [ %o1 + 0xd ], %g3
    3b98:	c4 2a 20 0c 	stb  %g2, [ %o0 + 0xc ]
    3b9c:	c6 2a 20 0d 	stb  %g3, [ %o0 + 0xd ]
    3ba0:	c4 0a 60 0a 	ldub  [ %o1 + 0xa ], %g2
    3ba4:	c6 0a 60 0b 	ldub  [ %o1 + 0xb ], %g3
    3ba8:	c4 2a 20 0a 	stb  %g2, [ %o0 + 0xa ]
    3bac:	c6 2a 20 0b 	stb  %g3, [ %o0 + 0xb ]
    3bb0:	c4 0a 60 08 	ldub  [ %o1 + 8 ], %g2
    3bb4:	c6 0a 60 09 	ldub  [ %o1 + 9 ], %g3
    3bb8:	c4 2a 20 08 	stb  %g2, [ %o0 + 8 ]
    3bbc:	c6 2a 20 09 	stb  %g3, [ %o0 + 9 ]
    3bc0:	c4 0a 60 06 	ldub  [ %o1 + 6 ], %g2
    3bc4:	c6 0a 60 07 	ldub  [ %o1 + 7 ], %g3
    3bc8:	c4 2a 20 06 	stb  %g2, [ %o0 + 6 ]
    3bcc:	c6 2a 20 07 	stb  %g3, [ %o0 + 7 ]
    3bd0:	c4 0a 60 04 	ldub  [ %o1 + 4 ], %g2
    3bd4:	c6 0a 60 05 	ldub  [ %o1 + 5 ], %g3
    3bd8:	c4 2a 20 04 	stb  %g2, [ %o0 + 4 ]
    3bdc:	c6 2a 20 05 	stb  %g3, [ %o0 + 5 ]
    3be0:	c4 0a 60 02 	ldub  [ %o1 + 2 ], %g2
    3be4:	c6 0a 60 03 	ldub  [ %o1 + 3 ], %g3
    3be8:	c4 2a 20 02 	stb  %g2, [ %o0 + 2 ]
    3bec:	c6 2a 20 03 	stb  %g3, [ %o0 + 3 ]
    3bf0:	c4 0a 60 00 	ldub  [ %o1 ], %g2
    3bf4:	c6 0a 60 01 	ldub  [ %o1 + 1 ], %g3
    3bf8:	c4 2a 20 00 	stb  %g2, [ %o0 ]
    3bfc:	c6 2a 20 01 	stb  %g3, [ %o0 + 1 ]
    3c00:	02 80 00 04 	be  3c10 <__GI_memmove+0x3d4>
    3c04:	01 00 00 00 	nop 
    3c08:	c4 0a 7f ff 	ldub  [ %o1 + -1 ], %g2
    3c0c:	c4 2a 3f ff 	stb  %g2, [ %o0 + -1 ]
    3c10:	81 c3 e0 08 	retl 
    3c14:	d0 03 a0 40 	ld  [ %sp + 0x40 ], %o0
    3c18:	12 bf ff d5 	bne  3b6c <__GI_memmove+0x330>
    3c1c:	80 8a a0 08 	btst  8, %o2
    3c20:	02 80 00 08 	be  3c40 <__GI_memmove+0x404>
    3c24:	80 8a a0 04 	btst  4, %o2
    3c28:	c4 02 7f f8 	ld  [ %o1 + -8 ], %g2
    3c2c:	c6 02 7f fc 	ld  [ %o1 + -4 ], %g3
    3c30:	92 22 60 08 	sub  %o1, 8, %o1
    3c34:	c4 22 3f f8 	st  %g2, [ %o0 + -8 ]
    3c38:	c6 22 3f fc 	st  %g3, [ %o0 + -4 ]
    3c3c:	90 22 20 08 	sub  %o0, 8, %o0
    3c40:	10 bf ff 8a 	b  3a68 <__GI_memmove+0x22c>
    3c44:	82 10 00 0a 	mov  %o2, %g1
    3c48:	80 a2 a0 0f 	cmp  %o2, 0xf
    3c4c:	08 bf ff c8 	bleu  3b6c <__GI_memmove+0x330>
    3c50:	80 8a 20 03 	btst  3, %o0
    3c54:	02 80 00 11 	be  3c98 <__GI_memmove+0x45c>
    3c58:	80 8a 20 01 	btst  1, %o0
    3c5c:	02 80 00 08 	be  3c7c <__GI_memmove+0x440>
    3c60:	80 8a 20 02 	btst  2, %o0
    3c64:	ca 0a 7f ff 	ldub  [ %o1 + -1 ], %g5
    3c68:	92 22 60 01 	dec  %o1
    3c6c:	ca 2a 3f ff 	stb  %g5, [ %o0 + -1 ]
    3c70:	90 22 20 01 	dec  %o0
    3c74:	02 80 00 09 	be  3c98 <__GI_memmove+0x45c>
    3c78:	94 22 a0 01 	dec  %o2
    3c7c:	ca 0a 7f ff 	ldub  [ %o1 + -1 ], %g5
    3c80:	92 22 60 02 	sub  %o1, 2, %o1
    3c84:	ca 2a 3f ff 	stb  %g5, [ %o0 + -1 ]
    3c88:	90 22 20 02 	sub  %o0, 2, %o0
    3c8c:	ca 0a 40 00 	ldub  [ %o1 ], %g5
    3c90:	94 22 a0 02 	sub  %o2, 2, %o2
    3c94:	ca 2a 00 00 	stb  %g5, [ %o0 ]
    3c98:	84 0a 60 03 	and  %o1, 3, %g2
    3c9c:	92 0a 7f fc 	and  %o1, -4, %o1
    3ca0:	86 0a a0 0c 	and  %o2, 0xc, %g3
    3ca4:	92 02 60 04 	add  %o1, 4, %o1
    3ca8:	80 a0 e0 04 	cmp  %g3, 4
    3cac:	89 28 a0 03 	sll  %g2, 3, %g4
    3cb0:	84 10 20 20 	mov  0x20, %g2
    3cb4:	02 80 00 18 	be  3d14 <__GI_memmove+0x4d8>
    3cb8:	8c 20 80 04 	sub  %g2, %g4, %g6
    3cbc:	0a 80 00 10 	bcs  3cfc <__GI_memmove+0x4c0>
    3cc0:	80 a0 e0 08 	cmp  %g3, 8
    3cc4:	02 80 00 08 	be  3ce4 <__GI_memmove+0x4a8>
    3cc8:	87 32 a0 02 	srl  %o2, 2, %g3
    3ccc:	d6 02 7f fc 	ld  [ %o1 + -4 ], %o3
    3cd0:	90 02 3f f8 	add  %o0, -8, %o0
    3cd4:	d8 02 7f f8 	ld  [ %o1 + -8 ], %o4
    3cd8:	92 02 7f f0 	add  %o1, -16, %o1
    3cdc:	10 80 00 1e 	b  3d54 <__GI_memmove+0x518>
    3ce0:	86 00 e0 01 	inc  %g3
    3ce4:	d8 02 7f fc 	ld  [ %o1 + -4 ], %o4
    3ce8:	90 02 3f fc 	add  %o0, -4, %o0
    3cec:	c2 02 7f f8 	ld  [ %o1 + -8 ], %g1
    3cf0:	92 02 7f f4 	add  %o1, -12, %o1
    3cf4:	10 80 00 1d 	b  3d68 <__GI_memmove+0x52c>
    3cf8:	86 00 e0 02 	add  %g3, 2, %g3
    3cfc:	da 02 7f fc 	ld  [ %o1 + -4 ], %o5
    3d00:	90 02 3f f4 	add  %o0, -12, %o0
    3d04:	d6 02 7f f8 	ld  [ %o1 + -8 ], %o3
    3d08:	92 02 7f ec 	add  %o1, -20, %o1
    3d0c:	10 80 00 0d 	b  3d40 <__GI_memmove+0x504>
    3d10:	87 32 a0 02 	srl  %o2, 2, %g3
    3d14:	c2 02 7f fc 	ld  [ %o1 + -4 ], %g1
    3d18:	87 32 a0 02 	srl  %o2, 2, %g3
    3d1c:	da 02 7f f8 	ld  [ %o1 + -8 ], %o5
    3d20:	92 02 7f e8 	add  %o1, -24, %o1
    3d24:	90 02 3f f0 	add  %o0, -16, %o0
    3d28:	86 00 ff ff 	add  %g3, -1, %g3
    3d2c:	d6 02 60 0c 	ld  [ %o1 + 0xc ], %o3
    3d30:	85 2b 40 04 	sll  %o5, %g4, %g2
    3d34:	8b 30 40 06 	srl  %g1, %g6, %g5
    3d38:	84 10 80 05 	or  %g2, %g5, %g2
    3d3c:	c4 22 20 0c 	st  %g2, [ %o0 + 0xc ]
    3d40:	d8 02 60 08 	ld  [ %o1 + 8 ], %o4
    3d44:	85 2a c0 04 	sll  %o3, %g4, %g2
    3d48:	8b 33 40 06 	srl  %o5, %g6, %g5
    3d4c:	84 10 80 05 	or  %g2, %g5, %g2
    3d50:	c4 22 20 08 	st  %g2, [ %o0 + 8 ]
    3d54:	c2 02 60 04 	ld  [ %o1 + 4 ], %g1
    3d58:	85 2b 00 04 	sll  %o4, %g4, %g2
    3d5c:	8b 32 c0 06 	srl  %o3, %g6, %g5
    3d60:	84 10 80 05 	or  %g2, %g5, %g2
    3d64:	c4 22 20 04 	st  %g2, [ %o0 + 4 ]
    3d68:	da 02 40 00 	ld  [ %o1 ], %o5
    3d6c:	85 28 40 04 	sll  %g1, %g4, %g2
    3d70:	8b 33 00 06 	srl  %o4, %g6, %g5
    3d74:	86 80 ff fc 	addcc  %g3, -4, %g3
    3d78:	84 10 80 05 	or  %g2, %g5, %g2
    3d7c:	92 02 7f f0 	add  %o1, -16, %o1
    3d80:	c4 22 00 00 	st  %g2, [ %o0 ]
    3d84:	90 02 3f f0 	add  %o0, -16, %o0
    3d88:	32 bf ff ea 	bne,a   3d30 <__GI_memmove+0x4f4>
    3d8c:	d6 02 60 0c 	ld  [ %o1 + 0xc ], %o3
    3d90:	85 2b 40 04 	sll  %o5, %g4, %g2
    3d94:	8b 30 40 06 	srl  %g1, %g6, %g5
    3d98:	87 31 20 03 	srl  %g4, 3, %g3
    3d9c:	84 10 80 05 	or  %g2, %g5, %g2
    3da0:	92 02 40 03 	add  %o1, %g3, %o1
    3da4:	80 8a a0 02 	btst  2, %o2
    3da8:	c4 22 20 0c 	st  %g2, [ %o0 + 0xc ]
    3dac:	02 80 00 08 	be  3dcc <__GI_memmove+0x590>
    3db0:	80 8a a0 01 	btst  1, %o2
    3db4:	ca 0a 60 0f 	ldub  [ %o1 + 0xf ], %g5
    3db8:	92 02 7f fe 	add  %o1, -2, %o1
    3dbc:	ca 2a 20 0b 	stb  %g5, [ %o0 + 0xb ]
    3dc0:	90 02 3f fe 	add  %o0, -2, %o0
    3dc4:	ca 0a 60 10 	ldub  [ %o1 + 0x10 ], %g5
    3dc8:	ca 2a 20 0c 	stb  %g5, [ %o0 + 0xc ]
    3dcc:	02 80 00 04 	be  3ddc <__GI_memmove+0x5a0>
    3dd0:	01 00 00 00 	nop 
    3dd4:	ca 0a 60 0f 	ldub  [ %o1 + 0xf ], %g5
    3dd8:	ca 2a 20 0b 	stb  %g5, [ %o0 + 0xb ]
    3ddc:	81 c3 e0 08 	retl 
    3de0:	d0 03 a0 40 	ld  [ %sp + 0x40 ], %o0
    3de4:	80 8a 60 01 	btst  1, %o1
    3de8:	02 80 00 08 	be  3e08 <__GI_memmove+0x5cc>
    3dec:	80 8a 60 02 	btst  2, %o1
    3df0:	c4 0a 40 00 	ldub  [ %o1 ], %g2
    3df4:	92 02 60 01 	inc  %o1
    3df8:	c4 2a 00 00 	stb  %g2, [ %o0 ]
    3dfc:	94 22 a0 01 	dec  %o2
    3e00:	12 80 00 10 	bne  3e40 <__GI_memcpy+0x20>
    3e04:	90 02 20 01 	inc  %o0
    3e08:	c4 12 40 00 	lduh  [ %o1 ], %g2
    3e0c:	92 02 60 02 	add  %o1, 2, %o1
    3e10:	c4 32 00 00 	sth  %g2, [ %o0 ]
    3e14:	94 22 a0 02 	sub  %o2, 2, %o2
    3e18:	10 80 00 0a 	b  3e40 <__GI_memcpy+0x20>
    3e1c:	90 02 20 02 	add  %o0, 2, %o0

00003e20 <__GI_memcpy>:
    3e20:	98 22 00 09 	sub  %o0, %o1, %o4
    3e24:	d0 23 a0 40 	st  %o0, [ %sp + 0x40 ]
    3e28:	9a 8b 20 03 	andcc  %o4, 3, %o5
    3e2c:	12 80 00 f4 	bne  41fc <__GI_memcpy+0x3dc>
    3e30:	80 a2 a0 0f 	cmp  %o2, 0xf
    3e34:	08 80 04 08 	bleu  4e54 <__GI_memcpy+0x1034>
    3e38:	80 8a 60 03 	btst  3, %o1
    3e3c:	12 bf ff ea 	bne  3de4 <__GI_memmove+0x5a8>
    3e40:	80 8a 60 04 	btst  4, %o1
    3e44:	02 80 00 07 	be  3e60 <__GI_memcpy+0x40>
    3e48:	82 10 00 0a 	mov  %o2, %g1
    3e4c:	d8 02 40 00 	ld  [ %o1 ], %o4
    3e50:	82 20 60 04 	sub  %g1, 4, %g1
    3e54:	d8 22 00 00 	st  %o4, [ %o0 ]
    3e58:	92 02 60 04 	add  %o1, 4, %o1
    3e5c:	90 02 20 04 	add  %o0, 4, %o0
    3e60:	8c 88 7f 80 	andcc  %g1, -128, %g6
    3e64:	02 80 00 37 	be  3f40 <__GI_memcpy+0x120>
    3e68:	80 8a 20 04 	btst  4, %o0
    3e6c:	02 80 00 84 	be  407c <__GI_memcpy+0x25c>
    3e70:	d4 1a 60 00 	ldd  [ %o1 ], %o2
    3e74:	d8 1a 60 08 	ldd  [ %o1 + 8 ], %o4
    3e78:	c4 1a 60 10 	ldd  [ %o1 + 0x10 ], %g2
    3e7c:	c8 1a 60 18 	ldd  [ %o1 + 0x18 ], %g4
    3e80:	d4 22 20 00 	st  %o2, [ %o0 ]
    3e84:	d6 22 20 04 	st  %o3, [ %o0 + 4 ]
    3e88:	d8 22 20 08 	st  %o4, [ %o0 + 8 ]
    3e8c:	da 22 20 0c 	st  %o5, [ %o0 + 0xc ]
    3e90:	c4 22 20 10 	st  %g2, [ %o0 + 0x10 ]
    3e94:	c6 22 20 14 	st  %g3, [ %o0 + 0x14 ]
    3e98:	c8 22 20 18 	st  %g4, [ %o0 + 0x18 ]
    3e9c:	ca 22 20 1c 	st  %g5, [ %o0 + 0x1c ]
    3ea0:	d4 1a 60 20 	ldd  [ %o1 + 0x20 ], %o2
    3ea4:	d8 1a 60 28 	ldd  [ %o1 + 0x28 ], %o4
    3ea8:	c4 1a 60 30 	ldd  [ %o1 + 0x30 ], %g2
    3eac:	c8 1a 60 38 	ldd  [ %o1 + 0x38 ], %g4
    3eb0:	d4 22 20 20 	st  %o2, [ %o0 + 0x20 ]
    3eb4:	d6 22 20 24 	st  %o3, [ %o0 + 0x24 ]
    3eb8:	d8 22 20 28 	st  %o4, [ %o0 + 0x28 ]
    3ebc:	da 22 20 2c 	st  %o5, [ %o0 + 0x2c ]
    3ec0:	c4 22 20 30 	st  %g2, [ %o0 + 0x30 ]
    3ec4:	c6 22 20 34 	st  %g3, [ %o0 + 0x34 ]
    3ec8:	c8 22 20 38 	st  %g4, [ %o0 + 0x38 ]
    3ecc:	ca 22 20 3c 	st  %g5, [ %o0 + 0x3c ]
    3ed0:	d4 1a 60 40 	ldd  [ %o1 + 0x40 ], %o2
    3ed4:	d8 1a 60 48 	ldd  [ %o1 + 0x48 ], %o4
    3ed8:	c4 1a 60 50 	ldd  [ %o1 + 0x50 ], %g2
    3edc:	c8 1a 60 58 	ldd  [ %o1 + 0x58 ], %g4
    3ee0:	d4 22 20 40 	st  %o2, [ %o0 + 0x40 ]
    3ee4:	d6 22 20 44 	st  %o3, [ %o0 + 0x44 ]
    3ee8:	d8 22 20 48 	st  %o4, [ %o0 + 0x48 ]
    3eec:	da 22 20 4c 	st  %o5, [ %o0 + 0x4c ]
    3ef0:	c4 22 20 50 	st  %g2, [ %o0 + 0x50 ]
    3ef4:	c6 22 20 54 	st  %g3, [ %o0 + 0x54 ]
    3ef8:	c8 22 20 58 	st  %g4, [ %o0 + 0x58 ]
    3efc:	ca 22 20 5c 	st  %g5, [ %o0 + 0x5c ]
    3f00:	d4 1a 60 60 	ldd  [ %o1 + 0x60 ], %o2
    3f04:	d8 1a 60 68 	ldd  [ %o1 + 0x68 ], %o4
    3f08:	c4 1a 60 70 	ldd  [ %o1 + 0x70 ], %g2
    3f0c:	c8 1a 60 78 	ldd  [ %o1 + 0x78 ], %g4
    3f10:	d4 22 20 60 	st  %o2, [ %o0 + 0x60 ]
    3f14:	d6 22 20 64 	st  %o3, [ %o0 + 0x64 ]
    3f18:	d8 22 20 68 	st  %o4, [ %o0 + 0x68 ]
    3f1c:	da 22 20 6c 	st  %o5, [ %o0 + 0x6c ]
    3f20:	c4 22 20 70 	st  %g2, [ %o0 + 0x70 ]
    3f24:	c6 22 20 74 	st  %g3, [ %o0 + 0x74 ]
    3f28:	c8 22 20 78 	st  %g4, [ %o0 + 0x78 ]
    3f2c:	ca 22 20 7c 	st  %g5, [ %o0 + 0x7c ]
    3f30:	8c a1 a0 80 	subcc  %g6, 0x80, %g6
    3f34:	92 02 60 80 	add  %o1, 0x80, %o1
    3f38:	12 bf ff ce 	bne  3e70 <__GI_memcpy+0x50>
    3f3c:	90 02 20 80 	add  %o0, 0x80, %o0
    3f40:	8c 88 60 70 	andcc  %g1, 0x70, %g6
    3f44:	02 80 00 34 	be  4014 <__GI_memcpy+0x1f4>
    3f48:	80 88 60 08 	btst  8, %g1
    3f4c:	99 31 a0 01 	srl  %g6, 1, %o4
    3f50:	84 10 00 0f 	mov  %o7, %g2
    3f54:	98 01 80 0c 	add  %g6, %o4, %o4
    3f58:	92 02 40 06 	add  %o1, %g6, %o1
    3f5c:	40 00 03 ca 	call  4e84 <__GI_memcpy+0x1064>
    3f60:	90 02 00 06 	add  %o0, %g6, %o0
    3f64:	81 c3 60 b8 	jmp  %o5 + 0xb8
    3f68:	9e 10 00 02 	mov  %g2, %o7
    3f6c:	c4 1a 7f 90 	ldd  [ %o1 + -112 ], %g2
    3f70:	c8 1a 7f 98 	ldd  [ %o1 + -104 ], %g4
    3f74:	c4 22 3f 90 	st  %g2, [ %o0 + -112 ]
    3f78:	c6 22 3f 94 	st  %g3, [ %o0 + -108 ]
    3f7c:	c8 22 3f 98 	st  %g4, [ %o0 + -104 ]
    3f80:	ca 22 3f 9c 	st  %g5, [ %o0 + -100 ]
    3f84:	c4 1a 7f a0 	ldd  [ %o1 + -96 ], %g2
    3f88:	c8 1a 7f a8 	ldd  [ %o1 + -88 ], %g4
    3f8c:	c4 22 3f a0 	st  %g2, [ %o0 + -96 ]
    3f90:	c6 22 3f a4 	st  %g3, [ %o0 + -92 ]
    3f94:	c8 22 3f a8 	st  %g4, [ %o0 + -88 ]
    3f98:	ca 22 3f ac 	st  %g5, [ %o0 + -84 ]
    3f9c:	c4 1a 7f b0 	ldd  [ %o1 + -80 ], %g2
    3fa0:	c8 1a 7f b8 	ldd  [ %o1 + -72 ], %g4
    3fa4:	c4 22 3f b0 	st  %g2, [ %o0 + -80 ]
    3fa8:	c6 22 3f b4 	st  %g3, [ %o0 + -76 ]
    3fac:	c8 22 3f b8 	st  %g4, [ %o0 + -72 ]
    3fb0:	ca 22 3f bc 	st  %g5, [ %o0 + -68 ]
    3fb4:	c4 1a 7f c0 	ldd  [ %o1 + -64 ], %g2
    3fb8:	c8 1a 7f c8 	ldd  [ %o1 + -56 ], %g4
    3fbc:	c4 22 3f c0 	st  %g2, [ %o0 + -64 ]
    3fc0:	c6 22 3f c4 	st  %g3, [ %o0 + -60 ]
    3fc4:	c8 22 3f c8 	st  %g4, [ %o0 + -56 ]
    3fc8:	ca 22 3f cc 	st  %g5, [ %o0 + -52 ]
    3fcc:	c4 1a 7f d0 	ldd  [ %o1 + -48 ], %g2
    3fd0:	c8 1a 7f d8 	ldd  [ %o1 + -40 ], %g4
    3fd4:	c4 22 3f d0 	st  %g2, [ %o0 + -48 ]
    3fd8:	c6 22 3f d4 	st  %g3, [ %o0 + -44 ]
    3fdc:	c8 22 3f d8 	st  %g4, [ %o0 + -40 ]
    3fe0:	ca 22 3f dc 	st  %g5, [ %o0 + -36 ]
    3fe4:	c4 1a 7f e0 	ldd  [ %o1 + -32 ], %g2
    3fe8:	c8 1a 7f e8 	ldd  [ %o1 + -24 ], %g4
    3fec:	c4 22 3f e0 	st  %g2, [ %o0 + -32 ]
    3ff0:	c6 22 3f e4 	st  %g3, [ %o0 + -28 ]
    3ff4:	c8 22 3f e8 	st  %g4, [ %o0 + -24 ]
    3ff8:	ca 22 3f ec 	st  %g5, [ %o0 + -20 ]
    3ffc:	c4 1a 7f f0 	ldd  [ %o1 + -16 ], %g2
    4000:	c8 1a 7f f8 	ldd  [ %o1 + -8 ], %g4
    4004:	c4 22 3f f0 	st  %g2, [ %o0 + -16 ]
    4008:	c6 22 3f f4 	st  %g3, [ %o0 + -12 ]
    400c:	c8 22 3f f8 	st  %g4, [ %o0 + -8 ]
    4010:	ca 22 3f fc 	st  %g5, [ %o0 + -4 ]
    4014:	02 80 00 07 	be  4030 <__GI_memcpy+0x210>
    4018:	80 88 60 04 	btst  4, %g1
    401c:	c4 1a 40 00 	ldd  [ %o1 ], %g2
    4020:	90 02 20 08 	add  %o0, 8, %o0
    4024:	c4 22 3f f8 	st  %g2, [ %o0 + -8 ]
    4028:	92 02 60 08 	add  %o1, 8, %o1
    402c:	c6 22 3f fc 	st  %g3, [ %o0 + -4 ]
    4030:	02 80 00 06 	be  4048 <__GI_memcpy+0x228>
    4034:	80 88 60 02 	btst  2, %g1
    4038:	c4 02 40 00 	ld  [ %o1 ], %g2
    403c:	92 02 60 04 	add  %o1, 4, %o1
    4040:	c4 22 00 00 	st  %g2, [ %o0 ]
    4044:	90 02 20 04 	add  %o0, 4, %o0
    4048:	02 80 00 06 	be  4060 <__GI_memcpy+0x240>
    404c:	80 88 60 01 	btst  1, %g1
    4050:	c4 12 40 00 	lduh  [ %o1 ], %g2
    4054:	92 02 60 02 	add  %o1, 2, %o1
    4058:	c4 32 00 00 	sth  %g2, [ %o0 ]
    405c:	90 02 20 02 	add  %o0, 2, %o0
    4060:	02 80 00 04 	be  4070 <__GI_memcpy+0x250>
    4064:	01 00 00 00 	nop 
    4068:	c4 0a 40 00 	ldub  [ %o1 ], %g2
    406c:	c4 2a 00 00 	stb  %g2, [ %o0 ]
    4070:	81 c3 e0 08 	retl 
    4074:	d0 03 a0 40 	ld  [ %sp + 0x40 ], %o0
    4078:	d4 1a 60 00 	ldd  [ %o1 ], %o2
    407c:	d8 1a 60 08 	ldd  [ %o1 + 8 ], %o4
    4080:	c4 1a 60 10 	ldd  [ %o1 + 0x10 ], %g2
    4084:	c8 1a 60 18 	ldd  [ %o1 + 0x18 ], %g4
    4088:	d4 3a 20 00 	std  %o2, [ %o0 ]
    408c:	d8 3a 20 08 	std  %o4, [ %o0 + 8 ]
    4090:	c4 3a 20 10 	std  %g2, [ %o0 + 0x10 ]
    4094:	c8 3a 20 18 	std  %g4, [ %o0 + 0x18 ]
    4098:	d4 1a 60 20 	ldd  [ %o1 + 0x20 ], %o2
    409c:	d8 1a 60 28 	ldd  [ %o1 + 0x28 ], %o4
    40a0:	c4 1a 60 30 	ldd  [ %o1 + 0x30 ], %g2
    40a4:	c8 1a 60 38 	ldd  [ %o1 + 0x38 ], %g4
    40a8:	d4 3a 20 20 	std  %o2, [ %o0 + 0x20 ]
    40ac:	d8 3a 20 28 	std  %o4, [ %o0 + 0x28 ]
    40b0:	c4 3a 20 30 	std  %g2, [ %o0 + 0x30 ]
    40b4:	c8 3a 20 38 	std  %g4, [ %o0 + 0x38 ]
    40b8:	d4 1a 60 40 	ldd  [ %o1 + 0x40 ], %o2
    40bc:	d8 1a 60 48 	ldd  [ %o1 + 0x48 ], %o4
    40c0:	c4 1a 60 50 	ldd  [ %o1 + 0x50 ], %g2
    40c4:	c8 1a 60 58 	ldd  [ %o1 + 0x58 ], %g4
    40c8:	d4 3a 20 40 	std  %o2, [ %o0 + 0x40 ]
    40cc:	d8 3a 20 48 	std  %o4, [ %o0 + 0x48 ]
    40d0:	c4 3a 20 50 	std  %g2, [ %o0 + 0x50 ]
    40d4:	c8 3a 20 58 	std  %g4, [ %o0 + 0x58 ]
    40d8:	d4 1a 60 60 	ldd  [ %o1 + 0x60 ], %o2
    40dc:	d8 1a 60 68 	ldd  [ %o1 + 0x68 ], %o4
    40e0:	c4 1a 60 70 	ldd  [ %o1 + 0x70 ], %g2
    40e4:	c8 1a 60 78 	ldd  [ %o1 + 0x78 ], %g4
    40e8:	d4 3a 20 60 	std  %o2, [ %o0 + 0x60 ]
    40ec:	d8 3a 20 68 	std  %o4, [ %o0 + 0x68 ]
    40f0:	c4 3a 20 70 	std  %g2, [ %o0 + 0x70 ]
    40f4:	c8 3a 20 78 	std  %g4, [ %o0 + 0x78 ]
    40f8:	8c a1 a0 80 	subcc  %g6, 0x80, %g6
    40fc:	92 02 60 80 	add  %o1, 0x80, %o1
    4100:	12 bf ff de 	bne  4078 <__GI_memcpy+0x258>
    4104:	90 02 20 80 	add  %o0, 0x80, %o0
    4108:	8c 88 60 70 	andcc  %g1, 0x70, %g6
    410c:	02 80 00 24 	be  419c <__GI_memcpy+0x37c>
    4110:	80 88 60 08 	btst  8, %g1
    4114:	84 10 00 0f 	mov  %o7, %g2
    4118:	40 00 03 5d 	call  4e8c <__GI_memcpy+0x106c>
    411c:	92 02 40 06 	add  %o1, %g6, %o1
    4120:	9e 10 00 02 	mov  %g2, %o7
    4124:	81 c3 60 84 	jmp  %o5 + 0x84
    4128:	90 02 00 06 	add  %o0, %g6, %o0
    412c:	c4 1a 7f 90 	ldd  [ %o1 + -112 ], %g2
    4130:	c8 1a 7f 98 	ldd  [ %o1 + -104 ], %g4
    4134:	c4 3a 3f 90 	std  %g2, [ %o0 + -112 ]
    4138:	c8 3a 3f 98 	std  %g4, [ %o0 + -104 ]
    413c:	c4 1a 7f a0 	ldd  [ %o1 + -96 ], %g2
    4140:	c8 1a 7f a8 	ldd  [ %o1 + -88 ], %g4
    4144:	c4 3a 3f a0 	std  %g2, [ %o0 + -96 ]
    4148:	c8 3a 3f a8 	std  %g4, [ %o0 + -88 ]
    414c:	c4 1a 7f b0 	ldd  [ %o1 + -80 ], %g2
    4150:	c8 1a 7f b8 	ldd  [ %o1 + -72 ], %g4
    4154:	c4 3a 3f b0 	std  %g2, [ %o0 + -80 ]
    4158:	c8 3a 3f b8 	std  %g4, [ %o0 + -72 ]
    415c:	c4 1a 7f c0 	ldd  [ %o1 + -64 ], %g2
    4160:	c8 1a 7f c8 	ldd  [ %o1 + -56 ], %g4
    4164:	c4 3a 3f c0 	std  %g2, [ %o0 + -64 ]
    4168:	c8 3a 3f c8 	std  %g4, [ %o0 + -56 ]
    416c:	c4 1a 7f d0 	ldd  [ %o1 + -48 ], %g2
    4170:	c8 1a 7f d8 	ldd  [ %o1 + -40 ], %g4
    4174:	c4 3a 3f d0 	std  %g2, [ %o0 + -48 ]
    4178:	c8 3a 3f d8 	std  %g4, [ %o0 + -40 ]
    417c:	c4 1a 7f e0 	ldd  [ %o1 + -32 ], %g2
    4180:	c8 1a 7f e8 	ldd  [ %o1 + -24 ], %g4
    4184:	c4 3a 3f e0 	std  %g2, [ %o0 + -32 ]
    4188:	c8 3a 3f e8 	std  %g4, [ %o0 + -24 ]
    418c:	c4 1a 7f f0 	ldd  [ %o1 + -16 ], %g2
    4190:	c8 1a 7f f8 	ldd  [ %o1 + -8 ], %g4
    4194:	c4 3a 3f f0 	std  %g2, [ %o0 + -16 ]
    4198:	c8 3a 3f f8 	std  %g4, [ %o0 + -8 ]
    419c:	02 80 00 06 	be  41b4 <__GI_memcpy+0x394>
    41a0:	80 88 60 04 	btst  4, %g1
    41a4:	c4 1a 40 00 	ldd  [ %o1 ], %g2
    41a8:	90 02 20 08 	add  %o0, 8, %o0
    41ac:	c4 3a 3f f8 	std  %g2, [ %o0 + -8 ]
    41b0:	92 02 60 08 	add  %o1, 8, %o1
    41b4:	02 80 00 06 	be  41cc <__GI_memcpy+0x3ac>
    41b8:	80 88 60 02 	btst  2, %g1
    41bc:	c4 02 40 00 	ld  [ %o1 ], %g2
    41c0:	92 02 60 04 	add  %o1, 4, %o1
    41c4:	c4 22 00 00 	st  %g2, [ %o0 ]
    41c8:	90 02 20 04 	add  %o0, 4, %o0
    41cc:	02 80 00 06 	be  41e4 <__GI_memcpy+0x3c4>
    41d0:	80 88 60 01 	btst  1, %g1
    41d4:	c4 12 40 00 	lduh  [ %o1 ], %g2
    41d8:	92 02 60 02 	add  %o1, 2, %o1
    41dc:	c4 32 00 00 	sth  %g2, [ %o0 ]
    41e0:	90 02 20 02 	add  %o0, 2, %o0
    41e4:	02 80 00 04 	be  41f4 <__GI_memcpy+0x3d4>
    41e8:	01 00 00 00 	nop 
    41ec:	c4 0a 40 00 	ldub  [ %o1 ], %g2
    41f0:	c4 2a 00 00 	stb  %g2, [ %o0 ]
    41f4:	81 c3 e0 08 	retl 
    41f8:	d0 03 a0 40 	ld  [ %sp + 0x40 ], %o0
    41fc:	80 a2 a0 06 	cmp  %o2, 6
    4200:	08 80 02 ea 	bleu  4da8 <__GI_memcpy+0xf88>
    4204:	80 a2 a1 00 	cmp  %o2, 0x100
    4208:	1a 80 00 65 	bcc  439c <__GI_memcpy+0x57c>
    420c:	80 8a 20 03 	btst  3, %o0
    4210:	02 80 00 11 	be  4254 <__GI_memcpy+0x434>
    4214:	80 8a 20 01 	btst  1, %o0
    4218:	02 80 00 08 	be  4238 <__GI_memcpy+0x418>
    421c:	80 8a 20 02 	btst  2, %o0
    4220:	ca 0a 40 00 	ldub  [ %o1 ], %g5
    4224:	92 02 60 01 	inc  %o1
    4228:	ca 2a 00 00 	stb  %g5, [ %o0 ]
    422c:	94 22 a0 01 	dec  %o2
    4230:	12 80 00 09 	bne  4254 <__GI_memcpy+0x434>
    4234:	90 02 20 01 	inc  %o0
    4238:	c6 0a 40 00 	ldub  [ %o1 ], %g3
    423c:	92 02 60 02 	add  %o1, 2, %o1
    4240:	c6 2a 00 00 	stb  %g3, [ %o0 ]
    4244:	94 22 a0 02 	sub  %o2, 2, %o2
    4248:	c6 0a 7f ff 	ldub  [ %o1 + -1 ], %g3
    424c:	90 02 20 02 	add  %o0, 2, %o0
    4250:	c6 2a 3f ff 	stb  %g3, [ %o0 + -1 ]
    4254:	84 0a 60 03 	and  %o1, 3, %g2
    4258:	86 0a a0 0c 	and  %o2, 0xc, %g3
    425c:	92 0a 7f fc 	and  %o1, -4, %o1
    4260:	80 a0 e0 04 	cmp  %g3, 4
    4264:	89 28 a0 03 	sll  %g2, 3, %g4
    4268:	84 10 20 20 	mov  0x20, %g2
    426c:	02 80 00 17 	be  42c8 <__GI_memcpy+0x4a8>
    4270:	8c 20 80 04 	sub  %g2, %g4, %g6
    4274:	0a 80 00 0f 	bcs  42b0 <__GI_memcpy+0x490>
    4278:	80 a0 e0 08 	cmp  %g3, 8
    427c:	02 80 00 07 	be  4298 <__GI_memcpy+0x478>
    4280:	87 32 a0 02 	srl  %o2, 2, %g3
    4284:	d6 02 40 00 	ld  [ %o1 ], %o3
    4288:	90 02 3f f8 	add  %o0, -8, %o0
    428c:	d8 02 60 04 	ld  [ %o1 + 4 ], %o4
    4290:	10 80 00 1f 	b  430c <__GI_memcpy+0x4ec>
    4294:	86 00 e0 01 	inc  %g3
    4298:	d8 02 40 00 	ld  [ %o1 ], %o4
    429c:	90 02 3f f4 	add  %o0, -12, %o0
    42a0:	da 02 60 04 	ld  [ %o1 + 4 ], %o5
    42a4:	86 00 e0 02 	add  %g3, 2, %g3
    42a8:	10 80 00 1e 	b  4320 <__GI_memcpy+0x500>
    42ac:	92 02 7f fc 	add  %o1, -4, %o1
    42b0:	c2 02 40 00 	ld  [ %o1 ], %g1
    42b4:	90 02 3f fc 	add  %o0, -4, %o0
    42b8:	d6 02 60 04 	ld  [ %o1 + 4 ], %o3
    42bc:	87 32 a0 02 	srl  %o2, 2, %g3
    42c0:	10 80 00 0e 	b  42f8 <__GI_memcpy+0x4d8>
    42c4:	92 02 60 04 	add  %o1, 4, %o1
    42c8:	da 02 40 00 	ld  [ %o1 ], %o5
    42cc:	80 a2 a0 07 	cmp  %o2, 7
    42d0:	c2 02 60 04 	ld  [ %o1 + 4 ], %g1
    42d4:	87 32 a0 02 	srl  %o2, 2, %g3
    42d8:	08 80 00 1c 	bleu  4348 <__GI_memcpy+0x528>
    42dc:	92 02 60 08 	add  %o1, 8, %o1
    42e0:	d6 02 40 00 	ld  [ %o1 ], %o3
    42e4:	86 00 ff ff 	add  %g3, -1, %g3
    42e8:	85 2b 40 04 	sll  %o5, %g4, %g2
    42ec:	8b 30 40 06 	srl  %g1, %g6, %g5
    42f0:	84 10 80 05 	or  %g2, %g5, %g2
    42f4:	c4 22 00 00 	st  %g2, [ %o0 ]
    42f8:	d8 02 60 04 	ld  [ %o1 + 4 ], %o4
    42fc:	85 28 40 04 	sll  %g1, %g4, %g2
    4300:	8b 32 c0 06 	srl  %o3, %g6, %g5
    4304:	84 10 80 05 	or  %g2, %g5, %g2
    4308:	c4 22 20 04 	st  %g2, [ %o0 + 4 ]
    430c:	da 02 60 08 	ld  [ %o1 + 8 ], %o5
    4310:	85 2a c0 04 	sll  %o3, %g4, %g2
    4314:	8b 33 00 06 	srl  %o4, %g6, %g5
    4318:	84 10 80 05 	or  %g2, %g5, %g2
    431c:	c4 22 20 08 	st  %g2, [ %o0 + 8 ]
    4320:	c2 02 60 0c 	ld  [ %o1 + 0xc ], %g1
    4324:	85 2b 00 04 	sll  %o4, %g4, %g2
    4328:	8b 33 40 06 	srl  %o5, %g6, %g5
    432c:	86 80 ff fc 	addcc  %g3, -4, %g3
    4330:	84 10 80 05 	or  %g2, %g5, %g2
    4334:	92 02 60 10 	add  %o1, 0x10, %o1
    4338:	c4 22 20 0c 	st  %g2, [ %o0 + 0xc ]
    433c:	90 02 20 10 	add  %o0, 0x10, %o0
    4340:	32 bf ff ea 	bne,a   42e8 <__GI_memcpy+0x4c8>
    4344:	d6 02 40 00 	ld  [ %o1 ], %o3
    4348:	85 2b 40 04 	sll  %o5, %g4, %g2
    434c:	8b 30 40 06 	srl  %g1, %g6, %g5
    4350:	87 31 a0 03 	srl  %g6, 3, %g3
    4354:	84 10 80 05 	or  %g2, %g5, %g2
    4358:	92 22 40 03 	sub  %o1, %g3, %o1
    435c:	80 8a a0 02 	btst  2, %o2
    4360:	c4 22 00 00 	st  %g2, [ %o0 ]
    4364:	02 80 00 08 	be  4384 <__GI_memcpy+0x564>
    4368:	80 8a a0 01 	btst  1, %o2
    436c:	c4 0a 40 00 	ldub  [ %o1 ], %g2
    4370:	92 02 60 02 	add  %o1, 2, %o1
    4374:	c4 2a 20 04 	stb  %g2, [ %o0 + 4 ]
    4378:	90 02 20 02 	add  %o0, 2, %o0
    437c:	c4 0a 7f ff 	ldub  [ %o1 + -1 ], %g2
    4380:	c4 2a 20 03 	stb  %g2, [ %o0 + 3 ]
    4384:	02 80 00 04 	be  4394 <__GI_memcpy+0x574>
    4388:	01 00 00 00 	nop 
    438c:	c4 0a 40 00 	ldub  [ %o1 ], %g2
    4390:	c4 2a 20 04 	stb  %g2, [ %o0 + 4 ]
    4394:	81 c3 e0 08 	retl 
    4398:	d0 03 a0 40 	ld  [ %sp + 0x40 ], %o0
    439c:	80 8a 60 03 	btst  3, %o1
    43a0:	02 80 00 11 	be  43e4 <__GI_memcpy+0x5c4>
    43a4:	80 8a 60 01 	btst  1, %o1
    43a8:	02 80 00 08 	be  43c8 <__GI_memcpy+0x5a8>
    43ac:	80 8a 60 02 	btst  2, %o1
    43b0:	c4 0a 40 00 	ldub  [ %o1 ], %g2
    43b4:	92 02 60 01 	inc  %o1
    43b8:	c4 2a 00 00 	stb  %g2, [ %o0 ]
    43bc:	94 22 a0 01 	dec  %o2
    43c0:	12 80 00 09 	bne  43e4 <__GI_memcpy+0x5c4>
    43c4:	90 02 20 01 	inc  %o0
    43c8:	c4 12 40 00 	lduh  [ %o1 ], %g2
    43cc:	92 02 60 02 	add  %o1, 2, %o1
    43d0:	87 30 a0 08 	srl  %g2, 8, %g3
    43d4:	94 22 a0 02 	sub  %o2, 2, %o2
    43d8:	c6 2a 00 00 	stb  %g3, [ %o0 ]
    43dc:	90 02 20 02 	add  %o0, 2, %o0
    43e0:	c4 2a 3f ff 	stb  %g2, [ %o0 + -1 ]
    43e4:	80 8a 60 04 	btst  4, %o1
    43e8:	12 80 00 0d 	bne  441c <__GI_memcpy+0x5fc>
    43ec:	80 a3 60 01 	cmp  %o5, 1
    43f0:	d8 02 40 00 	ld  [ %o1 ], %o4
    43f4:	85 33 20 18 	srl  %o4, 0x18, %g2
    43f8:	c4 2a 00 00 	stb  %g2, [ %o0 ]
    43fc:	87 33 20 10 	srl  %o4, 0x10, %g3
    4400:	c6 2a 20 01 	stb  %g3, [ %o0 + 1 ]
    4404:	85 33 20 08 	srl  %o4, 8, %g2
    4408:	c4 2a 20 02 	stb  %g2, [ %o0 + 2 ]
    440c:	94 22 a0 04 	sub  %o2, 4, %o2
    4410:	d8 2a 20 03 	stb  %o4, [ %o0 + 3 ]
    4414:	92 02 60 04 	add  %o1, 4, %o1
    4418:	90 02 20 04 	add  %o0, 4, %o0
    441c:	02 80 00 da 	be  4784 <__GI_memcpy+0x964>
    4420:	80 a3 60 02 	cmp  %o5, 2
    4424:	02 80 00 6e 	be  45dc <__GI_memcpy+0x7bc>
    4428:	94 22 a0 04 	sub  %o2, 4, %o2
    442c:	c4 02 40 00 	ld  [ %o1 ], %g2
    4430:	92 02 60 04 	add  %o1, 4, %o1
    4434:	87 30 a0 18 	srl  %g2, 0x18, %g3
    4438:	8a 0a 20 07 	and  %o0, 7, %g5
    443c:	c6 2a 00 00 	stb  %g3, [ %o0 ]
    4440:	80 a1 60 07 	cmp  %g5, 7
    4444:	83 28 a0 08 	sll  %g2, 8, %g1
    4448:	90 02 20 04 	add  %o0, 4, %o0
    444c:	02 80 01 3b 	be  4938 <__GI_memcpy+0xb18>
    4450:	96 0a bf c0 	and  %o2, -64, %o3
    4454:	d8 02 3f f9 	ld  [ %o0 + -7 ], %o4
    4458:	c4 1a 60 00 	ldd  [ %o1 ], %g2
    445c:	c8 1a 60 08 	ldd  [ %o1 + 8 ], %g4
    4460:	9b 30 a0 18 	srl  %g2, 0x18, %o5
    4464:	8d 30 e0 18 	srl  %g3, 0x18, %g6
    4468:	85 28 a0 08 	sll  %g2, 8, %g2
    446c:	9a 13 40 01 	or  %o5, %g1, %o5
    4470:	83 28 e0 08 	sll  %g3, 8, %g1
    4474:	84 11 80 02 	or  %g6, %g2, %g2
    4478:	87 31 20 18 	srl  %g4, 0x18, %g3
    447c:	8d 31 60 18 	srl  %g5, 0x18, %g6
    4480:	89 29 20 08 	sll  %g4, 8, %g4
    4484:	86 10 c0 01 	or  %g3, %g1, %g3
    4488:	d8 3a 3f f9 	std  %o4, [ %o0 + -7 ]
    448c:	c4 3a 20 01 	std  %g2, [ %o0 + 1 ]
    4490:	83 29 60 08 	sll  %g5, 8, %g1
    4494:	98 11 80 04 	or  %g6, %g4, %o4
    4498:	c4 1a 60 10 	ldd  [ %o1 + 0x10 ], %g2
    449c:	c8 1a 60 18 	ldd  [ %o1 + 0x18 ], %g4
    44a0:	9b 30 a0 18 	srl  %g2, 0x18, %o5
    44a4:	8d 30 e0 18 	srl  %g3, 0x18, %g6
    44a8:	85 28 a0 08 	sll  %g2, 8, %g2
    44ac:	9a 13 40 01 	or  %o5, %g1, %o5
    44b0:	83 28 e0 08 	sll  %g3, 8, %g1
    44b4:	84 11 80 02 	or  %g6, %g2, %g2
    44b8:	87 31 20 18 	srl  %g4, 0x18, %g3
    44bc:	8d 31 60 18 	srl  %g5, 0x18, %g6
    44c0:	89 29 20 08 	sll  %g4, 8, %g4
    44c4:	86 10 c0 01 	or  %g3, %g1, %g3
    44c8:	d8 3a 20 09 	std  %o4, [ %o0 + 9 ]
    44cc:	c4 3a 20 11 	std  %g2, [ %o0 + 0x11 ]
    44d0:	83 29 60 08 	sll  %g5, 8, %g1
    44d4:	98 11 80 04 	or  %g6, %g4, %o4
    44d8:	c4 1a 60 20 	ldd  [ %o1 + 0x20 ], %g2
    44dc:	c8 1a 60 28 	ldd  [ %o1 + 0x28 ], %g4
    44e0:	9b 30 a0 18 	srl  %g2, 0x18, %o5
    44e4:	8d 30 e0 18 	srl  %g3, 0x18, %g6
    44e8:	85 28 a0 08 	sll  %g2, 8, %g2
    44ec:	9a 13 40 01 	or  %o5, %g1, %o5
    44f0:	83 28 e0 08 	sll  %g3, 8, %g1
    44f4:	84 11 80 02 	or  %g6, %g2, %g2
    44f8:	87 31 20 18 	srl  %g4, 0x18, %g3
    44fc:	8d 31 60 18 	srl  %g5, 0x18, %g6
    4500:	89 29 20 08 	sll  %g4, 8, %g4
    4504:	86 10 c0 01 	or  %g3, %g1, %g3
    4508:	d8 3a 20 19 	std  %o4, [ %o0 + 0x19 ]
    450c:	c4 3a 20 21 	std  %g2, [ %o0 + 0x21 ]
    4510:	83 29 60 08 	sll  %g5, 8, %g1
    4514:	98 11 80 04 	or  %g6, %g4, %o4
    4518:	c4 1a 60 30 	ldd  [ %o1 + 0x30 ], %g2
    451c:	c8 1a 60 38 	ldd  [ %o1 + 0x38 ], %g4
    4520:	9b 30 a0 18 	srl  %g2, 0x18, %o5
    4524:	8d 30 e0 18 	srl  %g3, 0x18, %g6
    4528:	85 28 a0 08 	sll  %g2, 8, %g2
    452c:	9a 13 40 01 	or  %o5, %g1, %o5
    4530:	83 28 e0 08 	sll  %g3, 8, %g1
    4534:	84 11 80 02 	or  %g6, %g2, %g2
    4538:	87 31 20 18 	srl  %g4, 0x18, %g3
    453c:	8d 31 60 18 	srl  %g5, 0x18, %g6
    4540:	89 29 20 08 	sll  %g4, 8, %g4
    4544:	86 10 c0 01 	or  %g3, %g1, %g3
    4548:	d8 3a 20 29 	std  %o4, [ %o0 + 0x29 ]
    454c:	c4 3a 20 31 	std  %g2, [ %o0 + 0x31 ]
    4550:	83 29 60 08 	sll  %g5, 8, %g1
    4554:	98 11 80 04 	or  %g6, %g4, %o4
    4558:	96 a2 e0 40 	subcc  %o3, 0x40, %o3
    455c:	92 02 60 40 	add  %o1, 0x40, %o1
    4560:	12 bf ff be 	bne  4458 <__GI_memcpy+0x638>
    4564:	90 02 20 40 	add  %o0, 0x40, %o0
    4568:	96 8a a0 30 	andcc  %o2, 0x30, %o3
    456c:	22 80 00 17 	be,a   45c8 <__GI_memcpy+0x7a8>
    4570:	85 30 60 10 	srl  %g1, 0x10, %g2
    4574:	c4 1a 60 00 	ldd  [ %o1 ], %g2
    4578:	c8 1a 60 08 	ldd  [ %o1 + 8 ], %g4
    457c:	9b 30 a0 18 	srl  %g2, 0x18, %o5
    4580:	8d 30 e0 18 	srl  %g3, 0x18, %g6
    4584:	85 28 a0 08 	sll  %g2, 8, %g2
    4588:	9a 13 40 01 	or  %o5, %g1, %o5
    458c:	83 28 e0 08 	sll  %g3, 8, %g1
    4590:	84 11 80 02 	or  %g6, %g2, %g2
    4594:	87 31 20 18 	srl  %g4, 0x18, %g3
    4598:	8d 31 60 18 	srl  %g5, 0x18, %g6
    459c:	89 29 20 08 	sll  %g4, 8, %g4
    45a0:	86 10 c0 01 	or  %g3, %g1, %g3
    45a4:	d8 3a 3f f9 	std  %o4, [ %o0 + -7 ]
    45a8:	c4 3a 20 01 	std  %g2, [ %o0 + 1 ]
    45ac:	83 29 60 08 	sll  %g5, 8, %g1
    45b0:	98 11 80 04 	or  %g6, %g4, %o4
    45b4:	96 a2 e0 10 	subcc  %o3, 0x10, %o3
    45b8:	92 02 60 10 	add  %o1, 0x10, %o1
    45bc:	12 bf ff ee 	bne  4574 <__GI_memcpy+0x754>
    45c0:	90 02 20 10 	add  %o0, 0x10, %o0
    45c4:	85 30 60 10 	srl  %g1, 0x10, %g2
    45c8:	d8 22 3f f9 	st  %o4, [ %o0 + -7 ]
    45cc:	c4 32 3f fd 	sth  %g2, [ %o0 + -3 ]
    45d0:	89 30 60 08 	srl  %g1, 8, %g4
    45d4:	10 80 01 f5 	b  4da8 <__GI_memcpy+0xf88>
    45d8:	c8 2a 3f ff 	stb  %g4, [ %o0 + -1 ]
    45dc:	c4 02 40 00 	ld  [ %o1 ], %g2
    45e0:	92 02 60 04 	add  %o1, 4, %o1
    45e4:	87 30 a0 10 	srl  %g2, 0x10, %g3
    45e8:	8a 0a 20 07 	and  %o0, 7, %g5
    45ec:	c6 32 00 00 	sth  %g3, [ %o0 ]
    45f0:	80 a1 60 06 	cmp  %g5, 6
    45f4:	83 28 a0 10 	sll  %g2, 0x10, %g1
    45f8:	90 02 20 04 	add  %o0, 4, %o0
    45fc:	02 80 01 8e 	be  4c34 <__GI_memcpy+0xe14>
    4600:	96 0a bf c0 	and  %o2, -64, %o3
    4604:	d8 02 3f fa 	ld  [ %o0 + -6 ], %o4
    4608:	c4 1a 60 00 	ldd  [ %o1 ], %g2
    460c:	c8 1a 60 08 	ldd  [ %o1 + 8 ], %g4
    4610:	9b 30 a0 10 	srl  %g2, 0x10, %o5
    4614:	8d 30 e0 10 	srl  %g3, 0x10, %g6
    4618:	85 28 a0 10 	sll  %g2, 0x10, %g2
    461c:	9a 13 40 01 	or  %o5, %g1, %o5
    4620:	83 28 e0 10 	sll  %g3, 0x10, %g1
    4624:	84 11 80 02 	or  %g6, %g2, %g2
    4628:	87 31 20 10 	srl  %g4, 0x10, %g3
    462c:	8d 31 60 10 	srl  %g5, 0x10, %g6
    4630:	89 29 20 10 	sll  %g4, 0x10, %g4
    4634:	86 10 c0 01 	or  %g3, %g1, %g3
    4638:	d8 3a 3f fa 	std  %o4, [ %o0 + -6 ]
    463c:	c4 3a 20 02 	std  %g2, [ %o0 + 2 ]
    4640:	83 29 60 10 	sll  %g5, 0x10, %g1
    4644:	98 11 80 04 	or  %g6, %g4, %o4
    4648:	c4 1a 60 10 	ldd  [ %o1 + 0x10 ], %g2
    464c:	c8 1a 60 18 	ldd  [ %o1 + 0x18 ], %g4
    4650:	9b 30 a0 10 	srl  %g2, 0x10, %o5
    4654:	8d 30 e0 10 	srl  %g3, 0x10, %g6
    4658:	85 28 a0 10 	sll  %g2, 0x10, %g2
    465c:	9a 13 40 01 	or  %o5, %g1, %o5
    4660:	83 28 e0 10 	sll  %g3, 0x10, %g1
    4664:	84 11 80 02 	or  %g6, %g2, %g2
    4668:	87 31 20 10 	srl  %g4, 0x10, %g3
    466c:	8d 31 60 10 	srl  %g5, 0x10, %g6
    4670:	89 29 20 10 	sll  %g4, 0x10, %g4
    4674:	86 10 c0 01 	or  %g3, %g1, %g3
    4678:	d8 3a 20 0a 	std  %o4, [ %o0 + 0xa ]
    467c:	c4 3a 20 12 	std  %g2, [ %o0 + 0x12 ]
    4680:	83 29 60 10 	sll  %g5, 0x10, %g1
    4684:	98 11 80 04 	or  %g6, %g4, %o4
    4688:	c4 1a 60 20 	ldd  [ %o1 + 0x20 ], %g2
    468c:	c8 1a 60 28 	ldd  [ %o1 + 0x28 ], %g4
    4690:	9b 30 a0 10 	srl  %g2, 0x10, %o5
    4694:	8d 30 e0 10 	srl  %g3, 0x10, %g6
    4698:	85 28 a0 10 	sll  %g2, 0x10, %g2
    469c:	9a 13 40 01 	or  %o5, %g1, %o5
    46a0:	83 28 e0 10 	sll  %g3, 0x10, %g1
    46a4:	84 11 80 02 	or  %g6, %g2, %g2
    46a8:	87 31 20 10 	srl  %g4, 0x10, %g3
    46ac:	8d 31 60 10 	srl  %g5, 0x10, %g6
    46b0:	89 29 20 10 	sll  %g4, 0x10, %g4
    46b4:	86 10 c0 01 	or  %g3, %g1, %g3
    46b8:	d8 3a 20 1a 	std  %o4, [ %o0 + 0x1a ]
    46bc:	c4 3a 20 22 	std  %g2, [ %o0 + 0x22 ]
    46c0:	83 29 60 10 	sll  %g5, 0x10, %g1
    46c4:	98 11 80 04 	or  %g6, %g4, %o4
    46c8:	c4 1a 60 30 	ldd  [ %o1 + 0x30 ], %g2
    46cc:	c8 1a 60 38 	ldd  [ %o1 + 0x38 ], %g4
    46d0:	9b 30 a0 10 	srl  %g2, 0x10, %o5
    46d4:	8d 30 e0 10 	srl  %g3, 0x10, %g6
    46d8:	85 28 a0 10 	sll  %g2, 0x10, %g2
    46dc:	9a 13 40 01 	or  %o5, %g1, %o5
    46e0:	83 28 e0 10 	sll  %g3, 0x10, %g1
    46e4:	84 11 80 02 	or  %g6, %g2, %g2
    46e8:	87 31 20 10 	srl  %g4, 0x10, %g3
    46ec:	8d 31 60 10 	srl  %g5, 0x10, %g6
    46f0:	89 29 20 10 	sll  %g4, 0x10, %g4
    46f4:	86 10 c0 01 	or  %g3, %g1, %g3
    46f8:	d8 3a 20 2a 	std  %o4, [ %o0 + 0x2a ]
    46fc:	c4 3a 20 32 	std  %g2, [ %o0 + 0x32 ]
    4700:	83 29 60 10 	sll  %g5, 0x10, %g1
    4704:	98 11 80 04 	or  %g6, %g4, %o4
    4708:	96 a2 e0 40 	subcc  %o3, 0x40, %o3
    470c:	92 02 60 40 	add  %o1, 0x40, %o1
    4710:	12 bf ff be 	bne  4608 <__GI_memcpy+0x7e8>
    4714:	90 02 20 40 	add  %o0, 0x40, %o0
    4718:	96 8a a0 30 	andcc  %o2, 0x30, %o3
    471c:	22 80 00 17 	be,a   4778 <__GI_memcpy+0x958>
    4720:	85 30 60 10 	srl  %g1, 0x10, %g2
    4724:	c4 1a 60 00 	ldd  [ %o1 ], %g2
    4728:	c8 1a 60 08 	ldd  [ %o1 + 8 ], %g4
    472c:	9b 30 a0 10 	srl  %g2, 0x10, %o5
    4730:	8d 30 e0 10 	srl  %g3, 0x10, %g6
    4734:	85 28 a0 10 	sll  %g2, 0x10, %g2
    4738:	9a 13 40 01 	or  %o5, %g1, %o5
    473c:	83 28 e0 10 	sll  %g3, 0x10, %g1
    4740:	84 11 80 02 	or  %g6, %g2, %g2
    4744:	87 31 20 10 	srl  %g4, 0x10, %g3
    4748:	8d 31 60 10 	srl  %g5, 0x10, %g6
    474c:	89 29 20 10 	sll  %g4, 0x10, %g4
    4750:	86 10 c0 01 	or  %g3, %g1, %g3
    4754:	d8 3a 3f fa 	std  %o4, [ %o0 + -6 ]
    4758:	c4 3a 20 02 	std  %g2, [ %o0 + 2 ]
    475c:	83 29 60 10 	sll  %g5, 0x10, %g1
    4760:	98 11 80 04 	or  %g6, %g4, %o4
    4764:	96 a2 e0 10 	subcc  %o3, 0x10, %o3
    4768:	92 02 60 10 	add  %o1, 0x10, %o1
    476c:	12 bf ff ee 	bne  4724 <__GI_memcpy+0x904>
    4770:	90 02 20 10 	add  %o0, 0x10, %o0
    4774:	85 30 60 10 	srl  %g1, 0x10, %g2
    4778:	d8 22 3f fa 	st  %o4, [ %o0 + -6 ]
    477c:	10 80 01 8b 	b  4da8 <__GI_memcpy+0xf88>
    4780:	c4 32 3f fe 	sth  %g2, [ %o0 + -2 ]
    4784:	c4 02 40 00 	ld  [ %o1 ], %g2
    4788:	94 22 a0 04 	sub  %o2, 4, %o2
    478c:	87 30 a0 18 	srl  %g2, 0x18, %g3
    4790:	8a 0a 20 07 	and  %o0, 7, %g5
    4794:	c6 2a 00 00 	stb  %g3, [ %o0 ]
    4798:	80 a1 60 05 	cmp  %g5, 5
    479c:	89 30 a0 08 	srl  %g2, 8, %g4
    47a0:	83 28 a0 18 	sll  %g2, 0x18, %g1
    47a4:	c8 32 20 01 	sth  %g4, [ %o0 + 1 ]
    47a8:	92 02 60 04 	add  %o1, 4, %o1
    47ac:	02 80 00 c3 	be  4ab8 <__GI_memcpy+0xc98>
    47b0:	96 0a bf c0 	and  %o2, -64, %o3
    47b4:	d8 02 3f ff 	ld  [ %o0 + -1 ], %o4
    47b8:	90 02 20 04 	add  %o0, 4, %o0
    47bc:	c4 1a 60 00 	ldd  [ %o1 ], %g2
    47c0:	c8 1a 60 08 	ldd  [ %o1 + 8 ], %g4
    47c4:	9b 30 a0 08 	srl  %g2, 8, %o5
    47c8:	8d 30 e0 08 	srl  %g3, 8, %g6
    47cc:	85 28 a0 18 	sll  %g2, 0x18, %g2
    47d0:	9a 13 40 01 	or  %o5, %g1, %o5
    47d4:	83 28 e0 18 	sll  %g3, 0x18, %g1
    47d8:	84 11 80 02 	or  %g6, %g2, %g2
    47dc:	87 31 20 08 	srl  %g4, 8, %g3
    47e0:	8d 31 60 08 	srl  %g5, 8, %g6
    47e4:	89 29 20 18 	sll  %g4, 0x18, %g4
    47e8:	86 10 c0 01 	or  %g3, %g1, %g3
    47ec:	d8 3a 3f fb 	std  %o4, [ %o0 + -5 ]
    47f0:	c4 3a 20 03 	std  %g2, [ %o0 + 3 ]
    47f4:	83 29 60 18 	sll  %g5, 0x18, %g1
    47f8:	98 11 80 04 	or  %g6, %g4, %o4
    47fc:	c4 1a 60 10 	ldd  [ %o1 + 0x10 ], %g2
    4800:	c8 1a 60 18 	ldd  [ %o1 + 0x18 ], %g4
    4804:	9b 30 a0 08 	srl  %g2, 8, %o5
    4808:	8d 30 e0 08 	srl  %g3, 8, %g6
    480c:	85 28 a0 18 	sll  %g2, 0x18, %g2
    4810:	9a 13 40 01 	or  %o5, %g1, %o5
    4814:	83 28 e0 18 	sll  %g3, 0x18, %g1
    4818:	84 11 80 02 	or  %g6, %g2, %g2
    481c:	87 31 20 08 	srl  %g4, 8, %g3
    4820:	8d 31 60 08 	srl  %g5, 8, %g6
    4824:	89 29 20 18 	sll  %g4, 0x18, %g4
    4828:	86 10 c0 01 	or  %g3, %g1, %g3
    482c:	d8 3a 20 0b 	std  %o4, [ %o0 + 0xb ]
    4830:	c4 3a 20 13 	std  %g2, [ %o0 + 0x13 ]
    4834:	83 29 60 18 	sll  %g5, 0x18, %g1
    4838:	98 11 80 04 	or  %g6, %g4, %o4
    483c:	c4 1a 60 20 	ldd  [ %o1 + 0x20 ], %g2
    4840:	c8 1a 60 28 	ldd  [ %o1 + 0x28 ], %g4
    4844:	9b 30 a0 08 	srl  %g2, 8, %o5
    4848:	8d 30 e0 08 	srl  %g3, 8, %g6
    484c:	85 28 a0 18 	sll  %g2, 0x18, %g2
    4850:	9a 13 40 01 	or  %o5, %g1, %o5
    4854:	83 28 e0 18 	sll  %g3, 0x18, %g1
    4858:	84 11 80 02 	or  %g6, %g2, %g2
    485c:	87 31 20 08 	srl  %g4, 8, %g3
    4860:	8d 31 60 08 	srl  %g5, 8, %g6
    4864:	89 29 20 18 	sll  %g4, 0x18, %g4
    4868:	86 10 c0 01 	or  %g3, %g1, %g3
    486c:	d8 3a 20 1b 	std  %o4, [ %o0 + 0x1b ]
    4870:	c4 3a 20 23 	std  %g2, [ %o0 + 0x23 ]
    4874:	83 29 60 18 	sll  %g5, 0x18, %g1
    4878:	98 11 80 04 	or  %g6, %g4, %o4
    487c:	c4 1a 60 30 	ldd  [ %o1 + 0x30 ], %g2
    4880:	c8 1a 60 38 	ldd  [ %o1 + 0x38 ], %g4
    4884:	9b 30 a0 08 	srl  %g2, 8, %o5
    4888:	8d 30 e0 08 	srl  %g3, 8, %g6
    488c:	85 28 a0 18 	sll  %g2, 0x18, %g2
    4890:	9a 13 40 01 	or  %o5, %g1, %o5
    4894:	83 28 e0 18 	sll  %g3, 0x18, %g1
    4898:	84 11 80 02 	or  %g6, %g2, %g2
    489c:	87 31 20 08 	srl  %g4, 8, %g3
    48a0:	8d 31 60 08 	srl  %g5, 8, %g6
    48a4:	89 29 20 18 	sll  %g4, 0x18, %g4
    48a8:	86 10 c0 01 	or  %g3, %g1, %g3
    48ac:	d8 3a 20 2b 	std  %o4, [ %o0 + 0x2b ]
    48b0:	c4 3a 20 33 	std  %g2, [ %o0 + 0x33 ]
    48b4:	83 29 60 18 	sll  %g5, 0x18, %g1
    48b8:	98 11 80 04 	or  %g6, %g4, %o4
    48bc:	96 a2 e0 40 	subcc  %o3, 0x40, %o3
    48c0:	92 02 60 40 	add  %o1, 0x40, %o1
    48c4:	12 bf ff be 	bne  47bc <__GI_memcpy+0x99c>
    48c8:	90 02 20 40 	add  %o0, 0x40, %o0
    48cc:	96 8a a0 30 	andcc  %o2, 0x30, %o3
    48d0:	22 80 00 17 	be,a   492c <__GI_memcpy+0xb0c>
    48d4:	85 30 60 18 	srl  %g1, 0x18, %g2
    48d8:	c4 1a 60 00 	ldd  [ %o1 ], %g2
    48dc:	c8 1a 60 08 	ldd  [ %o1 + 8 ], %g4
    48e0:	9b 30 a0 08 	srl  %g2, 8, %o5
    48e4:	8d 30 e0 08 	srl  %g3, 8, %g6
    48e8:	85 28 a0 18 	sll  %g2, 0x18, %g2
    48ec:	9a 13 40 01 	or  %o5, %g1, %o5
    48f0:	83 28 e0 18 	sll  %g3, 0x18, %g1
    48f4:	84 11 80 02 	or  %g6, %g2, %g2
    48f8:	87 31 20 08 	srl  %g4, 8, %g3
    48fc:	8d 31 60 08 	srl  %g5, 8, %g6
    4900:	89 29 20 18 	sll  %g4, 0x18, %g4
    4904:	86 10 c0 01 	or  %g3, %g1, %g3
    4908:	d8 3a 3f fb 	std  %o4, [ %o0 + -5 ]
    490c:	c4 3a 20 03 	std  %g2, [ %o0 + 3 ]
    4910:	83 29 60 18 	sll  %g5, 0x18, %g1
    4914:	98 11 80 04 	or  %g6, %g4, %o4
    4918:	96 a2 e0 10 	subcc  %o3, 0x10, %o3
    491c:	92 02 60 10 	add  %o1, 0x10, %o1
    4920:	12 bf ff ee 	bne  48d8 <__GI_memcpy+0xab8>
    4924:	90 02 20 10 	add  %o0, 0x10, %o0
    4928:	85 30 60 18 	srl  %g1, 0x18, %g2
    492c:	d8 22 3f fb 	st  %o4, [ %o0 + -5 ]
    4930:	10 80 01 1e 	b  4da8 <__GI_memcpy+0xf88>
    4934:	c4 2a 3f ff 	stb  %g2, [ %o0 + -1 ]
    4938:	c4 1a 60 00 	ldd  [ %o1 ], %g2
    493c:	c8 1a 60 08 	ldd  [ %o1 + 8 ], %g4
    4940:	99 30 a0 18 	srl  %g2, 0x18, %o4
    4944:	9b 30 e0 18 	srl  %g3, 0x18, %o5
    4948:	8d 28 a0 08 	sll  %g2, 8, %g6
    494c:	84 13 00 01 	or  %o4, %g1, %g2
    4950:	83 28 e0 08 	sll  %g3, 8, %g1
    4954:	86 13 40 06 	or  %o5, %g6, %g3
    4958:	99 31 20 18 	srl  %g4, 0x18, %o4
    495c:	9b 31 60 18 	srl  %g5, 0x18, %o5
    4960:	8d 29 20 08 	sll  %g4, 8, %g6
    4964:	88 13 00 01 	or  %o4, %g1, %g4
    4968:	83 29 60 08 	sll  %g5, 8, %g1
    496c:	8a 13 40 06 	or  %o5, %g6, %g5
    4970:	c4 3a 3f fd 	std  %g2, [ %o0 + -3 ]
    4974:	c8 3a 20 05 	std  %g4, [ %o0 + 5 ]
    4978:	c4 1a 60 10 	ldd  [ %o1 + 0x10 ], %g2
    497c:	c8 1a 60 18 	ldd  [ %o1 + 0x18 ], %g4
    4980:	99 30 a0 18 	srl  %g2, 0x18, %o4
    4984:	9b 30 e0 18 	srl  %g3, 0x18, %o5
    4988:	8d 28 a0 08 	sll  %g2, 8, %g6
    498c:	84 13 00 01 	or  %o4, %g1, %g2
    4990:	83 28 e0 08 	sll  %g3, 8, %g1
    4994:	86 13 40 06 	or  %o5, %g6, %g3
    4998:	99 31 20 18 	srl  %g4, 0x18, %o4
    499c:	9b 31 60 18 	srl  %g5, 0x18, %o5
    49a0:	8d 29 20 08 	sll  %g4, 8, %g6
    49a4:	88 13 00 01 	or  %o4, %g1, %g4
    49a8:	83 29 60 08 	sll  %g5, 8, %g1
    49ac:	8a 13 40 06 	or  %o5, %g6, %g5
    49b0:	c4 3a 20 0d 	std  %g2, [ %o0 + 0xd ]
    49b4:	c8 3a 20 15 	std  %g4, [ %o0 + 0x15 ]
    49b8:	c4 1a 60 20 	ldd  [ %o1 + 0x20 ], %g2
    49bc:	c8 1a 60 28 	ldd  [ %o1 + 0x28 ], %g4
    49c0:	99 30 a0 18 	srl  %g2, 0x18, %o4
    49c4:	9b 30 e0 18 	srl  %g3, 0x18, %o5
    49c8:	8d 28 a0 08 	sll  %g2, 8, %g6
    49cc:	84 13 00 01 	or  %o4, %g1, %g2
    49d0:	83 28 e0 08 	sll  %g3, 8, %g1
    49d4:	86 13 40 06 	or  %o5, %g6, %g3
    49d8:	99 31 20 18 	srl  %g4, 0x18, %o4
    49dc:	9b 31 60 18 	srl  %g5, 0x18, %o5
    49e0:	8d 29 20 08 	sll  %g4, 8, %g6
    49e4:	88 13 00 01 	or  %o4, %g1, %g4
    49e8:	83 29 60 08 	sll  %g5, 8, %g1
    49ec:	8a 13 40 06 	or  %o5, %g6, %g5
    49f0:	c4 3a 20 1d 	std  %g2, [ %o0 + 0x1d ]
    49f4:	c8 3a 20 25 	std  %g4, [ %o0 + 0x25 ]
    49f8:	c4 1a 60 30 	ldd  [ %o1 + 0x30 ], %g2
    49fc:	c8 1a 60 38 	ldd  [ %o1 + 0x38 ], %g4
    4a00:	99 30 a0 18 	srl  %g2, 0x18, %o4
    4a04:	9b 30 e0 18 	srl  %g3, 0x18, %o5
    4a08:	8d 28 a0 08 	sll  %g2, 8, %g6
    4a0c:	84 13 00 01 	or  %o4, %g1, %g2
    4a10:	83 28 e0 08 	sll  %g3, 8, %g1
    4a14:	86 13 40 06 	or  %o5, %g6, %g3
    4a18:	99 31 20 18 	srl  %g4, 0x18, %o4
    4a1c:	9b 31 60 18 	srl  %g5, 0x18, %o5
    4a20:	8d 29 20 08 	sll  %g4, 8, %g6
    4a24:	88 13 00 01 	or  %o4, %g1, %g4
    4a28:	83 29 60 08 	sll  %g5, 8, %g1
    4a2c:	8a 13 40 06 	or  %o5, %g6, %g5
    4a30:	c4 3a 20 2d 	std  %g2, [ %o0 + 0x2d ]
    4a34:	c8 3a 20 35 	std  %g4, [ %o0 + 0x35 ]
    4a38:	96 a2 e0 40 	subcc  %o3, 0x40, %o3
    4a3c:	92 02 60 40 	add  %o1, 0x40, %o1
    4a40:	12 bf ff be 	bne  4938 <__GI_memcpy+0xb18>
    4a44:	90 02 20 40 	add  %o0, 0x40, %o0
    4a48:	96 8a a0 30 	andcc  %o2, 0x30, %o3
    4a4c:	22 80 00 17 	be,a   4aa8 <__GI_memcpy+0xc88>
    4a50:	85 30 60 10 	srl  %g1, 0x10, %g2
    4a54:	c4 1a 60 00 	ldd  [ %o1 ], %g2
    4a58:	c8 1a 60 08 	ldd  [ %o1 + 8 ], %g4
    4a5c:	99 30 a0 18 	srl  %g2, 0x18, %o4
    4a60:	9b 30 e0 18 	srl  %g3, 0x18, %o5
    4a64:	8d 28 a0 08 	sll  %g2, 8, %g6
    4a68:	84 13 00 01 	or  %o4, %g1, %g2
    4a6c:	83 28 e0 08 	sll  %g3, 8, %g1
    4a70:	86 13 40 06 	or  %o5, %g6, %g3
    4a74:	99 31 20 18 	srl  %g4, 0x18, %o4
    4a78:	9b 31 60 18 	srl  %g5, 0x18, %o5
    4a7c:	8d 29 20 08 	sll  %g4, 8, %g6
    4a80:	88 13 00 01 	or  %o4, %g1, %g4
    4a84:	83 29 60 08 	sll  %g5, 8, %g1
    4a88:	8a 13 40 06 	or  %o5, %g6, %g5
    4a8c:	c4 3a 3f fd 	std  %g2, [ %o0 + -3 ]
    4a90:	c8 3a 20 05 	std  %g4, [ %o0 + 5 ]
    4a94:	96 a2 e0 10 	subcc  %o3, 0x10, %o3
    4a98:	92 02 60 10 	add  %o1, 0x10, %o1
    4a9c:	12 bf ff ee 	bne  4a54 <__GI_memcpy+0xc34>
    4aa0:	90 02 20 10 	add  %o0, 0x10, %o0
    4aa4:	85 30 60 10 	srl  %g1, 0x10, %g2
    4aa8:	c4 32 3f fd 	sth  %g2, [ %o0 + -3 ]
    4aac:	89 30 60 08 	srl  %g1, 8, %g4
    4ab0:	10 80 00 be 	b  4da8 <__GI_memcpy+0xf88>
    4ab4:	c8 2a 3f ff 	stb  %g4, [ %o0 + -1 ]
    4ab8:	c4 1a 60 00 	ldd  [ %o1 ], %g2
    4abc:	c8 1a 60 08 	ldd  [ %o1 + 8 ], %g4
    4ac0:	99 30 a0 08 	srl  %g2, 8, %o4
    4ac4:	9b 30 e0 08 	srl  %g3, 8, %o5
    4ac8:	8d 28 a0 18 	sll  %g2, 0x18, %g6
    4acc:	84 13 00 01 	or  %o4, %g1, %g2
    4ad0:	83 28 e0 18 	sll  %g3, 0x18, %g1
    4ad4:	86 13 40 06 	or  %o5, %g6, %g3
    4ad8:	99 31 20 08 	srl  %g4, 8, %o4
    4adc:	9b 31 60 08 	srl  %g5, 8, %o5
    4ae0:	8d 29 20 18 	sll  %g4, 0x18, %g6
    4ae4:	88 13 00 01 	or  %o4, %g1, %g4
    4ae8:	83 29 60 18 	sll  %g5, 0x18, %g1
    4aec:	8a 13 40 06 	or  %o5, %g6, %g5
    4af0:	c4 3a 20 03 	std  %g2, [ %o0 + 3 ]
    4af4:	c8 3a 20 0b 	std  %g4, [ %o0 + 0xb ]
    4af8:	c4 1a 60 10 	ldd  [ %o1 + 0x10 ], %g2
    4afc:	c8 1a 60 18 	ldd  [ %o1 + 0x18 ], %g4
    4b00:	99 30 a0 08 	srl  %g2, 8, %o4
    4b04:	9b 30 e0 08 	srl  %g3, 8, %o5
    4b08:	8d 28 a0 18 	sll  %g2, 0x18, %g6
    4b0c:	84 13 00 01 	or  %o4, %g1, %g2
    4b10:	83 28 e0 18 	sll  %g3, 0x18, %g1
    4b14:	86 13 40 06 	or  %o5, %g6, %g3
    4b18:	99 31 20 08 	srl  %g4, 8, %o4
    4b1c:	9b 31 60 08 	srl  %g5, 8, %o5
    4b20:	8d 29 20 18 	sll  %g4, 0x18, %g6
    4b24:	88 13 00 01 	or  %o4, %g1, %g4
    4b28:	83 29 60 18 	sll  %g5, 0x18, %g1
    4b2c:	8a 13 40 06 	or  %o5, %g6, %g5
    4b30:	c4 3a 20 13 	std  %g2, [ %o0 + 0x13 ]
    4b34:	c8 3a 20 1b 	std  %g4, [ %o0 + 0x1b ]
    4b38:	c4 1a 60 20 	ldd  [ %o1 + 0x20 ], %g2
    4b3c:	c8 1a 60 28 	ldd  [ %o1 + 0x28 ], %g4
    4b40:	99 30 a0 08 	srl  %g2, 8, %o4
    4b44:	9b 30 e0 08 	srl  %g3, 8, %o5
    4b48:	8d 28 a0 18 	sll  %g2, 0x18, %g6
    4b4c:	84 13 00 01 	or  %o4, %g1, %g2
    4b50:	83 28 e0 18 	sll  %g3, 0x18, %g1
    4b54:	86 13 40 06 	or  %o5, %g6, %g3
    4b58:	99 31 20 08 	srl  %g4, 8, %o4
    4b5c:	9b 31 60 08 	srl  %g5, 8, %o5
    4b60:	8d 29 20 18 	sll  %g4, 0x18, %g6
    4b64:	88 13 00 01 	or  %o4, %g1, %g4
    4b68:	83 29 60 18 	sll  %g5, 0x18, %g1
    4b6c:	8a 13 40 06 	or  %o5, %g6, %g5
    4b70:	c4 3a 20 23 	std  %g2, [ %o0 + 0x23 ]
    4b74:	c8 3a 20 2b 	std  %g4, [ %o0 + 0x2b ]
    4b78:	c4 1a 60 30 	ldd  [ %o1 + 0x30 ], %g2
    4b7c:	c8 1a 60 38 	ldd  [ %o1 + 0x38 ], %g4
    4b80:	99 30 a0 08 	srl  %g2, 8, %o4
    4b84:	9b 30 e0 08 	srl  %g3, 8, %o5
    4b88:	8d 28 a0 18 	sll  %g2, 0x18, %g6
    4b8c:	84 13 00 01 	or  %o4, %g1, %g2
    4b90:	83 28 e0 18 	sll  %g3, 0x18, %g1
    4b94:	86 13 40 06 	or  %o5, %g6, %g3
    4b98:	99 31 20 08 	srl  %g4, 8, %o4
    4b9c:	9b 31 60 08 	srl  %g5, 8, %o5
    4ba0:	8d 29 20 18 	sll  %g4, 0x18, %g6
    4ba4:	88 13 00 01 	or  %o4, %g1, %g4
    4ba8:	83 29 60 18 	sll  %g5, 0x18, %g1
    4bac:	8a 13 40 06 	or  %o5, %g6, %g5
    4bb0:	c4 3a 20 33 	std  %g2, [ %o0 + 0x33 ]
    4bb4:	c8 3a 20 3b 	std  %g4, [ %o0 + 0x3b ]
    4bb8:	96 a2 e0 40 	subcc  %o3, 0x40, %o3
    4bbc:	92 02 60 40 	add  %o1, 0x40, %o1
    4bc0:	12 bf ff be 	bne  4ab8 <__GI_memcpy+0xc98>
    4bc4:	90 02 20 40 	add  %o0, 0x40, %o0
    4bc8:	96 8a a0 30 	andcc  %o2, 0x30, %o3
    4bcc:	22 80 00 17 	be,a   4c28 <__GI_memcpy+0xe08>
    4bd0:	85 30 60 18 	srl  %g1, 0x18, %g2
    4bd4:	c4 1a 60 00 	ldd  [ %o1 ], %g2
    4bd8:	c8 1a 60 08 	ldd  [ %o1 + 8 ], %g4
    4bdc:	99 30 a0 08 	srl  %g2, 8, %o4
    4be0:	9b 30 e0 08 	srl  %g3, 8, %o5
    4be4:	8d 28 a0 18 	sll  %g2, 0x18, %g6
    4be8:	84 13 00 01 	or  %o4, %g1, %g2
    4bec:	83 28 e0 18 	sll  %g3, 0x18, %g1
    4bf0:	86 13 40 06 	or  %o5, %g6, %g3
    4bf4:	99 31 20 08 	srl  %g4, 8, %o4
    4bf8:	9b 31 60 08 	srl  %g5, 8, %o5
    4bfc:	8d 29 20 18 	sll  %g4, 0x18, %g6
    4c00:	88 13 00 01 	or  %o4, %g1, %g4
    4c04:	83 29 60 18 	sll  %g5, 0x18, %g1
    4c08:	8a 13 40 06 	or  %o5, %g6, %g5
    4c0c:	c4 3a 20 03 	std  %g2, [ %o0 + 3 ]
    4c10:	c8 3a 20 0b 	std  %g4, [ %o0 + 0xb ]
    4c14:	96 a2 e0 10 	subcc  %o3, 0x10, %o3
    4c18:	92 02 60 10 	add  %o1, 0x10, %o1
    4c1c:	12 bf ff ee 	bne  4bd4 <__GI_memcpy+0xdb4>
    4c20:	90 02 20 10 	add  %o0, 0x10, %o0
    4c24:	85 30 60 18 	srl  %g1, 0x18, %g2
    4c28:	c4 2a 20 03 	stb  %g2, [ %o0 + 3 ]
    4c2c:	10 80 00 5f 	b  4da8 <__GI_memcpy+0xf88>
    4c30:	90 02 20 04 	add  %o0, 4, %o0
    4c34:	c4 1a 60 00 	ldd  [ %o1 ], %g2
    4c38:	c8 1a 60 08 	ldd  [ %o1 + 8 ], %g4
    4c3c:	99 30 a0 10 	srl  %g2, 0x10, %o4
    4c40:	9b 30 e0 10 	srl  %g3, 0x10, %o5
    4c44:	8d 28 a0 10 	sll  %g2, 0x10, %g6
    4c48:	84 13 00 01 	or  %o4, %g1, %g2
    4c4c:	83 28 e0 10 	sll  %g3, 0x10, %g1
    4c50:	86 13 40 06 	or  %o5, %g6, %g3
    4c54:	99 31 20 10 	srl  %g4, 0x10, %o4
    4c58:	9b 31 60 10 	srl  %g5, 0x10, %o5
    4c5c:	8d 29 20 10 	sll  %g4, 0x10, %g6
    4c60:	88 13 00 01 	or  %o4, %g1, %g4
    4c64:	83 29 60 10 	sll  %g5, 0x10, %g1
    4c68:	8a 13 40 06 	or  %o5, %g6, %g5
    4c6c:	c4 3a 3f fe 	std  %g2, [ %o0 + -2 ]
    4c70:	c8 3a 20 06 	std  %g4, [ %o0 + 6 ]
    4c74:	c4 1a 60 10 	ldd  [ %o1 + 0x10 ], %g2
    4c78:	c8 1a 60 18 	ldd  [ %o1 + 0x18 ], %g4
    4c7c:	99 30 a0 10 	srl  %g2, 0x10, %o4
    4c80:	9b 30 e0 10 	srl  %g3, 0x10, %o5
    4c84:	8d 28 a0 10 	sll  %g2, 0x10, %g6
    4c88:	84 13 00 01 	or  %o4, %g1, %g2
    4c8c:	83 28 e0 10 	sll  %g3, 0x10, %g1
    4c90:	86 13 40 06 	or  %o5, %g6, %g3
    4c94:	99 31 20 10 	srl  %g4, 0x10, %o4
    4c98:	9b 31 60 10 	srl  %g5, 0x10, %o5
    4c9c:	8d 29 20 10 	sll  %g4, 0x10, %g6
    4ca0:	88 13 00 01 	or  %o4, %g1, %g4
    4ca4:	83 29 60 10 	sll  %g5, 0x10, %g1
    4ca8:	8a 13 40 06 	or  %o5, %g6, %g5
    4cac:	c4 3a 20 0e 	std  %g2, [ %o0 + 0xe ]
    4cb0:	c8 3a 20 16 	std  %g4, [ %o0 + 0x16 ]
    4cb4:	c4 1a 60 20 	ldd  [ %o1 + 0x20 ], %g2
    4cb8:	c8 1a 60 28 	ldd  [ %o1 + 0x28 ], %g4
    4cbc:	99 30 a0 10 	srl  %g2, 0x10, %o4
    4cc0:	9b 30 e0 10 	srl  %g3, 0x10, %o5
    4cc4:	8d 28 a0 10 	sll  %g2, 0x10, %g6
    4cc8:	84 13 00 01 	or  %o4, %g1, %g2
    4ccc:	83 28 e0 10 	sll  %g3, 0x10, %g1
    4cd0:	86 13 40 06 	or  %o5, %g6, %g3
    4cd4:	99 31 20 10 	srl  %g4, 0x10, %o4
    4cd8:	9b 31 60 10 	srl  %g5, 0x10, %o5
    4cdc:	8d 29 20 10 	sll  %g4, 0x10, %g6
    4ce0:	88 13 00 01 	or  %o4, %g1, %g4
    4ce4:	83 29 60 10 	sll  %g5, 0x10, %g1
    4ce8:	8a 13 40 06 	or  %o5, %g6, %g5
    4cec:	c4 3a 20 1e 	std  %g2, [ %o0 + 0x1e ]
    4cf0:	c8 3a 20 26 	std  %g4, [ %o0 + 0x26 ]
    4cf4:	c4 1a 60 30 	ldd  [ %o1 + 0x30 ], %g2
    4cf8:	c8 1a 60 38 	ldd  [ %o1 + 0x38 ], %g4
    4cfc:	99 30 a0 10 	srl  %g2, 0x10, %o4
    4d00:	9b 30 e0 10 	srl  %g3, 0x10, %o5
    4d04:	8d 28 a0 10 	sll  %g2, 0x10, %g6
    4d08:	84 13 00 01 	or  %o4, %g1, %g2
    4d0c:	83 28 e0 10 	sll  %g3, 0x10, %g1
    4d10:	86 13 40 06 	or  %o5, %g6, %g3
    4d14:	99 31 20 10 	srl  %g4, 0x10, %o4
    4d18:	9b 31 60 10 	srl  %g5, 0x10, %o5
    4d1c:	8d 29 20 10 	sll  %g4, 0x10, %g6
    4d20:	88 13 00 01 	or  %o4, %g1, %g4
    4d24:	83 29 60 10 	sll  %g5, 0x10, %g1
    4d28:	8a 13 40 06 	or  %o5, %g6, %g5
    4d2c:	c4 3a 20 2e 	std  %g2, [ %o0 + 0x2e ]
    4d30:	c8 3a 20 36 	std  %g4, [ %o0 + 0x36 ]
    4d34:	96 a2 e0 40 	subcc  %o3, 0x40, %o3
    4d38:	92 02 60 40 	add  %o1, 0x40, %o1
    4d3c:	12 bf ff be 	bne  4c34 <__GI_memcpy+0xe14>
    4d40:	90 02 20 40 	add  %o0, 0x40, %o0
    4d44:	96 8a a0 30 	andcc  %o2, 0x30, %o3
    4d48:	22 80 00 17 	be,a   4da4 <__GI_memcpy+0xf84>
    4d4c:	85 30 60 10 	srl  %g1, 0x10, %g2
    4d50:	c4 1a 60 00 	ldd  [ %o1 ], %g2
    4d54:	c8 1a 60 08 	ldd  [ %o1 + 8 ], %g4
    4d58:	99 30 a0 10 	srl  %g2, 0x10, %o4
    4d5c:	9b 30 e0 10 	srl  %g3, 0x10, %o5
    4d60:	8d 28 a0 10 	sll  %g2, 0x10, %g6
    4d64:	84 13 00 01 	or  %o4, %g1, %g2
    4d68:	83 28 e0 10 	sll  %g3, 0x10, %g1
    4d6c:	86 13 40 06 	or  %o5, %g6, %g3
    4d70:	99 31 20 10 	srl  %g4, 0x10, %o4
    4d74:	9b 31 60 10 	srl  %g5, 0x10, %o5
    4d78:	8d 29 20 10 	sll  %g4, 0x10, %g6
    4d7c:	88 13 00 01 	or  %o4, %g1, %g4
    4d80:	83 29 60 10 	sll  %g5, 0x10, %g1
    4d84:	8a 13 40 06 	or  %o5, %g6, %g5
    4d88:	c4 3a 3f fe 	std  %g2, [ %o0 + -2 ]
    4d8c:	c8 3a 20 06 	std  %g4, [ %o0 + 6 ]
    4d90:	96 a2 e0 10 	subcc  %o3, 0x10, %o3
    4d94:	92 02 60 10 	add  %o1, 0x10, %o1
    4d98:	12 bf ff ee 	bne  4d50 <__GI_memcpy+0xf30>
    4d9c:	90 02 20 10 	add  %o0, 0x10, %o0
    4da0:	85 30 60 10 	srl  %g1, 0x10, %g2
    4da4:	c4 32 3f fe 	sth  %g2, [ %o0 + -2 ]
    4da8:	96 0a a0 0e 	and  %o2, 0xe, %o3
    4dac:	84 10 00 0f 	mov  %o7, %g2
    4db0:	99 2a e0 03 	sll  %o3, 3, %o4
    4db4:	90 02 00 0b 	add  %o0, %o3, %o0
    4db8:	40 00 00 33 	call  4e84 <__GI_memcpy+0x1064>
    4dbc:	92 02 40 0b 	add  %o1, %o3, %o1
    4dc0:	9e 10 00 02 	mov  %g2, %o7
    4dc4:	81 c3 60 84 	jmp  %o5 + 0x84
    4dc8:	80 8a a0 01 	btst  1, %o2
    4dcc:	c4 0a 7f f2 	ldub  [ %o1 + -14 ], %g2
    4dd0:	c6 0a 7f f3 	ldub  [ %o1 + -13 ], %g3
    4dd4:	c4 2a 3f f2 	stb  %g2, [ %o0 + -14 ]
    4dd8:	c6 2a 3f f3 	stb  %g3, [ %o0 + -13 ]
    4ddc:	c4 0a 7f f4 	ldub  [ %o1 + -12 ], %g2
    4de0:	c6 0a 7f f5 	ldub  [ %o1 + -11 ], %g3
    4de4:	c4 2a 3f f4 	stb  %g2, [ %o0 + -12 ]
    4de8:	c6 2a 3f f5 	stb  %g3, [ %o0 + -11 ]
    4dec:	c4 0a 7f f6 	ldub  [ %o1 + -10 ], %g2
    4df0:	c6 0a 7f f7 	ldub  [ %o1 + -9 ], %g3
    4df4:	c4 2a 3f f6 	stb  %g2, [ %o0 + -10 ]
    4df8:	c6 2a 3f f7 	stb  %g3, [ %o0 + -9 ]
    4dfc:	c4 0a 7f f8 	ldub  [ %o1 + -8 ], %g2
    4e00:	c6 0a 7f f9 	ldub  [ %o1 + -7 ], %g3
    4e04:	c4 2a 3f f8 	stb  %g2, [ %o0 + -8 ]
    4e08:	c6 2a 3f f9 	stb  %g3, [ %o0 + -7 ]
    4e0c:	c4 0a 7f fa 	ldub  [ %o1 + -6 ], %g2
    4e10:	c6 0a 7f fb 	ldub  [ %o1 + -5 ], %g3
    4e14:	c4 2a 3f fa 	stb  %g2, [ %o0 + -6 ]
    4e18:	c6 2a 3f fb 	stb  %g3, [ %o0 + -5 ]
    4e1c:	c4 0a 7f fc 	ldub  [ %o1 + -4 ], %g2
    4e20:	c6 0a 7f fd 	ldub  [ %o1 + -3 ], %g3
    4e24:	c4 2a 3f fc 	stb  %g2, [ %o0 + -4 ]
    4e28:	c6 2a 3f fd 	stb  %g3, [ %o0 + -3 ]
    4e2c:	c4 0a 7f fe 	ldub  [ %o1 + -2 ], %g2
    4e30:	c6 0a 7f ff 	ldub  [ %o1 + -1 ], %g3
    4e34:	c4 2a 3f fe 	stb  %g2, [ %o0 + -2 ]
    4e38:	c6 2a 3f ff 	stb  %g3, [ %o0 + -1 ]
    4e3c:	02 80 00 04 	be  4e4c <__GI_memcpy+0x102c>
    4e40:	01 00 00 00 	nop 
    4e44:	c4 0a 40 00 	ldub  [ %o1 ], %g2
    4e48:	c4 2a 00 00 	stb  %g2, [ %o0 ]
    4e4c:	81 c3 e0 08 	retl 
    4e50:	d0 03 a0 40 	ld  [ %sp + 0x40 ], %o0
    4e54:	12 bf ff d5 	bne  4da8 <__GI_memcpy+0xf88>
    4e58:	80 8a a0 08 	btst  8, %o2
    4e5c:	02 80 00 08 	be  4e7c <__GI_memcpy+0x105c>
    4e60:	80 8a a0 04 	btst  4, %o2
    4e64:	c4 02 60 00 	ld  [ %o1 ], %g2
    4e68:	c6 02 60 04 	ld  [ %o1 + 4 ], %g3
    4e6c:	92 02 60 08 	add  %o1, 8, %o1
    4e70:	c4 22 20 00 	st  %g2, [ %o0 ]
    4e74:	c6 22 20 04 	st  %g3, [ %o0 + 4 ]
    4e78:	90 02 20 08 	add  %o0, 8, %o0
    4e7c:	10 bf fc 6d 	b  4030 <__GI_memcpy+0x210>
    4e80:	82 10 00 0a 	mov  %o2, %g1
    4e84:	81 c3 e0 08 	retl 
    4e88:	9a 23 c0 0c 	sub  %o7, %o4, %o5
    4e8c:	81 c3 e0 08 	retl 
    4e90:	9a 23 c0 06 	sub  %o7, %g6, %o5

00004e94 <generic_vectored_isr>:
    4e94:	a9 50 00 00 	rd  %wim, %l4
    4e98:	a9 35 00 10 	srl  %l4, %l0, %l4
    4e9c:	80 a5 20 01 	cmp  %l4, 1
    4ea0:	12 80 00 12 	bne  4ee8 <continue_with_valid_T>
    4ea4:	01 00 00 00 	nop 

00004ea8 <handle_invalid_T>:
    4ea8:	81 e0 00 00 	save 
    4eac:	e0 3b a0 00 	std  %l0, [ %sp ]
    4eb0:	e4 3b a0 08 	std  %l2, [ %sp + 8 ]
    4eb4:	e8 3b a0 10 	std  %l4, [ %sp + 0x10 ]
    4eb8:	ec 3b a0 18 	std  %l6, [ %sp + 0x18 ]
    4ebc:	f0 3b a0 20 	std  %i0, [ %sp + 0x20 ]
    4ec0:	f4 3b a0 28 	std  %i2, [ %sp + 0x28 ]
    4ec4:	f8 3b a0 30 	std  %i4, [ %sp + 0x30 ]
    4ec8:	fc 3b a0 38 	std  %fp, [ %sp + 0x38 ]
    4ecc:	a7 50 00 00 	rd  %wim, %l3
    4ed0:	a9 2c e0 07 	sll  %l3, 7, %l4
    4ed4:	a7 34 e0 01 	srl  %l3, 1, %l3
    4ed8:	a6 14 c0 14 	or  %l3, %l4, %l3
    4edc:	a6 0c e0 ff 	and  %l3, 0xff, %l3
    4ee0:	81 90 00 13 	mov  %l3, %wim
    4ee4:	81 e8 00 00 	restore 

00004ee8 <continue_with_valid_T>:
    4ee8:	ae 10 00 0e 	mov  %sp, %l7
    4eec:	80 a3 a0 00 	cmp  %sp, 0
    4ef0:	22 80 00 03 	be,a   4efc <continue_with_stack>
    4ef4:	9c 27 a0 60 	sub  %fp, 0x60, %sp
    4ef8:	9c 23 a0 60 	sub  %sp, 0x60, %sp

00004efc <continue_with_stack>:
    4efc:	e0 23 80 00 	st  %l0, [ %sp ]
    4f00:	c2 23 a0 04 	st  %g1, [ %sp + 4 ]
    4f04:	c4 3b a0 08 	std  %g2, [ %sp + 8 ]
    4f08:	c8 3b a0 10 	std  %g4, [ %sp + 0x10 ]
    4f0c:	cc 3b a0 18 	std  %g6, [ %sp + 0x18 ]
    4f10:	f0 3b a0 20 	std  %i0, [ %sp + 0x20 ]
    4f14:	f4 3b a0 28 	std  %i2, [ %sp + 0x28 ]
    4f18:	f8 3b a0 30 	std  %i4, [ %sp + 0x30 ]
    4f1c:	fc 3b a0 38 	std  %fp, [ %sp + 0x38 ]
    4f20:	e2 23 a0 40 	st  %l1, [ %sp + 0x40 ]
    4f24:	e4 23 a0 44 	st  %l2, [ %sp + 0x44 ]
    4f28:	ee 23 a0 48 	st  %l7, [ %sp + 0x48 ]
    4f2c:	af 40 00 00 	rd  %y, %l7
    4f30:	ee 23 a0 4c 	st  %l7, [ %sp + 0x4c ]
    4f34:	9c 23 a0 60 	sub  %sp, 0x60, %sp
    4f38:	ae 14 20 20 	or  %l0, 0x20, %l7
    4f3c:	ae 15 ef 00 	or  %l7, 0xf00, %l7
    4f40:	81 88 00 17 	mov  %l7, %psr
    4f44:	91 58 00 00 	rd  %tbr, %o0
    4f48:	7f ff f3 af 	call  1e04 <ajit_generic_interrupt_handler>
    4f4c:	01 00 00 00 	nop 
    4f50:	81 e8 00 00 	restore 
    4f54:	81 e0 00 00 	save 

00004f58 <recover_and_leave>:
    4f58:	9c 03 a0 60 	add  %sp, 0x60, %sp
    4f5c:	ee 03 80 00 	ld  [ %sp ], %l7
    4f60:	81 88 00 17 	mov  %l7, %psr
    4f64:	c2 03 a0 04 	ld  [ %sp + 4 ], %g1
    4f68:	c4 1b a0 08 	ldd  [ %sp + 8 ], %g2
    4f6c:	c8 1b a0 10 	ldd  [ %sp + 0x10 ], %g4
    4f70:	cc 1b a0 18 	ldd  [ %sp + 0x18 ], %g6
    4f74:	f0 1b a0 20 	ldd  [ %sp + 0x20 ], %i0
    4f78:	f4 1b a0 28 	ldd  [ %sp + 0x28 ], %i2
    4f7c:	f8 1b a0 30 	ldd  [ %sp + 0x30 ], %i4
    4f80:	fc 1b a0 38 	ldd  [ %sp + 0x38 ], %fp
    4f84:	e2 03 a0 40 	ld  [ %sp + 0x40 ], %l1
    4f88:	e4 03 a0 44 	ld  [ %sp + 0x44 ], %l2
    4f8c:	ec 03 a0 48 	ld  [ %sp + 0x48 ], %l6
    4f90:	ee 03 a0 4c 	ld  [ %sp + 0x4c ], %l7
    4f94:	9c 10 00 16 	mov  %l6, %sp
    4f98:	81 80 00 17 	mov  %l7, %y

00004f9c <jmpl_and_return>:
    4f9c:	81 c4 40 00 	jmp  %l1
    4fa0:	81 cc 80 00 	rett  %l2
    4fa4:	01 00 00 00 	nop 

00004fa8 <generic_vectored_sw_trap>:
    4fa8:	a9 50 00 00 	rd  %wim, %l4
    4fac:	a9 35 00 10 	srl  %l4, %l0, %l4
    4fb0:	80 a5 20 01 	cmp  %l4, 1
    4fb4:	12 80 00 12 	bne  4ffc <continue_with_valid_T>
    4fb8:	01 00 00 00 	nop 

00004fbc <handle_invalid_T>:
    4fbc:	81 e0 00 00 	save 
    4fc0:	e0 3b a0 00 	std  %l0, [ %sp ]
    4fc4:	e4 3b a0 08 	std  %l2, [ %sp + 8 ]
    4fc8:	e8 3b a0 10 	std  %l4, [ %sp + 0x10 ]
    4fcc:	ec 3b a0 18 	std  %l6, [ %sp + 0x18 ]
    4fd0:	f0 3b a0 20 	std  %i0, [ %sp + 0x20 ]
    4fd4:	f4 3b a0 28 	std  %i2, [ %sp + 0x28 ]
    4fd8:	f8 3b a0 30 	std  %i4, [ %sp + 0x30 ]
    4fdc:	fc 3b a0 38 	std  %fp, [ %sp + 0x38 ]
    4fe0:	a7 50 00 00 	rd  %wim, %l3
    4fe4:	a9 2c e0 07 	sll  %l3, 7, %l4
    4fe8:	a7 34 e0 01 	srl  %l3, 1, %l3
    4fec:	a6 14 c0 14 	or  %l3, %l4, %l3
    4ff0:	a6 0c e0 ff 	and  %l3, 0xff, %l3
    4ff4:	81 90 00 13 	mov  %l3, %wim
    4ff8:	81 e8 00 00 	restore 

00004ffc <continue_with_valid_T>:
    4ffc:	ae 10 00 0e 	mov  %sp, %l7
    5000:	80 a3 a0 00 	cmp  %sp, 0
    5004:	22 80 00 03 	be,a   5010 <continue_with_stack>
    5008:	9c 27 a0 60 	sub  %fp, 0x60, %sp
    500c:	9c 23 a0 60 	sub  %sp, 0x60, %sp

00005010 <continue_with_stack>:
    5010:	e0 23 80 00 	st  %l0, [ %sp ]
    5014:	c2 23 a0 04 	st  %g1, [ %sp + 4 ]
    5018:	c4 3b a0 08 	std  %g2, [ %sp + 8 ]
    501c:	c8 3b a0 10 	std  %g4, [ %sp + 0x10 ]
    5020:	cc 3b a0 18 	std  %g6, [ %sp + 0x18 ]
    5024:	f0 3b a0 20 	std  %i0, [ %sp + 0x20 ]
    5028:	f4 3b a0 28 	std  %i2, [ %sp + 0x28 ]
    502c:	f8 3b a0 30 	std  %i4, [ %sp + 0x30 ]
    5030:	fc 3b a0 38 	std  %fp, [ %sp + 0x38 ]
    5034:	e2 23 a0 40 	st  %l1, [ %sp + 0x40 ]
    5038:	e4 23 a0 44 	st  %l2, [ %sp + 0x44 ]
    503c:	ee 23 a0 48 	st  %l7, [ %sp + 0x48 ]
    5040:	af 40 00 00 	rd  %y, %l7
    5044:	ee 23 a0 4c 	st  %l7, [ %sp + 0x4c ]
    5048:	9c 23 a0 60 	sub  %sp, 0x60, %sp
    504c:	ae 14 20 20 	or  %l0, 0x20, %l7
    5050:	ae 15 ef 00 	or  %l7, 0xf00, %l7
    5054:	81 88 00 17 	mov  %l7, %psr
    5058:	91 58 00 00 	rd  %tbr, %o0
    505c:	81 e8 00 00 	restore 
    5060:	90 10 00 18 	mov  %i0, %o0
    5064:	92 10 00 19 	mov  %i1, %o1
    5068:	94 10 00 1a 	mov  %i2, %o2
    506c:	81 e0 00 00 	save 
    5070:	92 10 00 18 	mov  %i0, %o1
    5074:	94 10 00 19 	mov  %i1, %o2
    5078:	96 10 00 1a 	mov  %i2, %o3
    507c:	7f ff ed c0 	call  77c <ajit_generic_sw_trap_handler>
    5080:	01 00 00 00 	nop 
    5084:	81 e8 00 00 	restore 
    5088:	81 e0 00 00 	save 

0000508c <recover_and_leave>:
    508c:	9c 03 a0 60 	add  %sp, 0x60, %sp
    5090:	ee 03 80 00 	ld  [ %sp ], %l7
    5094:	81 88 00 17 	mov  %l7, %psr
    5098:	c2 03 a0 04 	ld  [ %sp + 4 ], %g1
    509c:	c4 1b a0 08 	ldd  [ %sp + 8 ], %g2
    50a0:	c8 1b a0 10 	ldd  [ %sp + 0x10 ], %g4
    50a4:	cc 1b a0 18 	ldd  [ %sp + 0x18 ], %g6
    50a8:	f0 1b a0 20 	ldd  [ %sp + 0x20 ], %i0
    50ac:	f4 1b a0 28 	ldd  [ %sp + 0x28 ], %i2
    50b0:	f8 1b a0 30 	ldd  [ %sp + 0x30 ], %i4
    50b4:	fc 1b a0 38 	ldd  [ %sp + 0x38 ], %fp
    50b8:	e2 03 a0 40 	ld  [ %sp + 0x40 ], %l1
    50bc:	e4 03 a0 44 	ld  [ %sp + 0x44 ], %l2
    50c0:	ec 03 a0 48 	ld  [ %sp + 0x48 ], %l6
    50c4:	ee 03 a0 4c 	ld  [ %sp + 0x4c ], %l7
    50c8:	9c 10 00 16 	mov  %l6, %sp
    50cc:	81 80 00 17 	mov  %l7, %y

000050d0 <jmpl_and_return>:
    50d0:	81 c4 80 00 	jmp  %l2
    50d4:	81 cc a0 04 	rett  %l2 + 4
    50d8:	01 00 00 00 	nop 
    50dc:	00 00 00 00 	unimp  0

000050e0 <generic_read_asr>:
    50e0:	81 e8 00 00 	restore 
    50e4:	80 a2 20 1f 	cmp  %o0, 0x1f
    50e8:	02 80 00 62 	be  5270 <read_31>
    50ec:	01 00 00 00 	nop 
    50f0:	80 a2 20 1e 	cmp  %o0, 0x1e
    50f4:	02 80 00 62 	be  527c <read_30>
    50f8:	01 00 00 00 	nop 
    50fc:	80 a2 20 1d 	cmp  %o0, 0x1d
    5100:	02 80 00 62 	be  5288 <read_29>
    5104:	01 00 00 00 	nop 
    5108:	80 a2 20 1c 	cmp  %o0, 0x1c
    510c:	02 80 00 62 	be  5294 <read_28>
    5110:	01 00 00 00 	nop 
    5114:	80 a2 20 1b 	cmp  %o0, 0x1b
    5118:	02 80 00 62 	be  52a0 <read_27>
    511c:	01 00 00 00 	nop 
    5120:	80 a2 20 1a 	cmp  %o0, 0x1a
    5124:	02 80 00 62 	be  52ac <read_26>
    5128:	01 00 00 00 	nop 
    512c:	80 a2 20 19 	cmp  %o0, 0x19
    5130:	02 80 00 62 	be  52b8 <read_25>
    5134:	01 00 00 00 	nop 
    5138:	80 a2 20 18 	cmp  %o0, 0x18
    513c:	02 80 00 62 	be  52c4 <read_24>
    5140:	01 00 00 00 	nop 
    5144:	80 a2 20 17 	cmp  %o0, 0x17
    5148:	02 80 00 62 	be  52d0 <read_23>
    514c:	01 00 00 00 	nop 
    5150:	80 a2 20 16 	cmp  %o0, 0x16
    5154:	02 80 00 62 	be  52dc <read_22>
    5158:	01 00 00 00 	nop 
    515c:	80 a2 20 15 	cmp  %o0, 0x15
    5160:	02 80 00 62 	be  52e8 <read_21>
    5164:	01 00 00 00 	nop 
    5168:	80 a2 20 14 	cmp  %o0, 0x14
    516c:	02 80 00 62 	be  52f4 <read_20>
    5170:	01 00 00 00 	nop 
    5174:	80 a2 20 13 	cmp  %o0, 0x13
    5178:	02 80 00 62 	be  5300 <read_19>
    517c:	01 00 00 00 	nop 
    5180:	80 a2 20 12 	cmp  %o0, 0x12
    5184:	02 80 00 62 	be  530c <read_18>
    5188:	01 00 00 00 	nop 
    518c:	80 a2 20 11 	cmp  %o0, 0x11
    5190:	02 80 00 62 	be  5318 <read_17>
    5194:	01 00 00 00 	nop 
    5198:	80 a2 20 10 	cmp  %o0, 0x10
    519c:	02 80 00 62 	be  5324 <read_16>
    51a0:	01 00 00 00 	nop 
    51a4:	80 a2 20 0f 	cmp  %o0, 0xf
    51a8:	02 80 00 62 	be  5330 <read_15>
    51ac:	01 00 00 00 	nop 
    51b0:	80 a2 20 0e 	cmp  %o0, 0xe
    51b4:	02 80 00 62 	be  533c <read_14>
    51b8:	01 00 00 00 	nop 
    51bc:	80 a2 20 0d 	cmp  %o0, 0xd
    51c0:	02 80 00 62 	be  5348 <read_13>
    51c4:	01 00 00 00 	nop 
    51c8:	80 a2 20 0c 	cmp  %o0, 0xc
    51cc:	02 80 00 62 	be  5354 <read_12>
    51d0:	01 00 00 00 	nop 
    51d4:	80 a2 20 0b 	cmp  %o0, 0xb
    51d8:	02 80 00 62 	be  5360 <read_11>
    51dc:	01 00 00 00 	nop 
    51e0:	80 a2 20 0a 	cmp  %o0, 0xa
    51e4:	02 80 00 62 	be  536c <read_10>
    51e8:	01 00 00 00 	nop 
    51ec:	80 a2 20 09 	cmp  %o0, 9
    51f0:	02 80 00 62 	be  5378 <read_9>
    51f4:	01 00 00 00 	nop 
    51f8:	80 a2 20 08 	cmp  %o0, 8
    51fc:	02 80 00 62 	be  5384 <read_8>
    5200:	01 00 00 00 	nop 
    5204:	80 a2 20 07 	cmp  %o0, 7
    5208:	02 80 00 62 	be  5390 <read_7>
    520c:	01 00 00 00 	nop 
    5210:	80 a2 20 06 	cmp  %o0, 6
    5214:	02 80 00 62 	be  539c <read_6>
    5218:	01 00 00 00 	nop 
    521c:	80 a2 20 05 	cmp  %o0, 5
    5220:	02 80 00 62 	be  53a8 <read_5>
    5224:	01 00 00 00 	nop 
    5228:	80 a2 20 04 	cmp  %o0, 4
    522c:	02 80 00 62 	be  53b4 <read_4>
    5230:	01 00 00 00 	nop 
    5234:	80 a2 20 03 	cmp  %o0, 3
    5238:	02 80 00 62 	be  53c0 <read_3>
    523c:	01 00 00 00 	nop 
    5240:	80 a2 20 02 	cmp  %o0, 2
    5244:	02 80 00 62 	be  53cc <read_2>
    5248:	01 00 00 00 	nop 
    524c:	80 a2 20 01 	cmp  %o0, 1
    5250:	02 80 00 62 	be  53d8 <read_1>
    5254:	01 00 00 00 	nop 
    5258:	80 a2 20 00 	cmp  %o0, 0
    525c:	02 80 00 62 	be  53e4 <read_0>
    5260:	01 00 00 00 	nop 
    5264:	90 10 00 00 	mov  %g0, %o0
    5268:	10 80 00 62 	b  53f0 <ret_block>
    526c:	01 00 00 00 	nop 

00005270 <read_31>:
    5270:	91 47 c0 00 	rd  %asr31, %o0
    5274:	10 80 00 5f 	b  53f0 <ret_block>
    5278:	01 00 00 00 	nop 

0000527c <read_30>:
    527c:	91 47 80 00 	rd  %asr30, %o0
    5280:	10 80 00 5c 	b  53f0 <ret_block>
    5284:	01 00 00 00 	nop 

00005288 <read_29>:
    5288:	91 47 40 00 	rd  %asr29, %o0
    528c:	10 80 00 59 	b  53f0 <ret_block>
    5290:	01 00 00 00 	nop 

00005294 <read_28>:
    5294:	91 47 00 00 	rd  %asr28, %o0
    5298:	10 80 00 56 	b  53f0 <ret_block>
    529c:	01 00 00 00 	nop 

000052a0 <read_27>:
    52a0:	91 46 c0 00 	rd  %asr27, %o0
    52a4:	10 80 00 53 	b  53f0 <ret_block>
    52a8:	01 00 00 00 	nop 

000052ac <read_26>:
    52ac:	91 46 80 00 	rd  %asr26, %o0
    52b0:	10 80 00 50 	b  53f0 <ret_block>
    52b4:	01 00 00 00 	nop 

000052b8 <read_25>:
    52b8:	91 46 40 00 	rd  %asr25, %o0
    52bc:	10 80 00 4d 	b  53f0 <ret_block>
    52c0:	01 00 00 00 	nop 

000052c4 <read_24>:
    52c4:	91 46 00 00 	rd  %asr24, %o0
    52c8:	10 80 00 4a 	b  53f0 <ret_block>
    52cc:	01 00 00 00 	nop 

000052d0 <read_23>:
    52d0:	91 45 c0 00 	rd  %asr23, %o0
    52d4:	10 80 00 47 	b  53f0 <ret_block>
    52d8:	01 00 00 00 	nop 

000052dc <read_22>:
    52dc:	91 45 80 00 	rd  %asr22, %o0
    52e0:	10 80 00 44 	b  53f0 <ret_block>
    52e4:	01 00 00 00 	nop 

000052e8 <read_21>:
    52e8:	91 45 40 00 	rd  %asr21, %o0
    52ec:	10 80 00 41 	b  53f0 <ret_block>
    52f0:	01 00 00 00 	nop 

000052f4 <read_20>:
    52f4:	91 45 00 00 	rd  %asr20, %o0
    52f8:	10 80 00 3e 	b  53f0 <ret_block>
    52fc:	01 00 00 00 	nop 

00005300 <read_19>:
    5300:	91 44 c0 00 	rd  %asr19, %o0
    5304:	10 80 00 3b 	b  53f0 <ret_block>
    5308:	01 00 00 00 	nop 

0000530c <read_18>:
    530c:	91 44 80 00 	rd  %asr18, %o0
    5310:	10 80 00 38 	b  53f0 <ret_block>
    5314:	01 00 00 00 	nop 

00005318 <read_17>:
    5318:	91 44 40 00 	rd  %asr17, %o0
    531c:	10 80 00 35 	b  53f0 <ret_block>
    5320:	01 00 00 00 	nop 

00005324 <read_16>:
    5324:	91 44 00 00 	rd  %asr16, %o0
    5328:	10 80 00 32 	b  53f0 <ret_block>
    532c:	01 00 00 00 	nop 

00005330 <read_15>:
    5330:	91 43 c0 00 	rd  %asr15, %o0
    5334:	10 80 00 2f 	b  53f0 <ret_block>
    5338:	01 00 00 00 	nop 

0000533c <read_14>:
    533c:	91 43 80 00 	rd  %asr14, %o0
    5340:	10 80 00 2c 	b  53f0 <ret_block>
    5344:	01 00 00 00 	nop 

00005348 <read_13>:
    5348:	91 43 40 00 	rd  %asr13, %o0
    534c:	10 80 00 29 	b  53f0 <ret_block>
    5350:	01 00 00 00 	nop 

00005354 <read_12>:
    5354:	91 43 00 00 	rd  %asr12, %o0
    5358:	10 80 00 26 	b  53f0 <ret_block>
    535c:	01 00 00 00 	nop 

00005360 <read_11>:
    5360:	91 42 c0 00 	rd  %asr11, %o0
    5364:	10 80 00 23 	b  53f0 <ret_block>
    5368:	01 00 00 00 	nop 

0000536c <read_10>:
    536c:	91 42 80 00 	rd  %asr10, %o0
    5370:	10 80 00 20 	b  53f0 <ret_block>
    5374:	01 00 00 00 	nop 

00005378 <read_9>:
    5378:	91 42 40 00 	rd  %asr9, %o0
    537c:	10 80 00 1d 	b  53f0 <ret_block>
    5380:	01 00 00 00 	nop 

00005384 <read_8>:
    5384:	91 42 00 00 	rd  %asr8, %o0
    5388:	10 80 00 1a 	b  53f0 <ret_block>
    538c:	01 00 00 00 	nop 

00005390 <read_7>:
    5390:	91 41 c0 00 	rd  %asr7, %o0
    5394:	10 80 00 17 	b  53f0 <ret_block>
    5398:	01 00 00 00 	nop 

0000539c <read_6>:
    539c:	91 41 80 00 	rd  %asr6, %o0
    53a0:	10 80 00 14 	b  53f0 <ret_block>
    53a4:	01 00 00 00 	nop 

000053a8 <read_5>:
    53a8:	91 41 40 00 	rd  %asr5, %o0
    53ac:	10 80 00 11 	b  53f0 <ret_block>
    53b0:	01 00 00 00 	nop 

000053b4 <read_4>:
    53b4:	91 41 00 00 	rd  %asr4, %o0
    53b8:	10 80 00 0e 	b  53f0 <ret_block>
    53bc:	01 00 00 00 	nop 

000053c0 <read_3>:
    53c0:	91 40 c0 00 	rd  %asr3, %o0
    53c4:	10 80 00 0b 	b  53f0 <ret_block>
    53c8:	01 00 00 00 	nop 

000053cc <read_2>:
    53cc:	91 40 80 00 	rd  %asr2, %o0
    53d0:	10 80 00 08 	b  53f0 <ret_block>
    53d4:	01 00 00 00 	nop 

000053d8 <read_1>:
    53d8:	91 40 40 00 	rd  %asr1, %o0
    53dc:	10 80 00 05 	b  53f0 <ret_block>
    53e0:	01 00 00 00 	nop 

000053e4 <read_0>:
    53e4:	91 40 00 00 	rd  %y, %o0
    53e8:	10 80 00 02 	b  53f0 <ret_block>
    53ec:	01 00 00 00 	nop 

000053f0 <ret_block>:
    53f0:	81 e0 00 00 	save 
    53f4:	81 c4 80 00 	jmp  %l2
    53f8:	81 cc a0 04 	rett  %l2 + 4
    53fc:	01 00 00 00 	nop 

00005400 <ajit_sys_read_asr>:
    5400:	91 d0 20 10 	ta  0x10
    5404:	01 00 00 00 	nop 
    5408:	81 c3 e0 08 	retl 
    540c:	01 00 00 00 	nop 
	...

00005800 <page_table_setup>:
    5800:	03 00 00 18 	sethi  %hi(0x6000), %g1
    5804:	82 10 60 00 	mov  %g1, %g1	! 6000 <PAGE_TABLE_BASE>
    5808:	88 10 24 00 	mov  0x400, %g4
    580c:	88 00 40 04 	add  %g1, %g4, %g4
    5810:	89 31 20 04 	srl  %g4, 4, %g4
    5814:	88 11 20 01 	or  %g4, 1, %g4
    5818:	8a 10 28 00 	mov  0x800, %g5
    581c:	86 01 40 01 	add  %g5, %g1, %g3
    5820:	c8 20 c0 00 	st  %g4, [ %g3 ]
    5824:	88 10 21 00 	mov  0x100, %g4
    5828:	88 00 40 04 	add  %g1, %g4, %g4
    582c:	89 31 20 04 	srl  %g4, 4, %g4
    5830:	88 11 20 01 	or  %g4, 1, %g4
    5834:	8a 10 24 00 	mov  0x400, %g5
    5838:	86 01 40 01 	add  %g5, %g1, %g3
    583c:	c8 20 c0 00 	st  %g4, [ %g3 ]
    5840:	88 10 20 00 	clr  %g4
    5844:	88 00 40 04 	add  %g1, %g4, %g4
    5848:	89 31 20 04 	srl  %g4, 4, %g4
    584c:	88 11 20 01 	or  %g4, 1, %g4
    5850:	8a 10 21 00 	mov  0x100, %g5
    5854:	86 01 40 01 	add  %g5, %g1, %g3
    5858:	c8 20 c0 00 	st  %g4, [ %g3 ]
    585c:	84 10 20 8a 	mov  0x8a, %g2
    5860:	8a 10 20 00 	clr  %g5
    5864:	86 01 40 01 	add  %g5, %g1, %g3
    5868:	c4 20 c0 00 	st  %g2, [ %g3 ]
    586c:	84 10 21 8a 	mov  0x18a, %g2
    5870:	8a 10 20 04 	mov  4, %g5
    5874:	86 01 40 01 	add  %g5, %g1, %g3
    5878:	c4 20 c0 00 	st  %g2, [ %g3 ]
    587c:	84 10 22 8a 	mov  0x28a, %g2
    5880:	8a 10 20 08 	mov  8, %g5
    5884:	86 01 40 01 	add  %g5, %g1, %g3
    5888:	c4 20 c0 00 	st  %g2, [ %g3 ]
    588c:	84 10 23 8a 	mov  0x38a, %g2
    5890:	8a 10 20 0c 	mov  0xc, %g5
    5894:	86 01 40 01 	add  %g5, %g1, %g3
    5898:	c4 20 c0 00 	st  %g2, [ %g3 ]
    589c:	84 10 24 8a 	mov  0x48a, %g2
    58a0:	8a 10 20 10 	mov  0x10, %g5
    58a4:	86 01 40 01 	add  %g5, %g1, %g3
    58a8:	c4 20 c0 00 	st  %g2, [ %g3 ]
    58ac:	84 10 25 8a 	mov  0x58a, %g2
    58b0:	8a 10 20 14 	mov  0x14, %g5
    58b4:	86 01 40 01 	add  %g5, %g1, %g3
    58b8:	c4 20 c0 00 	st  %g2, [ %g3 ]
    58bc:	84 10 26 8a 	mov  0x68a, %g2
    58c0:	8a 10 20 18 	mov  0x18, %g5
    58c4:	86 01 40 01 	add  %g5, %g1, %g3
    58c8:	c4 20 c0 00 	st  %g2, [ %g3 ]
    58cc:	84 10 27 8a 	mov  0x78a, %g2
    58d0:	8a 10 20 1c 	mov  0x1c, %g5
    58d4:	86 01 40 01 	add  %g5, %g1, %g3
    58d8:	c4 20 c0 00 	st  %g2, [ %g3 ]
    58dc:	84 10 28 8a 	mov  0x88a, %g2
    58e0:	8a 10 20 20 	mov  0x20, %g5
    58e4:	86 01 40 01 	add  %g5, %g1, %g3
    58e8:	c4 20 c0 00 	st  %g2, [ %g3 ]
    58ec:	84 10 29 8a 	mov  0x98a, %g2
    58f0:	8a 10 20 24 	mov  0x24, %g5
    58f4:	86 01 40 01 	add  %g5, %g1, %g3
    58f8:	c4 20 c0 00 	st  %g2, [ %g3 ]
    58fc:	84 10 2a 8e 	mov  0xa8e, %g2
    5900:	8a 10 20 28 	mov  0x28, %g5
    5904:	86 01 40 01 	add  %g5, %g1, %g3
    5908:	c4 20 c0 00 	st  %g2, [ %g3 ]
    590c:	84 10 2b 8e 	mov  0xb8e, %g2
    5910:	8a 10 20 2c 	mov  0x2c, %g5
    5914:	86 01 40 01 	add  %g5, %g1, %g3
    5918:	c4 20 c0 00 	st  %g2, [ %g3 ]
    591c:	84 10 2c 8e 	mov  0xc8e, %g2
    5920:	8a 10 20 30 	mov  0x30, %g5
    5924:	86 01 40 01 	add  %g5, %g1, %g3
    5928:	c4 20 c0 00 	st  %g2, [ %g3 ]
    592c:	84 10 2d 0e 	mov  0xd0e, %g2
    5930:	8a 10 20 34 	mov  0x34, %g5
    5934:	86 01 40 01 	add  %g5, %g1, %g3
    5938:	c4 20 c0 00 	st  %g2, [ %g3 ]
    593c:	84 10 2e 8e 	mov  0xe8e, %g2
    5940:	8a 10 20 38 	mov  0x38, %g5
    5944:	86 01 40 01 	add  %g5, %g1, %g3
    5948:	c4 20 c0 00 	st  %g2, [ %g3 ]
    594c:	84 10 2f 8e 	mov  0xf8e, %g2
    5950:	8a 10 20 3c 	mov  0x3c, %g5
    5954:	86 01 40 01 	add  %g5, %g1, %g3
    5958:	c4 20 c0 00 	st  %g2, [ %g3 ]
    595c:	05 00 00 04 	sethi  %hi(0x1000), %g2
    5960:	84 10 a0 8e 	or  %g2, 0x8e, %g2	! 108e <ee_vsprintf+0x3c6>
    5964:	8a 10 20 40 	mov  0x40, %g5
    5968:	86 01 40 01 	add  %g5, %g1, %g3
    596c:	c4 20 c0 00 	st  %g2, [ %g3 ]
    5970:	05 00 00 04 	sethi  %hi(0x1000), %g2
    5974:	84 10 a1 8e 	or  %g2, 0x18e, %g2	! 118e <ee_vsprintf+0x4c6>
    5978:	8a 10 20 44 	mov  0x44, %g5
    597c:	86 01 40 01 	add  %g5, %g1, %g3
    5980:	c4 20 c0 00 	st  %g2, [ %g3 ]
    5984:	05 00 00 04 	sethi  %hi(0x1000), %g2
    5988:	84 10 a2 8e 	or  %g2, 0x28e, %g2	! 128e <ee_vsprintf+0x5c6>
    598c:	8a 10 20 48 	mov  0x48, %g5
    5990:	86 01 40 01 	add  %g5, %g1, %g3
    5994:	c4 20 c0 00 	st  %g2, [ %g3 ]
    5998:	05 00 00 04 	sethi  %hi(0x1000), %g2
    599c:	84 10 a3 8e 	or  %g2, 0x38e, %g2	! 138e <ee_vsprintf+0x6c6>
    59a0:	8a 10 20 4c 	mov  0x4c, %g5
    59a4:	86 01 40 01 	add  %g5, %g1, %g3
    59a8:	c4 20 c0 00 	st  %g2, [ %g3 ]
    59ac:	05 00 00 05 	sethi  %hi(0x1400), %g2
    59b0:	84 10 a0 8e 	or  %g2, 0x8e, %g2	! 148e <ee_vsprintf+0x7c6>
    59b4:	8a 10 20 50 	mov  0x50, %g5
    59b8:	86 01 40 01 	add  %g5, %g1, %g3
    59bc:	c4 20 c0 00 	st  %g2, [ %g3 ]
    59c0:	05 00 00 05 	sethi  %hi(0x1400), %g2
    59c4:	84 10 a1 8e 	or  %g2, 0x18e, %g2	! 158e <ee_vsprintf+0x8c6>
    59c8:	8a 10 20 54 	mov  0x54, %g5
    59cc:	86 01 40 01 	add  %g5, %g1, %g3
    59d0:	c4 20 c0 00 	st  %g2, [ %g3 ]
    59d4:	05 00 00 05 	sethi  %hi(0x1400), %g2
    59d8:	84 10 a2 8e 	or  %g2, 0x28e, %g2	! 168e <ee_vsprintf+0x9c6>
    59dc:	8a 10 20 58 	mov  0x58, %g5
    59e0:	86 01 40 01 	add  %g5, %g1, %g3
    59e4:	c4 20 c0 00 	st  %g2, [ %g3 ]
    59e8:	05 00 00 05 	sethi  %hi(0x1400), %g2
    59ec:	84 10 a3 8e 	or  %g2, 0x38e, %g2	! 178e <ee_vsprintf+0xac6>
    59f0:	8a 10 20 5c 	mov  0x5c, %g5
    59f4:	86 01 40 01 	add  %g5, %g1, %g3
    59f8:	c4 20 c0 00 	st  %g2, [ %g3 ]
    59fc:	05 00 00 06 	sethi  %hi(0x1800), %g2
    5a00:	84 10 a0 8e 	or  %g2, 0x8e, %g2	! 188e <ee_vsprintf+0xbc6>
    5a04:	8a 10 20 60 	mov  0x60, %g5
    5a08:	86 01 40 01 	add  %g5, %g1, %g3
    5a0c:	c4 20 c0 00 	st  %g2, [ %g3 ]
    5a10:	05 00 00 06 	sethi  %hi(0x1800), %g2
    5a14:	84 10 a1 8e 	or  %g2, 0x18e, %g2	! 198e <ee_printf+0x6a>
    5a18:	8a 10 20 64 	mov  0x64, %g5
    5a1c:	86 01 40 01 	add  %g5, %g1, %g3
    5a20:	c4 20 c0 00 	st  %g2, [ %g3 ]
    5a24:	05 00 00 06 	sethi  %hi(0x1800), %g2
    5a28:	84 10 a2 8e 	or  %g2, 0x28e, %g2	! 1a8e <cvt+0xfe>
    5a2c:	8a 10 20 68 	mov  0x68, %g5
    5a30:	86 01 40 01 	add  %g5, %g1, %g3
    5a34:	c4 20 c0 00 	st  %g2, [ %g3 ]
    5a38:	05 00 00 06 	sethi  %hi(0x1800), %g2
    5a3c:	84 10 a3 8e 	or  %g2, 0x38e, %g2	! 1b8e <cvt+0x1fe>
    5a40:	8a 10 20 6c 	mov  0x6c, %g5
    5a44:	86 01 40 01 	add  %g5, %g1, %g3
    5a48:	c4 20 c0 00 	st  %g2, [ %g3 ]
    5a4c:	05 00 00 07 	sethi  %hi(0x1c00), %g2
    5a50:	84 10 a0 8e 	or  %g2, 0x8e, %g2	! 1c8e <ecvt+0xe>
    5a54:	8a 10 20 70 	mov  0x70, %g5
    5a58:	86 01 40 01 	add  %g5, %g1, %g3
    5a5c:	c4 20 c0 00 	st  %g2, [ %g3 ]
    5a60:	05 00 00 07 	sethi  %hi(0x1c00), %g2
    5a64:	84 10 a1 8e 	or  %g2, 0x18e, %g2	! 1d8e <readInterruptControlRegister+0x6>
    5a68:	8a 10 20 74 	mov  0x74, %g5
    5a6c:	86 01 40 01 	add  %g5, %g1, %g3
    5a70:	c4 20 c0 00 	st  %g2, [ %g3 ]
    5a74:	05 00 00 07 	sethi  %hi(0x1c00), %g2
    5a78:	84 10 a2 8e 	or  %g2, 0x28e, %g2	! 1e8e <enableInterrupt+0x6>
    5a7c:	8a 10 20 78 	mov  0x78, %g5
    5a80:	86 01 40 01 	add  %g5, %g1, %g3
    5a84:	c4 20 c0 00 	st  %g2, [ %g3 ]
    5a88:	05 00 00 07 	sethi  %hi(0x1c00), %g2
    5a8c:	84 10 a3 8e 	or  %g2, 0x38e, %g2	! 1f8e <cortos_bget+0xe>
    5a90:	8a 10 20 7c 	mov  0x7c, %g5
    5a94:	86 01 40 01 	add  %g5, %g1, %g3
    5a98:	c4 20 c0 00 	st  %g2, [ %g3 ]
    5a9c:	05 00 00 08 	sethi  %hi(0x2000), %g2
    5aa0:	84 10 a0 8e 	or  %g2, 0x8e, %g2	! 208e <bget+0x26>
    5aa4:	8a 10 20 80 	mov  0x80, %g5
    5aa8:	86 01 40 01 	add  %g5, %g1, %g3
    5aac:	c4 20 c0 00 	st  %g2, [ %g3 ]
    5ab0:	05 00 00 08 	sethi  %hi(0x2000), %g2
    5ab4:	84 10 a1 8e 	or  %g2, 0x18e, %g2	! 218e <brel+0x22>
    5ab8:	8a 10 20 84 	mov  0x84, %g5
    5abc:	86 01 40 01 	add  %g5, %g1, %g3
    5ac0:	c4 20 c0 00 	st  %g2, [ %g3 ]
    5ac4:	05 00 00 08 	sethi  %hi(0x2000), %g2
    5ac8:	84 10 a2 8e 	or  %g2, 0x28e, %g2	! 228e <__ajit_clear_all_gp_registers__+0x12>
    5acc:	8a 10 20 88 	mov  0x88, %g5
    5ad0:	86 01 40 01 	add  %g5, %g1, %g3
    5ad4:	c4 20 c0 00 	st  %g2, [ %g3 ]
    5ad8:	05 00 00 08 	sethi  %hi(0x2000), %g2
    5adc:	84 10 a3 8e 	or  %g2, 0x38e, %g2	! 238e <ajit_write_to_scratch_pad+0x6>
    5ae0:	8a 10 20 8c 	mov  0x8c, %g5
    5ae4:	86 01 40 01 	add  %g5, %g1, %g3
    5ae8:	c4 20 c0 00 	st  %g2, [ %g3 ]
    5aec:	05 00 00 09 	sethi  %hi(0x2400), %g2
    5af0:	84 10 a0 8e 	or  %g2, 0x8e, %g2	! 248e <ajit_read_thread_descriptor+0x22>
    5af4:	8a 10 20 90 	mov  0x90, %g5
    5af8:	86 01 40 01 	add  %g5, %g1, %g3
    5afc:	c4 20 c0 00 	st  %g2, [ %g3 ]
    5b00:	05 00 00 09 	sethi  %hi(0x2400), %g2
    5b04:	84 10 a1 8e 	or  %g2, 0x18e, %g2	! 258e <__ajit_read_cycle_count_register_low__+0x2>
    5b08:	8a 10 20 94 	mov  0x94, %g5
    5b0c:	86 01 40 01 	add  %g5, %g1, %g3
    5b10:	c4 20 c0 00 	st  %g2, [ %g3 ]
    5b14:	05 00 00 09 	sethi  %hi(0x2400), %g2
    5b18:	84 10 a2 8e 	or  %g2, 0x28e, %g2	! 268e <__ajit_store_word_to_physical_address__+0x2a>
    5b1c:	8a 10 20 98 	mov  0x98, %g5
    5b20:	86 01 40 01 	add  %g5, %g1, %g3
    5b24:	c4 20 c0 00 	st  %g2, [ %g3 ]
    5b28:	05 00 00 09 	sethi  %hi(0x2400), %g2
    5b2c:	84 10 a3 92 	or  %g2, 0x392, %g2	! 2792 <__ajit_load_word_from_physical_address__+0x4a>
    5b30:	8a 10 20 9c 	mov  0x9c, %g5
    5b34:	86 01 40 01 	add  %g5, %g1, %g3
    5b38:	c4 20 c0 00 	st  %g2, [ %g3 ]
    5b3c:	05 00 00 0a 	sethi  %hi(0x2800), %g2
    5b40:	84 10 a0 8e 	or  %g2, 0x8e, %g2	! 288e <__ajit_write_timer_control_register_via_vmap__+0xa>
    5b44:	8a 10 20 a0 	mov  0xa0, %g5
    5b48:	86 01 40 01 	add  %g5, %g1, %g3
    5b4c:	c4 20 c0 00 	st  %g2, [ %g3 ]
    5b50:	05 00 00 0a 	sethi  %hi(0x2800), %g2
    5b54:	84 10 a1 8e 	or  %g2, 0x18e, %g2	! 298e <__ajit_serial_set_baudrate__+0x36>
    5b58:	8a 10 20 a4 	mov  0xa4, %g5
    5b5c:	86 01 40 01 	add  %g5, %g1, %g3
    5b60:	c4 20 c0 00 	st  %g2, [ %g3 ]
    5b64:	05 00 00 0a 	sethi  %hi(0x2800), %g2
    5b68:	84 10 a2 8e 	or  %g2, 0x28e, %g2	! 2a8e <__ajit_serial_set_baudrate_via_vmap__+0x4a>
    5b6c:	8a 10 20 a8 	mov  0xa8, %g5
    5b70:	86 01 40 01 	add  %g5, %g1, %g3
    5b74:	c4 20 c0 00 	st  %g2, [ %g3 ]
    5b78:	05 00 00 0a 	sethi  %hi(0x2800), %g2
    5b7c:	84 10 a3 8e 	or  %g2, 0x38e, %g2	! 2b8e <calculate_baud_control_values_for_uart+0x72>
    5b80:	8a 10 20 ac 	mov  0xac, %g5
    5b84:	86 01 40 01 	add  %g5, %g1, %g3
    5b88:	c4 20 c0 00 	st  %g2, [ %g3 ]
    5b8c:	05 00 00 0b 	sethi  %hi(0x2c00), %g2
    5b90:	84 10 a0 92 	or  %g2, 0x92, %g2	! 2c92 <__ajit_serial_set_baudrate_inner__+0x26>
    5b94:	8a 10 20 b0 	mov  0xb0, %g5
    5b98:	86 01 40 01 	add  %g5, %g1, %g3
    5b9c:	c4 20 c0 00 	st  %g2, [ %g3 ]
    5ba0:	05 00 00 80 	sethi  %hi(0x20000), %g2
    5ba4:	84 10 a0 16 	or  %g2, 0x16, %g2	! 20016 <ajit_global_interrupt_handlers+0x14d6e>
    5ba8:	8a 10 21 20 	mov  0x120, %g5
    5bac:	86 01 40 01 	add  %g5, %g1, %g3
    5bb0:	c4 20 c0 00 	st  %g2, [ %g3 ]
    5bb4:	05 00 00 90 	sethi  %hi(0x24000), %g2
    5bb8:	84 10 a0 16 	or  %g2, 0x16, %g2	! 24016 <ajit_global_interrupt_handlers+0x18d6e>
    5bbc:	8a 10 21 24 	mov  0x124, %g5
    5bc0:	86 01 40 01 	add  %g5, %g1, %g3
    5bc4:	c4 20 c0 00 	st  %g2, [ %g3 ]
    5bc8:	05 00 00 a0 	sethi  %hi(0x28000), %g2
    5bcc:	84 10 a0 16 	or  %g2, 0x16, %g2	! 28016 <ajit_global_interrupt_handlers+0x1cd6e>
    5bd0:	8a 10 21 28 	mov  0x128, %g5
    5bd4:	86 01 40 01 	add  %g5, %g1, %g3
    5bd8:	c4 20 c0 00 	st  %g2, [ %g3 ]
    5bdc:	05 00 00 b0 	sethi  %hi(0x2c000), %g2
    5be0:	84 10 a0 16 	or  %g2, 0x16, %g2	! 2c016 <ajit_global_interrupt_handlers+0x20d6e>
    5be4:	8a 10 21 2c 	mov  0x12c, %g5
    5be8:	86 01 40 01 	add  %g5, %g1, %g3
    5bec:	c4 20 c0 00 	st  %g2, [ %g3 ]
