
.//main.elf:     file format elf32-sparc


Disassembly of section .text:

00000000 <_start>:
       0:	40 00 00 96 	call  258 <clear_stack_pointers>
       4:	01 00 00 00 	nop 

00000008 <CORTOS_SET_PSR>:
       8:	21 00 00 04 	sethi  %hi(0x1000), %l0
       c:	a0 14 20 e0 	or  %l0, 0xe0, %l0	! 10e0 <ee_vsprintf+0x43c>
      10:	81 88 00 10 	mov  %l0, %psr

00000014 <COROTS_WIMSET>:
      14:	a0 10 20 01 	mov  1, %l0
      18:	81 94 20 00 	mov  %l0, %wim
      1c:	21 00 00 1c 	sethi  %hi(0x7000), %l0
      20:	a0 14 20 00 	mov  %l0, %l0	! 7000 <trap_table_base>
      24:	81 9c 20 00 	mov  %l0, %tbr

00000028 <CORTOS_READ_CORE_THREAD_ID>:
      28:	a3 47 40 00 	rd  %asr29, %l1

0000002c <CORTOS_SETUP_THREADS>:
      2c:	25 14 14 80 	sethi  %hi(0x50520000), %l2
      30:	80 a4 40 12 	cmp  %l1, %l2
      34:	12 80 00 85 	bne  248 <CORTOS_HALT_ERROR>
      38:	01 00 00 00 	nop 
      3c:	1d 18 3f ff 	sethi  %hi(0x60fffc00), %sp
      40:	9c 13 a3 a0 	or  %sp, 0x3a0, %sp	! 60ffffa0 <ajit_global_interrupt_handlers+0x60ff4cf8>
      44:	bc 10 00 00 	mov  %g0, %fp
      48:	05 00 00 28 	sethi  %hi(0xa000), %g2
      4c:	84 10 a1 50 	or  %g2, 0x150, %g2	! a150 <INIT_BY_00_DONE>
      50:	c4 00 80 00 	ld  [ %g2 ], %g2
      54:	86 10 20 00 	clr  %g3
      58:	c6 20 80 00 	st  %g3, [ %g2 ]
      5c:	05 00 00 28 	sethi  %hi(0xa000), %g2
      60:	84 10 a1 4c 	or  %g2, 0x14c, %g2	! a14c <PT_FLAG>
      64:	c4 00 80 00 	ld  [ %g2 ], %g2
      68:	86 10 20 00 	clr  %g3
      6c:	c6 20 80 00 	st  %g3, [ %g2 ]
      70:	40 00 00 4f 	call  1ac <__cortos_init_region_to_zero>
      74:	01 00 00 00 	nop 
      78:	40 00 12 e2 	call  4c00 <page_table_setup>
      7c:	01 00 00 00 	nop 
      80:	2d 00 00 28 	sethi  %hi(0xa000), %l6
      84:	ac 15 a1 4c 	or  %l6, 0x14c, %l6	! a14c <PT_FLAG>
      88:	ec 05 80 00 	ld  [ %l6 ], %l6
      8c:	ae 10 20 01 	mov  1, %l7
      90:	ee 25 80 00 	st  %l7, [ %l6 ]
      94:	40 00 00 a4 	call  324 <cortos_init_locks>
      98:	01 00 00 00 	nop 
      9c:	40 00 07 9f 	call  1f18 <__cortos_bpool>
      a0:	01 00 00 00 	nop 
      a4:	40 00 07 c2 	call  1fac <__cortos_bpool_ncram>
      a8:	01 00 00 00 	nop 
      ac:	40 00 01 fe 	call  8a4 <cortos_init_hw_traps>
      b0:	01 00 00 00 	nop 
      b4:	40 00 02 01 	call  8b8 <cortos_init_sw_traps>
      b8:	01 00 00 00 	nop 
      bc:	40 00 01 2b 	call  568 <__cortos_enable_serial_interrupt>
      c0:	01 00 00 00 	nop 
      c4:	40 00 00 e5 	call  458 <cortos_init_printing>
      c8:	01 00 00 00 	nop 
      cc:	40 00 01 b7 	call  7a8 <cortos_init_logging>
      d0:	01 00 00 00 	nop 
      d4:	05 00 00 28 	sethi  %hi(0xa000), %g2
      d8:	84 10 a1 50 	or  %g2, 0x150, %g2	! a150 <INIT_BY_00_DONE>
      dc:	c4 00 80 00 	ld  [ %g2 ], %g2
      e0:	86 10 20 01 	mov  1, %g3
      e4:	c6 20 80 00 	st  %g3, [ %g2 ]
      e8:	a3 47 40 00 	rd  %asr29, %l1
      ec:	10 80 00 02 	b  f4 <AFTER_PTABLE_SETUP>
      f0:	01 00 00 00 	nop 

000000f4 <AFTER_PTABLE_SETUP>:
      f4:	2d 00 00 28 	sethi  %hi(0xa000), %l6
      f8:	ac 15 a1 4c 	or  %l6, 0x14c, %l6	! a14c <PT_FLAG>
      fc:	ec 05 80 00 	ld  [ %l6 ], %l6
     100:	ee 05 80 00 	ld  [ %l6 ], %l7
     104:	b0 10 20 01 	mov  1, %i0
     108:	80 a6 00 17 	cmp  %i0, %l7
     10c:	12 bf ff fa 	bne  f4 <AFTER_PTABLE_SETUP>
     110:	01 00 00 00 	nop 
     114:	40 00 15 e3 	call  58a0 <set_context_table_pointer>
     118:	01 00 00 00 	nop 
     11c:	90 10 20 01 	mov  1, %o0	! 1 <_start+0x1>
     120:	d0 a0 00 80 	sta  %o0, [ %g0 ] #ASI_N
     124:	10 80 00 07 	b  140 <CORTOS_START_THREADS>
     128:	01 00 00 00 	nop 

0000012c <WAIT_UNTIL_MMU_IS_ENABLED>:
     12c:	90 10 20 01 	mov  1, %o0	! 1 <_start+0x1>
     130:	d0 80 00 80 	lda  [ %g0 ] #ASI_N, %o0
     134:	90 8a 20 01 	andcc  %o0, 1, %o0
     138:	02 bf ff fd 	be  12c <WAIT_UNTIL_MMU_IS_ENABLED>
     13c:	01 00 00 00 	nop 

00000140 <CORTOS_START_THREADS>:
     140:	25 14 14 80 	sethi  %hi(0x50520000), %l2
     144:	80 a4 40 12 	cmp  %l1, %l2
     148:	12 80 00 40 	bne  248 <CORTOS_HALT_ERROR>
     14c:	01 00 00 00 	nop 
     150:	40 00 1f ac 	call  8000 <main>
     154:	01 00 00 00 	nop 

00000158 <START_THREAD_0_0_LOOP>:
     158:	10 80 00 3e 	b  250 <CORTOS_HALT_OKAY>
     15c:	01 00 00 00 	nop 

00000160 <__cortos_clear_stack_pointers>:
     160:	81 90 00 00 	mov  %g0, %wim
     164:	9c 10 00 00 	mov  %g0, %sp
     168:	81 e0 00 00 	save 
     16c:	9c 10 00 00 	mov  %g0, %sp
     170:	81 e0 00 00 	save 
     174:	9c 10 00 00 	mov  %g0, %sp
     178:	81 e0 00 00 	save 
     17c:	9c 10 00 00 	mov  %g0, %sp
     180:	81 e0 00 00 	save 
     184:	9c 10 00 00 	mov  %g0, %sp
     188:	81 e0 00 00 	save 
     18c:	9c 10 00 00 	mov  %g0, %sp
     190:	81 e0 00 00 	save 
     194:	9c 10 00 00 	mov  %g0, %sp
     198:	81 e0 00 00 	save 
     19c:	9c 10 00 00 	mov  %g0, %sp
     1a0:	81 e0 00 00 	save 
     1a4:	81 c3 e0 08 	retl 
     1a8:	01 00 00 00 	nop 

000001ac <__cortos_init_region_to_zero>:
     1ac:	21 00 00 2c 	sethi  %hi(0xb000), %l0
     1b0:	a0 14 20 00 	mov  %l0, %l0	! b000 <printingLockAddr>
     1b4:	25 00 00 30 	sethi  %hi(0xc000), %l2
     1b8:	a4 14 a0 00 	mov  %l2, %l2	! c000 <ajit_global_interrupt_handlers+0xd58>
     1bc:	a4 24 a0 04 	sub  %l2, 4, %l2

000001c0 <_cortos_zero_init_area_BssSection>:
     1c0:	c0 2c 00 00 	clrb  [ %l0 ]
     1c4:	80 a4 00 12 	cmp  %l0, %l2
     1c8:	12 bf ff fe 	bne  1c0 <_cortos_zero_init_area_BssSection>
     1cc:	a0 04 20 01 	inc  %l0
     1d0:	21 00 00 30 	sethi  %hi(0xc000), %l0
     1d4:	a0 14 20 00 	mov  %l0, %l0	! c000 <ajit_global_interrupt_handlers+0xd58>
     1d8:	25 00 00 34 	sethi  %hi(0xd000), %l2
     1dc:	a4 14 a0 00 	mov  %l2, %l2	! d000 <ajit_global_interrupt_handlers+0x1d58>
     1e0:	a4 24 a0 04 	sub  %l2, 4, %l2

000001e4 <_cortos_zero_init_area_CacheableLocks>:
     1e4:	c0 2c 00 00 	clrb  [ %l0 ]
     1e8:	80 a4 00 12 	cmp  %l0, %l2
     1ec:	12 bf ff fe 	bne  1e4 <_cortos_zero_init_area_CacheableLocks>
     1f0:	a0 04 20 01 	inc  %l0
     1f4:	21 00 00 34 	sethi  %hi(0xd000), %l0
     1f8:	a0 14 20 00 	mov  %l0, %l0	! d000 <ajit_global_interrupt_handlers+0x1d58>
     1fc:	25 00 00 38 	sethi  %hi(0xe000), %l2
     200:	a4 14 a0 00 	mov  %l2, %l2	! e000 <ajit_global_interrupt_handlers+0x2d58>
     204:	a4 24 a0 04 	sub  %l2, 4, %l2

00000208 <_cortos_zero_init_area_NonCacheableLocks>:
     208:	c0 2c 00 00 	clrb  [ %l0 ]
     20c:	80 a4 00 12 	cmp  %l0, %l2
     210:	12 bf ff fe 	bne  208 <_cortos_zero_init_area_NonCacheableLocks>
     214:	a0 04 20 01 	inc  %l0
     218:	81 c3 e0 08 	retl 
     21c:	01 00 00 00 	nop 

00000220 <__cortos_wait_for_init_by_00>:
     220:	2d 00 00 28 	sethi  %hi(0xa000), %l6
     224:	ac 15 a1 50 	or  %l6, 0x150, %l6	! a150 <INIT_BY_00_DONE>
     228:	ec 05 80 00 	ld  [ %l6 ], %l6

0000022c <_CORTOS_WAIT_FOR_INIT_BY_00>:
     22c:	ee 05 80 00 	ld  [ %l6 ], %l7
     230:	b0 10 20 01 	mov  1, %i0
     234:	80 a6 00 17 	cmp  %i0, %l7
     238:	12 bf ff fd 	bne  22c <_CORTOS_WAIT_FOR_INIT_BY_00>
     23c:	01 00 00 00 	nop 
     240:	81 c3 e0 08 	retl 
     244:	01 00 00 00 	nop 

00000248 <CORTOS_HALT_ERROR>:
     248:	a1 80 20 01 	mov  1, %asr16
     24c:	91 d0 20 00 	ta  0

00000250 <CORTOS_HALT_OKAY>:
     250:	a1 80 20 00 	mov  %g0, %asr16
     254:	91 d0 20 00 	ta  0

00000258 <clear_stack_pointers>:
     258:	81 90 00 00 	mov  %g0, %wim
     25c:	9c 10 00 00 	mov  %g0, %sp
     260:	81 e0 00 00 	save 
     264:	9c 10 00 00 	mov  %g0, %sp
     268:	81 e0 00 00 	save 
     26c:	9c 10 00 00 	mov  %g0, %sp
     270:	81 e0 00 00 	save 
     274:	9c 10 00 00 	mov  %g0, %sp
     278:	81 e0 00 00 	save 
     27c:	9c 10 00 00 	mov  %g0, %sp
     280:	81 e0 00 00 	save 
     284:	9c 10 00 00 	mov  %g0, %sp
     288:	81 e0 00 00 	save 
     28c:	9c 10 00 00 	mov  %g0, %sp
     290:	81 e0 00 00 	save 
     294:	9c 10 00 00 	mov  %g0, %sp
     298:	81 e0 00 00 	save 
     29c:	81 c3 e0 08 	retl 
     2a0:	01 00 00 00 	nop 

000002a4 <cortos_lock_acquire_buzy>:
     2a4:	9d e3 bf a0 	save  %sp, -96, %sp

000002a8 <try_to_lock>:
     2a8:	e2 6e 00 00 	ldstub  [ %i0 ], %l1
     2ac:	80 94 40 00 	tst  %l1
     2b0:	02 80 00 07 	be  2cc <out>
     2b4:	01 00 00 00 	nop 

000002b8 <wait_for_lock>:
     2b8:	e2 0e 00 00 	ldub  [ %i0 ], %l1
     2bc:	80 94 40 00 	tst  %l1
     2c0:	12 bf ff fe 	bne  2b8 <wait_for_lock>
     2c4:	01 00 00 00 	nop 
     2c8:	30 bf ff f8 	b,a   2a8 <try_to_lock>

000002cc <out>:
     2cc:	b0 10 20 01 	mov  1, %i0	! 1 <_start+0x1>
     2d0:	81 e8 00 00 	restore 
     2d4:	81 c3 e0 08 	retl 
     2d8:	01 00 00 00 	nop 

000002dc <cortos_lock_acquire>:
     2dc:	9d e3 bf a0 	save  %sp, -96, %sp

000002e0 <try_to_lock_once>:
     2e0:	e2 6e 00 00 	ldstub  [ %i0 ], %l1
     2e4:	80 94 40 00 	tst  %l1
     2e8:	02 80 00 03 	be  2f4 <lock_acquired>
     2ec:	01 00 00 00 	nop 
     2f0:	30 80 00 03 	b,a   2fc <lock_not_acquired>

000002f4 <lock_acquired>:
     2f4:	10 80 00 03 	b  300 <exit_cortos_lock_acquire>
     2f8:	b0 10 20 01 	mov  1, %i0

000002fc <lock_not_acquired>:
     2fc:	b0 10 00 00 	mov  %g0, %i0

00000300 <exit_cortos_lock_acquire>:
     300:	81 e8 00 00 	restore 
     304:	81 c3 e0 08 	retl 
     308:	01 00 00 00 	nop 

0000030c <cortos_lock_release>:
     30c:	9d e3 bf a0 	save  %sp, -96, %sp
     310:	81 43 c0 00 	stbar 
     314:	c0 2e 00 00 	clrb  [ %i0 ]
     318:	81 e8 00 00 	restore 
     31c:	81 c3 e0 08 	retl 
     320:	01 00 00 00 	nop 

00000324 <cortos_init_locks>:
     324:	84 10 20 01 	mov  1, %g2	! 1 <_start+0x1>
     328:	03 00 00 2c 	sethi  %hi(0xb000), %g1
     32c:	c4 28 60 68 	stb  %g2, [ %g1 + 0x68 ]	! b068 <allocatedLocksNc>
     330:	05 00 00 34 	sethi  %hi(0xd000), %g2
     334:	03 00 00 2c 	sethi  %hi(0xb000), %g1
     338:	81 c3 e0 08 	retl 
     33c:	c4 20 60 60 	st  %g2, [ %g1 + 0x60 ]	! b060 <cortos_reservedLockAddr>

00000340 <cortos_reserveLock>:
     340:	9d e3 bf a0 	save  %sp, -96, %sp
     344:	80 a6 20 00 	cmp  %i0, 0
     348:	22 80 00 1b 	be,a   3b4 <cortos_reserveLock+0x74>
     34c:	03 00 00 28 	sethi  %hi(0xa000), %g1
     350:	03 00 00 28 	sethi  %hi(0xa000), %g1
     354:	39 00 00 2c 	sethi  %hi(0xb000), %i4
     358:	f0 00 61 58 	ld  [ %g1 + 0x158 ], %i0
     35c:	b8 17 20 68 	or  %i4, 0x68, %i4
     360:	3b 00 00 2c 	sethi  %hi(0xb000), %i5
     364:	7f ff ff d0 	call  2a4 <cortos_lock_acquire_buzy>
     368:	d0 07 60 60 	ld  [ %i5 + 0x60 ], %o0	! b060 <cortos_reservedLockAddr>
     36c:	82 10 00 1c 	mov  %i4, %g1
     370:	10 80 00 06 	b  388 <cortos_reserveLock+0x48>
     374:	84 10 20 00 	clr  %g2
     378:	84 00 a0 01 	inc  %g2
     37c:	80 a0 a1 00 	cmp  %g2, 0x100
     380:	02 80 00 11 	be  3c4 <cortos_reserveLock+0x84>
     384:	82 00 60 01 	inc  %g1
     388:	c6 48 40 00 	ldsb  [ %g1 ], %g3
     38c:	80 a0 e0 00 	cmp  %g3, 0
     390:	12 bf ff fa 	bne  378 <cortos_reserveLock+0x38>
     394:	b8 10 00 02 	mov  %g2, %i4
     398:	86 10 20 01 	mov  1, %g3
     39c:	d0 07 60 60 	ld  [ %i5 + 0x60 ], %o0
     3a0:	c6 28 40 00 	stb  %g3, [ %g1 ]
     3a4:	7f ff ff da 	call  30c <cortos_lock_release>
     3a8:	b0 06 00 1c 	add  %i0, %i4, %i0
     3ac:	81 c7 e0 08 	ret 
     3b0:	81 e8 00 00 	restore 
     3b4:	39 00 00 2c 	sethi  %hi(0xb000), %i4
     3b8:	f0 00 61 5c 	ld  [ %g1 + 0x15c ], %i0
     3bc:	10 bf ff e9 	b  360 <cortos_reserveLock+0x20>
     3c0:	b8 17 21 68 	or  %i4, 0x168, %i4
     3c4:	b8 10 21 00 	mov  0x100, %i4
     3c8:	d0 07 60 60 	ld  [ %i5 + 0x60 ], %o0
     3cc:	7f ff ff d0 	call  30c <cortos_lock_release>
     3d0:	b0 06 00 1c 	add  %i0, %i4, %i0
     3d4:	81 c7 e0 08 	ret 
     3d8:	81 e8 00 00 	restore 

000003dc <cortos_freeLock>:
     3dc:	9d e3 bf a0 	save  %sp, -96, %sp
     3e0:	3b 00 00 28 	sethi  %hi(0xa000), %i5
     3e4:	c2 07 61 5c 	ld  [ %i5 + 0x15c ], %g1	! a15c <lockStartAddr>
     3e8:	80 a0 40 18 	cmp  %g1, %i0
     3ec:	18 80 00 05 	bgu  400 <cortos_freeLock+0x24>
     3f0:	82 00 61 00 	add  %g1, 0x100, %g1
     3f4:	80 a6 00 01 	cmp  %i0, %g1
     3f8:	0a 80 00 0e 	bcs  430 <cortos_freeLock+0x54>
     3fc:	39 00 00 2c 	sethi  %hi(0xb000), %i4
     400:	3b 00 00 2c 	sethi  %hi(0xb000), %i5
     404:	7f ff ff a8 	call  2a4 <cortos_lock_acquire_buzy>
     408:	d0 07 60 60 	ld  [ %i5 + 0x60 ], %o0	! b060 <cortos_reservedLockAddr>
     40c:	03 00 00 28 	sethi  %hi(0xa000), %g1
     410:	05 00 00 2c 	sethi  %hi(0xb000), %g2
     414:	c2 00 61 58 	ld  [ %g1 + 0x158 ], %g1
     418:	84 10 a0 68 	or  %g2, 0x68, %g2
     41c:	82 26 00 01 	sub  %i0, %g1, %g1
     420:	f0 07 60 60 	ld  [ %i5 + 0x60 ], %i0
     424:	c0 28 80 01 	clrb  [ %g2 + %g1 ]
     428:	7f ff ff b9 	call  30c <cortos_lock_release>
     42c:	81 e8 00 00 	restore 
     430:	7f ff ff 9d 	call  2a4 <cortos_lock_acquire_buzy>
     434:	d0 07 20 60 	ld  [ %i4 + 0x60 ], %o0
     438:	c2 07 61 5c 	ld  [ %i5 + 0x15c ], %g1
     43c:	05 00 00 2c 	sethi  %hi(0xb000), %g2
     440:	82 26 00 01 	sub  %i0, %g1, %g1
     444:	84 10 a1 68 	or  %g2, 0x168, %g2
     448:	f0 07 20 60 	ld  [ %i4 + 0x60 ], %i0
     44c:	c0 28 80 01 	clrb  [ %g2 + %g1 ]
     450:	7f ff ff af 	call  30c <cortos_lock_release>
     454:	81 e8 00 00 	restore 

00000458 <cortos_init_printing>:
     458:	84 10 20 01 	mov  1, %g2
     45c:	03 00 00 2c 	sethi  %hi(0xb000), %g1
     460:	82 10 60 68 	or  %g1, 0x68, %g1	! b068 <allocatedLocksNc>
     464:	c4 28 60 05 	stb  %g2, [ %g1 + 5 ]
     468:	05 00 00 34 	sethi  %hi(0xd000), %g2
     46c:	03 00 00 2c 	sethi  %hi(0xb000), %g1
     470:	84 10 a0 05 	or  %g2, 5, %g2
     474:	81 c3 e0 08 	retl 
     478:	c4 20 60 00 	st  %g2, [ %g1 ]

0000047c <cortos_get_clock_time>:
     47c:	82 13 c0 00 	mov  %o7, %g1
     480:	40 00 07 fc 	call  2470 <__ajit_get_clock_time>
     484:	9e 10 40 00 	mov  %g1, %o7

00000488 <cortos_sleep>:
     488:	82 13 c0 00 	mov  %o7, %g1
     48c:	40 00 08 03 	call  2498 <__ajit_sleep__>
     490:	9e 10 40 00 	mov  %g1, %o7

00000494 <cortos_get_thread_id>:
     494:	9d e3 bf a0 	save  %sp, -96, %sp
     498:	a3 47 40 00 	rd  %asr29, %l1
     49c:	82 10 00 11 	mov  %l1, %g1
     4a0:	b1 30 60 07 	srl  %g1, 7, %i0
     4a4:	b0 0e 21 fe 	and  %i0, 0x1fe, %i0
     4a8:	82 06 00 01 	add  %i0, %g1, %g1
     4ac:	b1 28 60 18 	sll  %g1, 0x18, %i0
     4b0:	b1 3e 20 18 	sra  %i0, 0x18, %i0
     4b4:	81 c7 e0 08 	ret 
     4b8:	81 e8 00 00 	restore 

000004bc <cortos_IsNcRamAddr>:
     4bc:	03 3f f8 00 	sethi  %hi(0xffe00000), %g1
     4c0:	90 02 00 01 	add  %o0, %g1, %o0
     4c4:	05 00 07 ff 	sethi  %hi(0x1ffc00), %g2
     4c8:	84 10 a3 ff 	or  %g2, 0x3ff, %g2	! 1fffff <ajit_global_interrupt_handlers+0x1f4d57>
     4cc:	80 a0 80 08 	cmp  %g2, %o0
     4d0:	81 c3 e0 08 	retl 
     4d4:	90 60 3f ff 	subx  %g0, -1, %o0

000004d8 <cortos_printf>:
     4d8:	9d e3 bb 98 	save  %sp, -1128, %sp
     4dc:	f8 27 a0 54 	st  %i4, [ %fp + 0x54 ]
     4e0:	fa 27 a0 58 	st  %i5, [ %fp + 0x58 ]
     4e4:	f2 27 a0 48 	st  %i1, [ %fp + 0x48 ]
     4e8:	f4 27 a0 4c 	st  %i2, [ %fp + 0x4c ]
     4ec:	f6 27 a0 50 	st  %i3, [ %fp + 0x50 ]
     4f0:	39 00 00 2c 	sethi  %hi(0xb000), %i4
     4f4:	7f ff ff 6c 	call  2a4 <cortos_lock_acquire_buzy>
     4f8:	d0 07 20 00 	ld  [ %i4 ], %o0
     4fc:	94 07 a0 48 	add  %fp, 0x48, %o2
     500:	92 10 00 18 	mov  %i0, %o1
     504:	ba 07 bc 00 	add  %fp, -1024, %i5
     508:	d4 27 bb fc 	st  %o2, [ %fp + -1028 ]
     50c:	40 00 01 e6 	call  ca4 <ee_vsprintf>
     510:	90 10 00 1d 	mov  %i5, %o0
     514:	d0 0f bc 00 	ldub  [ %fp + -1024 ], %o0
     518:	91 2a 20 18 	sll  %o0, 0x18, %o0
     51c:	80 a2 20 00 	cmp  %o0, 0
     520:	02 80 00 0a 	be  548 <cortos_printf+0x70>
     524:	b0 10 20 00 	clr  %i0
     528:	40 00 04 e8 	call  18c8 <uart_send_char>
     52c:	91 3a 20 18 	sra  %o0, 0x18, %o0
     530:	b0 06 20 01 	inc  %i0
     534:	d0 0f 40 18 	ldub  [ %i5 + %i0 ], %o0
     538:	91 2a 20 18 	sll  %o0, 0x18, %o0
     53c:	80 a2 20 00 	cmp  %o0, 0
     540:	12 bf ff fa 	bne  528 <cortos_printf+0x50>
     544:	01 00 00 00 	nop 
     548:	7f ff ff 71 	call  30c <cortos_lock_release>
     54c:	d0 07 20 00 	ld  [ %i4 ], %o0
     550:	81 c7 e0 08 	ret 
     554:	81 e8 00 00 	restore 

00000558 <__cortos_enable_serial>:
     558:	90 10 20 03 	mov  3, %o0
     55c:	82 13 c0 00 	mov  %o7, %g1
     560:	40 00 08 87 	call  277c <__ajit_write_serial_control_register__>
     564:	9e 10 40 00 	mov  %g1, %o7

00000568 <__cortos_enable_serial_interrupt>:
     568:	90 10 20 07 	mov  7, %o0
     56c:	82 13 c0 00 	mov  %o7, %g1
     570:	40 00 08 83 	call  277c <__ajit_write_serial_control_register__>
     574:	9e 10 40 00 	mov  %g1, %o7

00000578 <bget_ncram>:
     578:	80 a2 20 07 	cmp  %o0, 7
     57c:	08 80 00 23 	bleu  608 <bget_ncram+0x90>
     580:	86 10 20 10 	mov  0x10, %g3
     584:	88 02 20 07 	add  %o0, 7, %g4
     588:	88 09 3f f8 	and  %g4, -8, %g4
     58c:	88 01 20 08 	add  %g4, 8, %g4
     590:	86 10 00 04 	mov  %g4, %g3
     594:	05 00 00 28 	sethi  %hi(0xa000), %g2
     598:	84 10 a1 60 	or  %g2, 0x160, %g2	! a160 <freelist_ncram>
     59c:	d0 00 a0 08 	ld  [ %g2 + 8 ], %o0
     5a0:	80 a2 00 02 	cmp  %o0, %g2
     5a4:	32 80 00 08 	bne,a   5c4 <bget_ncram+0x4c>
     5a8:	c2 02 20 04 	ld  [ %o0 + 4 ], %g1
     5ac:	81 c3 e0 08 	retl 
     5b0:	90 10 20 00 	clr  %o0
     5b4:	80 a2 00 02 	cmp  %o0, %g2
     5b8:	02 80 00 12 	be  600 <bget_ncram+0x88>
     5bc:	01 00 00 00 	nop 
     5c0:	c2 02 20 04 	ld  [ %o0 + 4 ], %g1
     5c4:	80 a0 40 03 	cmp  %g1, %g3
     5c8:	26 bf ff fb 	bl,a   5b4 <bget_ncram+0x3c>
     5cc:	d0 02 20 08 	ld  [ %o0 + 8 ], %o0
     5d0:	84 20 40 03 	sub  %g1, %g3, %g2
     5d4:	80 a0 a0 10 	cmp  %g2, 0x10
     5d8:	28 80 00 0e 	bleu,a   610 <bget_ncram+0x98>
     5dc:	c6 02 20 08 	ld  [ %o0 + 8 ], %g3
     5e0:	c4 22 20 04 	st  %g2, [ %o0 + 4 ]
     5e4:	c4 22 00 02 	st  %g2, [ %o0 + %g2 ]
     5e8:	86 20 00 03 	neg  %g3
     5ec:	90 02 00 02 	add  %o0, %g2, %o0
     5f0:	c0 22 00 04 	clr  [ %o0 + %g4 ]
     5f4:	c6 22 20 04 	st  %g3, [ %o0 + 4 ]
     5f8:	81 c3 e0 08 	retl 
     5fc:	90 02 20 08 	add  %o0, 8, %o0
     600:	81 c3 e0 08 	retl 
     604:	90 10 20 00 	clr  %o0
     608:	10 bf ff e3 	b  594 <bget_ncram+0x1c>
     60c:	88 10 20 10 	mov  0x10, %g4
     610:	c4 02 20 0c 	ld  [ %o0 + 0xc ], %g2
     614:	c6 20 a0 08 	st  %g3, [ %g2 + 8 ]
     618:	c6 02 20 08 	ld  [ %o0 + 8 ], %g3
     61c:	c4 20 e0 0c 	st  %g2, [ %g3 + 0xc ]
     620:	c0 22 00 01 	clr  [ %o0 + %g1 ]
     624:	84 20 00 01 	neg  %g1, %g2
     628:	c4 22 20 04 	st  %g2, [ %o0 + 4 ]
     62c:	90 02 20 08 	add  %o0, 8, %o0
     630:	81 c3 e0 08 	retl 
     634:	01 00 00 00 	nop 

00000638 <bpool_ncram>:
     638:	03 00 00 28 	sethi  %hi(0xa000), %g1
     63c:	82 10 61 60 	or  %g1, 0x160, %g1	! a160 <freelist_ncram>
     640:	c4 00 60 0c 	ld  [ %g1 + 0xc ], %g2
     644:	c2 22 20 08 	st  %g1, [ %o0 + 8 ]
     648:	c4 22 20 0c 	st  %g2, [ %o0 + 0xc ]
     64c:	d0 20 60 0c 	st  %o0, [ %g1 + 0xc ]
     650:	c0 22 00 00 	clr  [ %o0 ]
     654:	c2 02 20 0c 	ld  [ %o0 + 0xc ], %g1
     658:	92 0a 7f f8 	and  %o1, -8, %o1
     65c:	d0 20 60 08 	st  %o0, [ %g1 + 8 ]
     660:	92 02 7f f8 	add  %o1, -8, %o1
     664:	d2 22 20 04 	st  %o1, [ %o0 + 4 ]
     668:	82 02 00 09 	add  %o0, %o1, %g1
     66c:	05 20 00 00 	sethi  %hi(0x80000000), %g2
     670:	d2 22 00 09 	st  %o1, [ %o0 + %o1 ]
     674:	81 c3 e0 08 	retl 
     678:	c4 20 60 04 	st  %g2, [ %g1 + 4 ]

0000067c <brel_ncram>:
     67c:	c2 02 3f f8 	ld  [ %o0 + -8 ], %g1
     680:	80 a0 60 00 	cmp  %g1, 0
     684:	02 80 00 16 	be  6dc <brel_ncram+0x60>
     688:	84 02 3f f8 	add  %o0, -8, %g2
     68c:	84 20 80 01 	sub  %g2, %g1, %g2
     690:	c2 02 3f fc 	ld  [ %o0 + -4 ], %g1
     694:	c6 00 a0 04 	ld  [ %g2 + 4 ], %g3
     698:	82 20 c0 01 	sub  %g3, %g1, %g1
     69c:	c2 20 a0 04 	st  %g1, [ %g2 + 4 ]
     6a0:	86 00 80 01 	add  %g2, %g1, %g3
     6a4:	c8 00 e0 04 	ld  [ %g3 + 4 ], %g4
     6a8:	80 a1 20 00 	cmp  %g4, 0
     6ac:	04 80 00 0a 	ble  6d4 <brel_ncram+0x58>
     6b0:	01 00 00 00 	nop 
     6b4:	da 00 e0 0c 	ld  [ %g3 + 0xc ], %o5
     6b8:	82 00 40 04 	add  %g1, %g4, %g1
     6bc:	d8 00 e0 08 	ld  [ %g3 + 8 ], %o4
     6c0:	c2 20 a0 04 	st  %g1, [ %g2 + 4 ]
     6c4:	d8 23 60 08 	st  %o4, [ %o5 + 8 ]
     6c8:	c8 00 e0 08 	ld  [ %g3 + 8 ], %g4
     6cc:	86 00 80 01 	add  %g2, %g1, %g3
     6d0:	da 21 20 0c 	st  %o5, [ %g4 + 0xc ]
     6d4:	81 c3 e0 08 	retl 
     6d8:	c2 20 c0 00 	st  %g1, [ %g3 ]
     6dc:	07 00 00 28 	sethi  %hi(0xa000), %g3
     6e0:	86 10 e1 60 	or  %g3, 0x160, %g3	! a160 <freelist_ncram>
     6e4:	c2 00 e0 0c 	ld  [ %g3 + 0xc ], %g1
     6e8:	c6 22 00 00 	st  %g3, [ %o0 ]
     6ec:	c2 22 20 04 	st  %g1, [ %o0 + 4 ]
     6f0:	c4 20 e0 0c 	st  %g2, [ %g3 + 0xc ]
     6f4:	c2 02 3f fc 	ld  [ %o0 + -4 ], %g1
     6f8:	c6 02 20 04 	ld  [ %o0 + 4 ], %g3
     6fc:	82 20 00 01 	neg  %g1
     700:	c4 20 e0 08 	st  %g2, [ %g3 + 8 ]
     704:	10 bf ff e7 	b  6a0 <brel_ncram+0x24>
     708:	c2 22 3f fc 	st  %g1, [ %o0 + -4 ]

0000070c <ajit_initialize_sw_trap_handlers_to_null>:
     70c:	03 00 00 2c 	sethi  %hi(0xb000), %g1
     710:	82 10 62 68 	or  %g1, 0x268, %g1	! b268 <ajit_global_sw_trap_handlers>
     714:	84 00 60 40 	add  %g1, 0x40, %g2
     718:	c0 20 40 00 	clr  [ %g1 ]
     71c:	82 00 60 04 	add  %g1, 4, %g1
     720:	80 a0 40 02 	cmp  %g1, %g2
     724:	32 bf ff fe 	bne,a   71c <ajit_initialize_sw_trap_handlers_to_null+0x10>
     728:	c0 20 40 00 	clr  [ %g1 ]
     72c:	81 c3 e0 08 	retl 
     730:	01 00 00 00 	nop 

00000734 <ajit_set_sw_trap_handler>:
     734:	80 a2 20 0f 	cmp  %o0, 0xf
     738:	18 80 00 05 	bgu  74c <ajit_set_sw_trap_handler+0x18>
     73c:	91 2a 20 02 	sll  %o0, 2, %o0
     740:	03 00 00 2c 	sethi  %hi(0xb000), %g1
     744:	82 10 62 68 	or  %g1, 0x268, %g1	! b268 <ajit_global_sw_trap_handlers>
     748:	d2 20 40 08 	st  %o1, [ %g1 + %o0 ]
     74c:	81 c3 e0 08 	retl 
     750:	01 00 00 00 	nop 

00000754 <ajit_generic_sw_trap_handler>:
     754:	9d e3 bf a0 	save  %sp, -96, %sp
     758:	b1 36 20 04 	srl  %i0, 4, %i0
     75c:	82 0e 20 ff 	and  %i0, 0xff, %g1
     760:	82 00 7f 80 	add  %g1, -128, %g1
     764:	80 a0 60 0f 	cmp  %g1, 0xf
     768:	18 80 00 0d 	bgu  79c <ajit_generic_sw_trap_handler+0x48>
     76c:	83 28 60 02 	sll  %g1, 2, %g1
     770:	05 00 00 2c 	sethi  %hi(0xb000), %g2
     774:	84 10 a2 68 	or  %g2, 0x268, %g2	! b268 <ajit_global_sw_trap_handlers>
     778:	c2 00 80 01 	ld  [ %g2 + %g1 ], %g1
     77c:	80 a0 60 00 	cmp  %g1, 0
     780:	02 80 00 07 	be  79c <ajit_generic_sw_trap_handler+0x48>
     784:	90 10 00 19 	mov  %i1, %o0
     788:	92 10 00 1a 	mov  %i2, %o1
     78c:	9f c0 40 00 	call  %g1
     790:	94 10 00 1b 	mov  %i3, %o2
     794:	81 c7 e0 08 	ret 
     798:	81 e8 00 00 	restore 
     79c:	91 d0 20 00 	ta  0
     7a0:	81 c7 e0 08 	ret 
     7a4:	81 e8 00 00 	restore 

000007a8 <cortos_init_logging>:
     7a8:	84 10 20 01 	mov  1, %g2
     7ac:	03 00 00 2c 	sethi  %hi(0xb000), %g1
     7b0:	82 10 60 68 	or  %g1, 0x68, %g1	! b068 <allocatedLocksNc>
     7b4:	c4 28 60 04 	stb  %g2, [ %g1 + 4 ]
     7b8:	05 00 00 34 	sethi  %hi(0xd000), %g2
     7bc:	03 00 00 2c 	sethi  %hi(0xb000), %g1
     7c0:	84 10 a0 04 	or  %g2, 4, %g2
     7c4:	81 c3 e0 08 	retl 
     7c8:	c4 20 60 04 	st  %g2, [ %g1 + 4 ]

000007cc <__cortos_log_printf>:
     7cc:	9d e3 bb 80 	save  %sp, -1152, %sp
     7d0:	21 00 00 2c 	sethi  %hi(0xb000), %l0
     7d4:	fa 27 a0 58 	st  %i5, [ %fp + 0x58 ]
     7d8:	7f ff fe b3 	call  2a4 <cortos_lock_acquire_buzy>
     7dc:	d0 04 20 04 	ld  [ %l0 + 4 ], %o0
     7e0:	7f ff ff 27 	call  47c <cortos_get_clock_time>
     7e4:	01 00 00 00 	nop 
     7e8:	15 00 00 3f 	sethi  %hi(0xfc00), %o2
     7ec:	d0 3f bb f8 	std  %o0, [ %fp + -1032 ]
     7f0:	a3 47 40 00 	rd  %asr29, %l1
     7f4:	82 10 00 11 	mov  %l1, %g1
     7f8:	94 12 a3 00 	or  %o2, 0x300, %o2
     7fc:	96 08 60 ff 	and  %g1, 0xff, %o3
     800:	94 08 40 0a 	and  %g1, %o2, %o2
     804:	c2 07 bb f8 	ld  [ %fp + -1032 ], %g1
     808:	c2 23 a0 60 	st  %g1, [ %sp + 0x60 ]
     80c:	c2 07 bb fc 	ld  [ %fp + -1028 ], %g1
     810:	92 10 00 18 	mov  %i0, %o1
     814:	c2 23 a0 64 	st  %g1, [ %sp + 0x64 ]
     818:	98 10 00 19 	mov  %i1, %o4
     81c:	9a 10 00 1b 	mov  %i3, %o5
     820:	f4 23 a0 5c 	st  %i2, [ %sp + 0x5c ]
     824:	11 00 00 28 	sethi  %hi(0xa000), %o0
     828:	40 00 04 36 	call  1900 <ee_printf>
     82c:	90 12 20 00 	mov  %o0, %o0	! a000 <main+0x2000>
     830:	94 07 a0 58 	add  %fp, 0x58, %o2
     834:	b0 10 00 08 	mov  %o0, %i0
     838:	d4 27 bb f4 	st  %o2, [ %fp + -1036 ]
     83c:	ba 07 bc 00 	add  %fp, -1024, %i5
     840:	92 10 00 1c 	mov  %i4, %o1
     844:	40 00 01 18 	call  ca4 <ee_vsprintf>
     848:	90 10 00 1d 	mov  %i5, %o0
     84c:	c2 0f bc 00 	ldub  [ %fp + -1024 ], %g1
     850:	91 28 60 18 	sll  %g1, 0x18, %o0
     854:	80 a2 20 00 	cmp  %o0, 0
     858:	22 80 00 0c 	be,a   888 <__cortos_log_printf+0xbc>
     85c:	11 00 00 28 	sethi  %hi(0xa000), %o0
     860:	ba 27 40 18 	sub  %i5, %i0, %i5
     864:	40 00 04 19 	call  18c8 <uart_send_char>
     868:	91 3a 20 18 	sra  %o0, 0x18, %o0
     86c:	b0 06 20 01 	inc  %i0
     870:	c2 0f 40 18 	ldub  [ %i5 + %i0 ], %g1
     874:	91 28 60 18 	sll  %g1, 0x18, %o0
     878:	80 a2 20 00 	cmp  %o0, 0
     87c:	12 bf ff fa 	bne  864 <__cortos_log_printf+0x98>
     880:	01 00 00 00 	nop 
     884:	11 00 00 28 	sethi  %hi(0xa000), %o0
     888:	40 00 04 1e 	call  1900 <ee_printf>
     88c:	90 12 20 38 	or  %o0, 0x38, %o0	! a038 <main+0x2038>
     890:	b0 02 00 18 	add  %o0, %i0, %i0
     894:	7f ff fe 9e 	call  30c <cortos_lock_release>
     898:	d0 04 20 04 	ld  [ %l0 + 4 ], %o0
     89c:	81 c7 e0 08 	ret 
     8a0:	81 e8 00 00 	restore 

000008a4 <cortos_init_hw_traps>:
     8a4:	9d e3 bf a0 	save  %sp, -96, %sp
     8a8:	40 00 05 1d 	call  1d1c <ajit_initialize_interrupt_handlers_to_null>
     8ac:	b0 10 20 00 	clr  %i0
     8b0:	40 00 05 7f 	call  1eac <enableInterruptControllerAndAllInterrupts>
     8b4:	93 e8 20 00 	restore  %g0, 0, %o1

000008b8 <cortos_init_sw_traps>:
     8b8:	82 13 c0 00 	mov  %o7, %g1
     8bc:	7f ff ff 94 	call  70c <ajit_initialize_sw_trap_handlers_to_null>
     8c0:	9e 10 40 00 	mov  %g1, %o7
     8c4:	00 00 0f 10 	unimp  0xf10
     8c8:	00 00 0d c0 	unimp  0xdc0
     8cc:	00 00 0d c0 	unimp  0xdc0
     8d0:	00 00 0d c0 	unimp  0xdc0
     8d4:	00 00 0d c0 	unimp  0xdc0
     8d8:	00 00 0d c0 	unimp  0xdc0
     8dc:	00 00 0d c0 	unimp  0xdc0
     8e0:	00 00 0d c0 	unimp  0xdc0
     8e4:	00 00 0d c0 	unimp  0xdc0
     8e8:	00 00 0d c0 	unimp  0xdc0
     8ec:	00 00 0d c0 	unimp  0xdc0
     8f0:	00 00 0d c0 	unimp  0xdc0
     8f4:	00 00 0d c0 	unimp  0xdc0
     8f8:	00 00 0d c0 	unimp  0xdc0
     8fc:	00 00 0d c0 	unimp  0xdc0
     900:	00 00 0d c0 	unimp  0xdc0
     904:	00 00 0d c0 	unimp  0xdc0
     908:	00 00 0d c0 	unimp  0xdc0
     90c:	00 00 0d c0 	unimp  0xdc0
     910:	00 00 0d c0 	unimp  0xdc0
     914:	00 00 0d c0 	unimp  0xdc0
     918:	00 00 0d c0 	unimp  0xdc0
     91c:	00 00 0d c0 	unimp  0xdc0
     920:	00 00 10 88 	unimp  0x1088
     924:	00 00 0d c0 	unimp  0xdc0
     928:	00 00 0d c0 	unimp  0xdc0
     92c:	00 00 0d c0 	unimp  0xdc0
     930:	00 00 0d c0 	unimp  0xdc0
     934:	00 00 0d c0 	unimp  0xdc0
     938:	00 00 0d c0 	unimp  0xdc0
     93c:	00 00 0d c0 	unimp  0xdc0
     940:	00 00 0d c0 	unimp  0xdc0
     944:	00 00 0f 14 	unimp  0xf14
     948:	00 00 0d c0 	unimp  0xdc0
     94c:	00 00 12 64 	unimp  0x1264
     950:	00 00 12 58 	unimp  0x1258
     954:	00 00 0d c0 	unimp  0xdc0
     958:	00 00 11 d4 	unimp  0x11d4
     95c:	00 00 0d c0 	unimp  0xdc0
     960:	00 00 0d c0 	unimp  0xdc0
     964:	00 00 12 58 	unimp  0x1258
     968:	00 00 0d c0 	unimp  0xdc0
     96c:	00 00 0d c0 	unimp  0xdc0
     970:	00 00 0d c0 	unimp  0xdc0
     974:	00 00 0d c0 	unimp  0xdc0
     978:	00 00 0d c0 	unimp  0xdc0
     97c:	00 00 11 cc 	unimp  0x11cc
     980:	00 00 11 98 	unimp  0x1198
     984:	00 00 0d c0 	unimp  0xdc0
     988:	00 00 0d c0 	unimp  0xdc0
     98c:	00 00 10 b4 	unimp  0x10b4
     990:	00 00 0d c0 	unimp  0xdc0
     994:	00 00 12 50 	unimp  0x1250
     998:	00 00 0d c0 	unimp  0xdc0
     99c:	00 00 0d c0 	unimp  0xdc0
     9a0:	00 00 12 48 	unimp  0x1248
     9a4:	00 00 0e 5c 	unimp  0xe5c
     9a8:	00 00 0d 20 	unimp  0xd20
     9ac:	00 00 0d 20 	unimp  0xd20
     9b0:	00 00 0e 50 	unimp  0xe50
     9b4:	00 00 0d 20 	unimp  0xd20
     9b8:	00 00 0d 20 	unimp  0xd20
     9bc:	00 00 0d 20 	unimp  0xd20
     9c0:	00 00 0d 20 	unimp  0xd20
     9c4:	00 00 0d 20 	unimp  0xd20
     9c8:	00 00 0d 20 	unimp  0xd20
     9cc:	00 00 0d 20 	unimp  0xd20
     9d0:	00 00 0e 44 	unimp  0xe44
     9d4:	00 00 0d 20 	unimp  0xd20
     9d8:	00 00 0e 38 	unimp  0xe38
     9dc:	00 00 0d 20 	unimp  0xd20
     9e0:	00 00 0d 20 	unimp  0xd20
     9e4:	00 00 0e 2c 	unimp  0xe2c

000009e8 <number>:
     9e8:	9d e3 bf 58 	save  %sp, -168, %sp
     9ec:	80 8f 60 40 	btst  0x40, %i5
     9f0:	02 80 00 79 	be  bd4 <number+0x1ec>
     9f4:	1f 00 00 28 	sethi  %hi(0xa000), %o7
     9f8:	1f 00 00 28 	sethi  %hi(0xa000), %o7
     9fc:	9e 13 e0 68 	or  %o7, 0x68, %o7	! a068 <main+0x2068>
     a00:	80 8f 60 10 	btst  0x10, %i5
     a04:	32 80 00 02 	bne,a   a0c <number+0x24>
     a08:	ba 0f 7f fe 	and  %i5, -2, %i5
     a0c:	82 06 bf fe 	add  %i2, -2, %g1
     a10:	80 a0 60 22 	cmp  %g1, 0x22
     a14:	18 80 00 83 	bgu  c20 <number+0x238>
     a18:	82 0f 60 01 	and  %i5, 1, %g1
     a1c:	80 a0 00 01 	cmp  %g0, %g1
     a20:	98 10 20 00 	clr  %o4
     a24:	9a 40 3f ff 	addx  %g0, -1, %o5
     a28:	80 8f 60 02 	btst  2, %i5
     a2c:	9a 0b 60 f0 	and  %o5, 0xf0, %o5
     a30:	02 80 00 0c 	be  a60 <number+0x78>
     a34:	9a 03 60 30 	add  %o5, 0x30, %o5
     a38:	80 a6 60 00 	cmp  %i1, 0
     a3c:	06 80 00 8a 	bl  c64 <number+0x27c>
     a40:	80 8f 60 04 	btst  4, %i5
     a44:	32 80 00 7a 	bne,a   c2c <number+0x244>
     a48:	b6 06 ff ff 	add  %i3, -1, %i3
     a4c:	80 8f 60 08 	btst  8, %i5
     a50:	02 80 00 05 	be  a64 <number+0x7c>
     a54:	96 8f 60 20 	andcc  %i5, 0x20, %o3
     a58:	b6 06 ff ff 	add  %i3, -1, %i3
     a5c:	98 10 20 20 	mov  0x20, %o4
     a60:	96 8f 60 20 	andcc  %i5, 0x20, %o3
     a64:	02 80 00 08 	be  a84 <number+0x9c>
     a68:	80 a6 60 00 	cmp  %i1, 0
     a6c:	80 a6 a0 10 	cmp  %i2, 0x10
     a70:	02 80 00 78 	be  c50 <number+0x268>
     a74:	82 1e a0 08 	xor  %i2, 8, %g1
     a78:	80 a0 00 01 	cmp  %g0, %g1
     a7c:	b6 46 ff ff 	addx  %i3, -1, %i3
     a80:	80 a6 60 00 	cmp  %i1, 0
     a84:	12 80 00 57 	bne  be0 <number+0x1f8>
     a88:	82 10 20 00 	clr  %g1
     a8c:	82 10 20 30 	mov  0x30, %g1
     a90:	88 07 bf b8 	add  %fp, -72, %g4
     a94:	c2 2f bf b8 	stb  %g1, [ %fp + -72 ]
     a98:	82 10 20 01 	mov  1, %g1
     a9c:	80 a0 40 1c 	cmp  %g1, %i4
     aa0:	16 80 00 03 	bge  aac <number+0xc4>
     aa4:	86 10 00 01 	mov  %g1, %g3
     aa8:	86 10 00 1c 	mov  %i4, %g3
     aac:	80 8f 60 11 	btst  0x11, %i5
     ab0:	12 80 00 0d 	bne  ae4 <number+0xfc>
     ab4:	b8 26 c0 03 	sub  %i3, %g3, %i4
     ab8:	80 a7 20 00 	cmp  %i4, 0
     abc:	04 80 00 76 	ble  c94 <number+0x2ac>
     ac0:	84 07 3f ff 	add  %i4, -1, %g2
     ac4:	b8 06 00 1c 	add  %i0, %i4, %i4
     ac8:	84 10 20 20 	mov  0x20, %g2
     acc:	c4 2e 00 00 	stb  %g2, [ %i0 ]
     ad0:	b0 06 20 01 	inc  %i0
     ad4:	80 a6 00 1c 	cmp  %i0, %i4
     ad8:	32 bf ff fe 	bne,a   ad0 <number+0xe8>
     adc:	c4 2e 00 00 	stb  %g2, [ %i0 ]
     ae0:	b8 10 3f ff 	mov  -1, %i4
     ae4:	80 8b 20 ff 	btst  0xff, %o4
     ae8:	02 80 00 04 	be  af8 <number+0x110>
     aec:	80 a2 e0 00 	cmp  %o3, 0
     af0:	d8 2e 00 00 	stb  %o4, [ %i0 ]
     af4:	b0 06 20 01 	inc  %i0
     af8:	02 80 00 08 	be  b18 <number+0x130>
     afc:	80 8f 60 10 	btst  0x10, %i5
     b00:	80 a6 a0 08 	cmp  %i2, 8
     b04:	02 80 00 4f 	be  c40 <number+0x258>
     b08:	80 a6 a0 10 	cmp  %i2, 0x10
     b0c:	22 80 00 5d 	be,a   c80 <number+0x298>
     b10:	84 10 20 30 	mov  0x30, %g2
     b14:	80 8f 60 10 	btst  0x10, %i5
     b18:	12 80 00 0d 	bne  b4c <number+0x164>
     b1c:	80 a0 c0 01 	cmp  %g3, %g1
     b20:	80 a7 20 00 	cmp  %i4, 0
     b24:	04 80 00 5e 	ble  c9c <number+0x2b4>
     b28:	84 07 3f ff 	add  %i4, -1, %g2
     b2c:	b8 06 00 1c 	add  %i0, %i4, %i4
     b30:	da 2e 00 00 	stb  %o5, [ %i0 ]
     b34:	b0 06 20 01 	inc  %i0
     b38:	80 a6 00 1c 	cmp  %i0, %i4
     b3c:	32 bf ff fe 	bne,a   b34 <number+0x14c>
     b40:	da 2e 00 00 	stb  %o5, [ %i0 ]
     b44:	b8 10 3f ff 	mov  -1, %i4
     b48:	80 a0 c0 01 	cmp  %g3, %g1
     b4c:	04 80 00 09 	ble  b70 <number+0x188>
     b50:	82 20 c0 01 	sub  %g3, %g1, %g1
     b54:	86 10 20 30 	mov  0x30, %g3
     b58:	82 06 00 01 	add  %i0, %g1, %g1
     b5c:	c6 2e 00 00 	stb  %g3, [ %i0 ]
     b60:	b0 06 20 01 	inc  %i0
     b64:	80 a6 00 01 	cmp  %i0, %g1
     b68:	32 bf ff fe 	bne,a   b60 <number+0x178>
     b6c:	c6 2e 00 00 	stb  %g3, [ %i0 ]
     b70:	82 10 00 19 	mov  %i1, %g1
     b74:	84 10 00 18 	mov  %i0, %g2
     b78:	c6 09 00 01 	ldub  [ %g4 + %g1 ], %g3
     b7c:	c6 28 80 00 	stb  %g3, [ %g2 ]
     b80:	82 00 7f ff 	add  %g1, -1, %g1
     b84:	86 00 60 01 	add  %g1, 1, %g3
     b88:	80 a0 e0 00 	cmp  %g3, 0
     b8c:	14 bf ff fb 	bg  b78 <number+0x190>
     b90:	84 00 a0 01 	inc  %g2
     b94:	82 38 00 19 	xnor  %g0, %i1, %g1
     b98:	80 a7 20 00 	cmp  %i4, 0
     b9c:	83 38 60 1f 	sra  %g1, 0x1f, %g1
     ba0:	82 0e 40 01 	and  %i1, %g1, %g1
     ba4:	82 00 60 01 	inc  %g1
     ba8:	04 80 00 09 	ble  bcc <number+0x1e4>
     bac:	b0 06 00 01 	add  %i0, %g1, %i0
     bb0:	84 06 00 1c 	add  %i0, %i4, %g2
     bb4:	82 10 20 20 	mov  0x20, %g1
     bb8:	c2 2e 00 00 	stb  %g1, [ %i0 ]
     bbc:	b0 06 20 01 	inc  %i0
     bc0:	80 a6 00 02 	cmp  %i0, %g2
     bc4:	32 bf ff fe 	bne,a   bbc <number+0x1d4>
     bc8:	c2 2e 00 00 	stb  %g1, [ %i0 ]
     bcc:	81 c7 e0 08 	ret 
     bd0:	81 e8 00 00 	restore 
     bd4:	10 bf ff 8b 	b  a00 <number+0x18>
     bd8:	9e 13 e0 40 	or  %o7, 0x40, %o7
     bdc:	82 10 20 00 	clr  %g1
     be0:	88 07 bf b8 	add  %fp, -72, %g4
     be4:	81 80 20 00 	mov  %g0, %y
     be8:	01 00 00 00 	nop 
     bec:	01 00 00 00 	nop 
     bf0:	01 00 00 00 	nop 
     bf4:	84 76 40 1a 	udiv  %i1, %i2, %g2
     bf8:	86 58 80 1a 	smul  %g2, %i2, %g3
     bfc:	b2 26 40 03 	sub  %i1, %g3, %i1
     c00:	c6 0b c0 19 	ldub  [ %o7 + %i1 ], %g3
     c04:	c6 29 00 01 	stb  %g3, [ %g4 + %g1 ]
     c08:	b2 10 00 02 	mov  %g2, %i1
     c0c:	80 a0 a0 00 	cmp  %g2, 0
     c10:	12 bf ff f5 	bne  be4 <number+0x1fc>
     c14:	82 00 60 01 	inc  %g1
     c18:	10 bf ff a1 	b  a9c <number+0xb4>
     c1c:	b2 00 7f ff 	add  %g1, -1, %i1
     c20:	b0 10 20 00 	clr  %i0
     c24:	81 c7 e0 08 	ret 
     c28:	81 e8 00 00 	restore 
     c2c:	96 8f 60 20 	andcc  %i5, 0x20, %o3
     c30:	02 bf ff 94 	be  a80 <number+0x98>
     c34:	98 10 20 2b 	mov  0x2b, %o4
     c38:	10 bf ff 8e 	b  a70 <number+0x88>
     c3c:	80 a6 a0 10 	cmp  %i2, 0x10
     c40:	84 10 20 30 	mov  0x30, %g2
     c44:	c4 2e 00 00 	stb  %g2, [ %i0 ]
     c48:	10 bf ff b3 	b  b14 <number+0x12c>
     c4c:	b0 06 20 01 	inc  %i0
     c50:	80 a6 60 00 	cmp  %i1, 0
     c54:	12 bf ff e2 	bne  bdc <number+0x1f4>
     c58:	b6 06 ff fe 	add  %i3, -2, %i3
     c5c:	10 bf ff 8d 	b  a90 <number+0xa8>
     c60:	82 10 20 30 	mov  0x30, %g1
     c64:	b2 20 00 19 	neg  %i1
     c68:	b6 06 ff ff 	add  %i3, -1, %i3
     c6c:	96 8f 60 20 	andcc  %i5, 0x20, %o3
     c70:	02 bf ff 84 	be  a80 <number+0x98>
     c74:	98 10 20 2d 	mov  0x2d, %o4
     c78:	10 bf ff 7e 	b  a70 <number+0x88>
     c7c:	80 a6 a0 10 	cmp  %i2, 0x10
     c80:	c4 2e 00 00 	stb  %g2, [ %i0 ]
     c84:	84 10 20 78 	mov  0x78, %g2
     c88:	c4 2e 20 01 	stb  %g2, [ %i0 + 1 ]
     c8c:	10 bf ff a2 	b  b14 <number+0x12c>
     c90:	b0 06 20 02 	add  %i0, 2, %i0
     c94:	10 bf ff 94 	b  ae4 <number+0xfc>
     c98:	b8 10 00 02 	mov  %g2, %i4
     c9c:	10 bf ff ab 	b  b48 <number+0x160>
     ca0:	b8 10 00 02 	mov  %g2, %i4

00000ca4 <ee_vsprintf>:
     ca4:	9d e3 be d8 	save  %sp, -296, %sp
     ca8:	c4 0e 40 00 	ldub  [ %i1 ], %g2
     cac:	83 28 a0 18 	sll  %g2, 0x18, %g1
     cb0:	80 a0 60 00 	cmp  %g1, 0
     cb4:	02 80 02 0c 	be  14e4 <ee_vsprintf+0x840>
     cb8:	ba 10 00 18 	mov  %i0, %i5
     cbc:	29 00 00 02 	sethi  %hi(0x800), %l4
     cc0:	37 00 00 02 	sethi  %hi(0x800), %i3
     cc4:	23 00 00 28 	sethi  %hi(0xa000), %l1
     cc8:	a6 07 bf b0 	add  %fp, -80, %l3
     ccc:	aa 07 a0 60 	add  %fp, 0x60, %l5
     cd0:	21 00 00 28 	sethi  %hi(0xa000), %l0
     cd4:	10 80 00 08 	b  cf4 <ee_vsprintf+0x50>
     cd8:	25 00 00 28 	sethi  %hi(0xa000), %l2
     cdc:	ba 07 60 01 	inc  %i5
     ce0:	c4 0e 60 01 	ldub  [ %i1 + 1 ], %g2
     ce4:	83 28 a0 18 	sll  %g2, 0x18, %g1
     ce8:	80 a0 60 00 	cmp  %g1, 0
     cec:	02 80 00 47 	be  e08 <ee_vsprintf+0x164>
     cf0:	b2 06 60 01 	inc  %i1
     cf4:	83 38 60 18 	sra  %g1, 0x18, %g1
     cf8:	80 a0 60 25 	cmp  %g1, 0x25
     cfc:	32 bf ff f8 	bne,a   cdc <ee_vsprintf+0x38>
     d00:	c4 2f 40 00 	stb  %g2, [ %i5 ]
     d04:	9a 10 20 00 	clr  %o5
     d08:	c2 0e 60 01 	ldub  [ %i1 + 1 ], %g1
     d0c:	86 00 7f e0 	add  %g1, -32, %g3
     d10:	86 08 e0 ff 	and  %g3, 0xff, %g3
     d14:	80 a0 e0 10 	cmp  %g3, 0x10
     d18:	08 80 00 40 	bleu  e18 <ee_vsprintf+0x174>
     d1c:	84 06 60 01 	add  %i1, 1, %g2
     d20:	86 00 7f d0 	add  %g1, -48, %g3
     d24:	86 08 e0 ff 	and  %g3, 0xff, %g3
     d28:	80 a0 e0 09 	cmp  %g3, 9
     d2c:	18 80 00 53 	bgu  e78 <ee_vsprintf+0x1d4>
     d30:	87 28 60 18 	sll  %g1, 0x18, %g3
     d34:	b8 10 20 00 	clr  %i4
     d38:	86 07 00 1c 	add  %i4, %i4, %g3
     d3c:	83 28 60 18 	sll  %g1, 0x18, %g1
     d40:	83 38 60 18 	sra  %g1, 0x18, %g1
     d44:	b9 2f 20 03 	sll  %i4, 3, %i4
     d48:	84 00 a0 01 	inc  %g2
     d4c:	b8 00 c0 1c 	add  %g3, %i4, %i4
     d50:	b8 07 00 01 	add  %i4, %g1, %i4
     d54:	c2 08 80 00 	ldub  [ %g2 ], %g1
     d58:	86 00 7f d0 	add  %g1, -48, %g3
     d5c:	86 08 e0 ff 	and  %g3, 0xff, %g3
     d60:	80 a0 e0 09 	cmp  %g3, 9
     d64:	08 bf ff f5 	bleu  d38 <ee_vsprintf+0x94>
     d68:	b8 07 3f d0 	add  %i4, -48, %i4
     d6c:	87 28 60 18 	sll  %g1, 0x18, %g3
     d70:	b2 10 00 02 	mov  %g2, %i1
     d74:	87 38 e0 18 	sra  %g3, 0x18, %g3
     d78:	80 a0 e0 2e 	cmp  %g3, 0x2e
     d7c:	02 80 00 48 	be  e9c <ee_vsprintf+0x1f8>
     d80:	ac 10 3f ff 	mov  -1, %l6
     d84:	84 08 7f df 	and  %g1, -33, %g2
     d88:	85 28 a0 18 	sll  %g2, 0x18, %g2
     d8c:	85 38 a0 18 	sra  %g2, 0x18, %g2
     d90:	80 a0 a0 4c 	cmp  %g2, 0x4c
     d94:	12 80 00 06 	bne  dac <ee_vsprintf+0x108>
     d98:	86 10 3f ff 	mov  -1, %g3
     d9c:	87 28 60 18 	sll  %g1, 0x18, %g3
     da0:	c2 0e 60 01 	ldub  [ %i1 + 1 ], %g1
     da4:	87 38 e0 18 	sra  %g3, 0x18, %g3
     da8:	b2 06 60 01 	inc  %i1
     dac:	84 00 7f bf 	add  %g1, -65, %g2
     db0:	84 08 a0 ff 	and  %g2, 0xff, %g2
     db4:	80 a0 a0 37 	cmp  %g2, 0x37
     db8:	08 80 00 2c 	bleu  e68 <ee_vsprintf+0x1c4>
     dbc:	88 16 e0 c4 	or  %i3, 0xc4, %g4
     dc0:	83 28 60 18 	sll  %g1, 0x18, %g1
     dc4:	83 38 60 18 	sra  %g1, 0x18, %g1
     dc8:	80 a0 60 25 	cmp  %g1, 0x25
     dcc:	02 80 00 08 	be  dec <ee_vsprintf+0x148>
     dd0:	82 10 20 25 	mov  0x25, %g1
     dd4:	c2 2f 40 00 	stb  %g1, [ %i5 ]
     dd8:	ba 07 60 01 	inc  %i5
     ddc:	c4 4e 40 00 	ldsb  [ %i1 ], %g2
     de0:	80 a0 a0 00 	cmp  %g2, 0
     de4:	02 80 00 09 	be  e08 <ee_vsprintf+0x164>
     de8:	c2 0e 40 00 	ldub  [ %i1 ], %g1
     dec:	c2 2f 40 00 	stb  %g1, [ %i5 ]
     df0:	ba 07 60 01 	inc  %i5
     df4:	c4 0e 60 01 	ldub  [ %i1 + 1 ], %g2
     df8:	83 28 a0 18 	sll  %g2, 0x18, %g1
     dfc:	80 a0 60 00 	cmp  %g1, 0
     e00:	12 bf ff bd 	bne  cf4 <ee_vsprintf+0x50>
     e04:	b2 06 60 01 	inc  %i1
     e08:	b0 27 40 18 	sub  %i5, %i0, %i0
     e0c:	c0 2f 40 00 	clrb  [ %i5 ]
     e10:	81 c7 e0 08 	ret 
     e14:	81 e8 00 00 	restore 
     e18:	88 15 21 a4 	or  %l4, 0x1a4, %g4
     e1c:	87 28 e0 02 	sll  %g3, 2, %g3
     e20:	c6 01 00 03 	ld  [ %g4 + %g3 ], %g3
     e24:	81 c0 c0 00 	jmp  %g3
     e28:	01 00 00 00 	nop 
     e2c:	9a 13 60 01 	or  %o5, 1, %o5
     e30:	10 bf ff b6 	b  d08 <ee_vsprintf+0x64>
     e34:	b2 10 00 02 	mov  %g2, %i1
     e38:	9a 13 60 10 	or  %o5, 0x10, %o5
     e3c:	10 bf ff b3 	b  d08 <ee_vsprintf+0x64>
     e40:	b2 10 00 02 	mov  %g2, %i1
     e44:	9a 13 60 04 	or  %o5, 4, %o5
     e48:	10 bf ff b0 	b  d08 <ee_vsprintf+0x64>
     e4c:	b2 10 00 02 	mov  %g2, %i1
     e50:	9a 13 60 20 	or  %o5, 0x20, %o5
     e54:	10 bf ff ad 	b  d08 <ee_vsprintf+0x64>
     e58:	b2 10 00 02 	mov  %g2, %i1
     e5c:	9a 13 60 08 	or  %o5, 8, %o5
     e60:	10 bf ff aa 	b  d08 <ee_vsprintf+0x64>
     e64:	b2 10 00 02 	mov  %g2, %i1
     e68:	85 28 a0 02 	sll  %g2, 2, %g2
     e6c:	c4 01 00 02 	ld  [ %g4 + %g2 ], %g2
     e70:	81 c0 80 00 	jmp  %g2
     e74:	01 00 00 00 	nop 
     e78:	89 38 e0 18 	sra  %g3, 0x18, %g4
     e7c:	80 a1 20 2a 	cmp  %g4, 0x2a
     e80:	02 80 01 0c 	be  12b0 <ee_vsprintf+0x60c>
     e84:	87 38 e0 18 	sra  %g3, 0x18, %g3
     e88:	b2 10 00 02 	mov  %g2, %i1
     e8c:	b8 10 3f ff 	mov  -1, %i4
     e90:	80 a0 e0 2e 	cmp  %g3, 0x2e
     e94:	12 bf ff bc 	bne  d84 <ee_vsprintf+0xe0>
     e98:	ac 10 3f ff 	mov  -1, %l6
     e9c:	c2 0e 60 01 	ldub  [ %i1 + 1 ], %g1
     ea0:	86 00 7f d0 	add  %g1, -48, %g3
     ea4:	86 08 e0 ff 	and  %g3, 0xff, %g3
     ea8:	80 a0 e0 09 	cmp  %g3, 9
     eac:	18 80 00 12 	bgu  ef4 <ee_vsprintf+0x250>
     eb0:	84 06 60 01 	add  %i1, 1, %g2
     eb4:	ac 10 20 00 	clr  %l6
     eb8:	86 05 80 16 	add  %l6, %l6, %g3
     ebc:	83 28 60 18 	sll  %g1, 0x18, %g1
     ec0:	83 38 60 18 	sra  %g1, 0x18, %g1
     ec4:	ad 2d a0 03 	sll  %l6, 3, %l6
     ec8:	84 00 a0 01 	inc  %g2
     ecc:	ac 00 c0 16 	add  %g3, %l6, %l6
     ed0:	ac 05 80 01 	add  %l6, %g1, %l6
     ed4:	c2 08 80 00 	ldub  [ %g2 ], %g1
     ed8:	86 00 7f d0 	add  %g1, -48, %g3
     edc:	86 08 e0 ff 	and  %g3, 0xff, %g3
     ee0:	80 a0 e0 09 	cmp  %g3, 9
     ee4:	08 bf ff f5 	bleu  eb8 <ee_vsprintf+0x214>
     ee8:	ac 05 bf d0 	add  %l6, -48, %l6
     eec:	10 bf ff a6 	b  d84 <ee_vsprintf+0xe0>
     ef0:	b2 10 00 02 	mov  %g2, %i1
     ef4:	87 28 60 18 	sll  %g1, 0x18, %g3
     ef8:	87 38 e0 18 	sra  %g3, 0x18, %g3
     efc:	80 a0 e0 2a 	cmp  %g3, 0x2a
     f00:	02 80 01 70 	be  14c0 <ee_vsprintf+0x81c>
     f04:	ac 10 20 00 	clr  %l6
     f08:	10 bf ff 9f 	b  d84 <ee_vsprintf+0xe0>
     f0c:	b2 10 00 02 	mov  %g2, %i1
     f10:	9a 13 60 40 	or  %o5, 0x40, %o5
     f14:	80 a0 e0 6c 	cmp  %g3, 0x6c
     f18:	02 80 01 22 	be  13a0 <ee_vsprintf+0x6fc>
     f1c:	84 10 20 00 	clr  %g2
     f20:	de 06 80 00 	ld  [ %i2 ], %o7
     f24:	b4 06 a0 04 	add  %i2, 4, %i2
     f28:	c2 0b c0 02 	ldub  [ %o7 + %g2 ], %g1
     f2c:	86 10 20 00 	clr  %g3
     f30:	94 10 20 30 	mov  0x30, %o2
     f34:	80 a0 60 00 	cmp  %g1, 0
     f38:	12 80 00 0e 	bne  f70 <ee_vsprintf+0x2cc>
     f3c:	96 10 20 2e 	mov  0x2e, %o3
     f40:	82 07 80 03 	add  %fp, %g3, %g1
     f44:	d4 28 7f b0 	stb  %o2, [ %g1 + -80 ]
     f48:	84 00 a0 01 	inc  %g2
     f4c:	80 a0 a0 04 	cmp  %g2, 4
     f50:	02 80 00 2b 	be  ffc <ee_vsprintf+0x358>
     f54:	86 00 e0 01 	inc  %g3
     f58:	82 07 80 03 	add  %fp, %g3, %g1
     f5c:	d6 28 7f b0 	stb  %o3, [ %g1 + -80 ]
     f60:	c2 0b c0 02 	ldub  [ %o7 + %g2 ], %g1
     f64:	80 a0 60 00 	cmp  %g1, 0
     f68:	02 bf ff f6 	be  f40 <ee_vsprintf+0x29c>
     f6c:	86 00 e0 01 	inc  %g3
     f70:	80 a0 60 63 	cmp  %g1, 0x63
     f74:	04 80 00 d8 	ble  12d4 <ee_vsprintf+0x630>
     f78:	80 a0 60 09 	cmp  %g1, 9
     f7c:	89 38 60 1f 	sra  %g1, 0x1f, %g4
     f80:	81 81 20 00 	mov  %g4, %y
     f84:	01 00 00 00 	nop 
     f88:	01 00 00 00 	nop 
     f8c:	01 00 00 00 	nop 
     f90:	98 78 60 64 	sdiv  %g1, 0x64, %o4
     f94:	88 14 20 40 	or  %l0, 0x40, %g4
     f98:	90 5b 20 64 	smul  %o4, 0x64, %o0
     f9c:	d8 09 00 0c 	ldub  [ %g4 + %o4 ], %o4
     fa0:	92 07 80 03 	add  %fp, %g3, %o1
     fa4:	82 20 40 08 	sub  %g1, %o0, %g1
     fa8:	d8 2a 7f b0 	stb  %o4, [ %o1 + -80 ]
     fac:	86 00 e0 02 	add  %g3, 2, %g3
     fb0:	91 38 60 1f 	sra  %g1, 0x1f, %o0
     fb4:	81 82 20 00 	mov  %o0, %y
     fb8:	01 00 00 00 	nop 
     fbc:	01 00 00 00 	nop 
     fc0:	01 00 00 00 	nop 
     fc4:	98 78 60 0a 	sdiv  %g1, 0xa, %o4
     fc8:	ec 09 00 0c 	ldub  [ %g4 + %o4 ], %l6
     fcc:	90 03 00 0c 	add  %o4, %o4, %o0
     fd0:	ec 2a 7f b1 	stb  %l6, [ %o1 + -79 ]
     fd4:	99 2b 20 03 	sll  %o4, 3, %o4
     fd8:	98 02 00 0c 	add  %o0, %o4, %o4
     fdc:	82 20 40 0c 	sub  %g1, %o4, %g1
     fe0:	98 07 80 03 	add  %fp, %g3, %o4
     fe4:	c2 09 00 01 	ldub  [ %g4 + %g1 ], %g1
     fe8:	c2 2b 3f b0 	stb  %g1, [ %o4 + -80 ]
     fec:	84 00 a0 01 	inc  %g2
     ff0:	80 a0 a0 04 	cmp  %g2, 4
     ff4:	12 bf ff d9 	bne  f58 <ee_vsprintf+0x2b4>
     ff8:	86 00 e0 01 	inc  %g3
     ffc:	80 8b 60 10 	btst  0x10, %o5
    1000:	32 80 00 0f 	bne,a   103c <ee_vsprintf+0x398>
    1004:	82 10 20 00 	clr  %g1
    1008:	80 a7 00 03 	cmp  %i4, %g3
    100c:	04 80 02 08 	ble  182c <ee_vsprintf+0xb88>
    1010:	82 07 3f ff 	add  %i4, -1, %g1
    1014:	82 27 00 03 	sub  %i4, %g3, %g1
    1018:	84 10 20 20 	mov  0x20, %g2
    101c:	82 07 40 01 	add  %i5, %g1, %g1
    1020:	c4 2f 40 00 	stb  %g2, [ %i5 ]
    1024:	ba 07 60 01 	inc  %i5
    1028:	80 a7 40 01 	cmp  %i5, %g1
    102c:	32 bf ff fe 	bne,a   1024 <ee_vsprintf+0x380>
    1030:	c4 2f 40 00 	stb  %g2, [ %i5 ]
    1034:	b8 00 ff ff 	add  %g3, -1, %i4
    1038:	82 10 20 00 	clr  %g1
    103c:	c4 0c c0 01 	ldub  [ %l3 + %g1 ], %g2
    1040:	c4 2f 40 01 	stb  %g2, [ %i5 + %g1 ]
    1044:	82 00 60 01 	inc  %g1
    1048:	80 a0 40 03 	cmp  %g1, %g3
    104c:	32 bf ff fd 	bne,a   1040 <ee_vsprintf+0x39c>
    1050:	c4 0c c0 01 	ldub  [ %l3 + %g1 ], %g2
    1054:	80 a7 00 01 	cmp  %i4, %g1
    1058:	04 80 00 0a 	ble  1080 <ee_vsprintf+0x3dc>
    105c:	ba 07 40 01 	add  %i5, %g1, %i5
    1060:	82 27 00 01 	sub  %i4, %g1, %g1
    1064:	84 10 20 20 	mov  0x20, %g2
    1068:	82 07 40 01 	add  %i5, %g1, %g1
    106c:	c4 2f 40 00 	stb  %g2, [ %i5 ]
    1070:	ba 07 60 01 	inc  %i5
    1074:	80 a7 40 01 	cmp  %i5, %g1
    1078:	32 bf ff fe 	bne,a   1070 <ee_vsprintf+0x3cc>
    107c:	c4 2f 40 00 	stb  %g2, [ %i5 ]
    1080:	10 bf ff 19 	b  ce4 <ee_vsprintf+0x40>
    1084:	c4 0e 60 01 	ldub  [ %i1 + 1 ], %g2
    1088:	9a 13 60 40 	or  %o5, 0x40, %o5
    108c:	94 10 20 10 	mov  0x10, %o2
    1090:	d2 06 80 00 	ld  [ %i2 ], %o1
    1094:	90 10 00 1d 	mov  %i5, %o0
    1098:	96 10 00 1c 	mov  %i4, %o3
    109c:	7f ff fe 53 	call  9e8 <number>
    10a0:	98 10 00 16 	mov  %l6, %o4
    10a4:	b4 06 a0 04 	add  %i2, 4, %i2
    10a8:	ba 10 00 08 	mov  %o0, %i5
    10ac:	10 bf ff 0e 	b  ce4 <ee_vsprintf+0x40>
    10b0:	c4 0e 60 01 	ldub  [ %i1 + 1 ], %g2
    10b4:	c8 06 80 00 	ld  [ %i2 ], %g4
    10b8:	80 a1 20 00 	cmp  %g4, 0
    10bc:	02 80 01 c4 	be  17cc <ee_vsprintf+0xb28>
    10c0:	b4 06 a0 04 	add  %i2, 4, %i2
    10c4:	c2 49 00 00 	ldsb  [ %g4 ], %g1
    10c8:	80 a0 60 00 	cmp  %g1, 0
    10cc:	02 80 01 c3 	be  17d8 <ee_vsprintf+0xb34>
    10d0:	80 a5 a0 00 	cmp  %l6, 0
    10d4:	02 80 01 c1 	be  17d8 <ee_vsprintf+0xb34>
    10d8:	82 10 00 04 	mov  %g4, %g1
    10dc:	10 80 00 05 	b  10f0 <ee_vsprintf+0x44c>
    10e0:	82 00 60 01 	inc  %g1
    10e4:	02 80 00 08 	be  1104 <ee_vsprintf+0x460>
    10e8:	86 20 40 04 	sub  %g1, %g4, %g3
    10ec:	82 00 60 01 	inc  %g1
    10f0:	c4 48 40 00 	ldsb  [ %g1 ], %g2
    10f4:	80 a0 a0 00 	cmp  %g2, 0
    10f8:	32 bf ff fb 	bne,a   10e4 <ee_vsprintf+0x440>
    10fc:	ac 85 bf ff 	addcc  %l6, -1, %l6
    1100:	86 20 40 04 	sub  %g1, %g4, %g3
    1104:	80 8b 60 10 	btst  0x10, %o5
    1108:	12 80 00 0f 	bne  1144 <ee_vsprintf+0x4a0>
    110c:	80 a0 e0 00 	cmp  %g3, 0
    1110:	80 a7 00 03 	cmp  %i4, %g3
    1114:	04 80 01 df 	ble  1890 <ee_vsprintf+0xbec>
    1118:	82 07 3f ff 	add  %i4, -1, %g1
    111c:	82 27 00 03 	sub  %i4, %g3, %g1
    1120:	84 10 20 20 	mov  0x20, %g2
    1124:	82 07 40 01 	add  %i5, %g1, %g1
    1128:	c4 2f 40 00 	stb  %g2, [ %i5 ]
    112c:	ba 07 60 01 	inc  %i5
    1130:	80 a7 40 01 	cmp  %i5, %g1
    1134:	32 bf ff fe 	bne,a   112c <ee_vsprintf+0x488>
    1138:	c4 2f 40 00 	stb  %g2, [ %i5 ]
    113c:	b8 00 ff ff 	add  %g3, -1, %i4
    1140:	80 a0 e0 00 	cmp  %g3, 0
    1144:	04 80 00 09 	ble  1168 <ee_vsprintf+0x4c4>
    1148:	82 10 20 00 	clr  %g1
    114c:	c4 09 00 01 	ldub  [ %g4 + %g1 ], %g2
    1150:	c4 2f 40 01 	stb  %g2, [ %i5 + %g1 ]
    1154:	82 00 60 01 	inc  %g1
    1158:	80 a0 40 03 	cmp  %g1, %g3
    115c:	32 bf ff fd 	bne,a   1150 <ee_vsprintf+0x4ac>
    1160:	c4 09 00 01 	ldub  [ %g4 + %g1 ], %g2
    1164:	ba 07 40 03 	add  %i5, %g3, %i5
    1168:	82 27 00 03 	sub  %i4, %g3, %g1
    116c:	84 10 20 20 	mov  0x20, %g2
    1170:	80 a7 00 03 	cmp  %i4, %g3
    1174:	04 bf ff c3 	ble  1080 <ee_vsprintf+0x3dc>
    1178:	82 07 40 01 	add  %i5, %g1, %g1
    117c:	c4 2f 40 00 	stb  %g2, [ %i5 ]
    1180:	ba 07 60 01 	inc  %i5
    1184:	80 a7 40 01 	cmp  %i5, %g1
    1188:	32 bf ff fe 	bne,a   1180 <ee_vsprintf+0x4dc>
    118c:	c4 2f 40 00 	stb  %g2, [ %i5 ]
    1190:	10 bf fe d5 	b  ce4 <ee_vsprintf+0x40>
    1194:	c4 0e 60 01 	ldub  [ %i1 + 1 ], %g2
    1198:	80 a7 3f ff 	cmp  %i4, -1
    119c:	22 80 00 7f 	be,a   1398 <ee_vsprintf+0x6f4>
    11a0:	9a 13 60 01 	or  %o5, 1, %o5
    11a4:	d2 06 80 00 	ld  [ %i2 ], %o1
    11a8:	90 10 00 1d 	mov  %i5, %o0
    11ac:	94 10 20 10 	mov  0x10, %o2
    11b0:	96 10 00 1c 	mov  %i4, %o3
    11b4:	7f ff fe 0d 	call  9e8 <number>
    11b8:	98 10 00 16 	mov  %l6, %o4
    11bc:	b4 06 a0 04 	add  %i2, 4, %i2
    11c0:	ba 10 00 08 	mov  %o0, %i5
    11c4:	10 bf fe c8 	b  ce4 <ee_vsprintf+0x40>
    11c8:	c4 0e 60 01 	ldub  [ %i1 + 1 ], %g2
    11cc:	10 bf ff b1 	b  1090 <ee_vsprintf+0x3ec>
    11d0:	94 10 20 08 	mov  8, %o2
    11d4:	92 10 00 1a 	mov  %i2, %o1
    11d8:	da 27 bf 44 	st  %o5, [ %fp + -188 ]
    11dc:	90 07 bf 58 	add  %fp, -168, %o0
    11e0:	40 00 09 00 	call  35e0 <__GI_memcpy>
    11e4:	94 10 20 08 	mov  8, %o2
    11e8:	da 07 bf 44 	ld  [ %fp + -188 ], %o5
    11ec:	b4 06 a0 08 	add  %i2, 8, %i2
    11f0:	d1 1f bf 58 	ldd  [ %fp + -168 ], %f8
    11f4:	80 8b 60 10 	btst  0x10, %o5
    11f8:	12 80 00 5b 	bne  1364 <ee_vsprintf+0x6c0>
    11fc:	82 13 60 02 	or  %o5, 2, %g1
    1200:	84 08 60 01 	and  %g1, 1, %g2
    1204:	d5 1c 60 98 	ldd  [ %l1 + 0x98 ], %f10
    1208:	80 a0 00 02 	cmp  %g0, %g2
    120c:	81 aa 0a ca 	fcmped  %f8, %f10
    1210:	ae 40 3f ff 	addx  %g0, -1, %l7
    1214:	ae 0d e0 f0 	and  %l7, 0xf0, %l7
    1218:	01 00 00 00 	nop 
    121c:	09 80 00 b6 	fbl  14f4 <ee_vsprintf+0x850>
    1220:	ae 05 e0 30 	add  %l7, 0x30, %l7
    1224:	80 88 60 04 	btst  4, %g1
    1228:	32 80 00 e4 	bne,a   15b8 <ee_vsprintf+0x914>
    122c:	b8 07 3f ff 	add  %i4, -1, %i4
    1230:	80 88 60 08 	btst  8, %g1
    1234:	02 80 00 b3 	be  1500 <ee_vsprintf+0x85c>
    1238:	88 10 20 00 	clr  %g4
    123c:	b8 07 3f ff 	add  %i4, -1, %i4
    1240:	10 80 00 b0 	b  1500 <ee_vsprintf+0x85c>
    1244:	88 10 20 20 	mov  0x20, %g4
    1248:	10 bf ff 92 	b  1090 <ee_vsprintf+0x3ec>
    124c:	94 10 20 10 	mov  0x10, %o2
    1250:	10 bf ff 90 	b  1090 <ee_vsprintf+0x3ec>
    1254:	94 10 20 0a 	mov  0xa, %o2
    1258:	9a 13 60 02 	or  %o5, 2, %o5
    125c:	10 bf ff 8d 	b  1090 <ee_vsprintf+0x3ec>
    1260:	94 10 20 0a 	mov  0xa, %o2
    1264:	80 8b 60 10 	btst  0x10, %o5
    1268:	32 80 00 2e 	bne,a   1320 <ee_vsprintf+0x67c>
    126c:	c2 06 80 00 	ld  [ %i2 ], %g1
    1270:	b8 07 3f ff 	add  %i4, -1, %i4
    1274:	80 a7 20 00 	cmp  %i4, 0
    1278:	04 80 00 29 	ble  131c <ee_vsprintf+0x678>
    127c:	82 10 20 20 	mov  0x20, %g1
    1280:	84 07 40 1c 	add  %i5, %i4, %g2
    1284:	c2 2f 40 00 	stb  %g1, [ %i5 ]
    1288:	ba 07 60 01 	inc  %i5
    128c:	80 a7 40 02 	cmp  %i5, %g2
    1290:	32 bf ff fe 	bne,a   1288 <ee_vsprintf+0x5e4>
    1294:	c2 2f 40 00 	stb  %g1, [ %i5 ]
    1298:	c2 06 80 00 	ld  [ %i2 ], %g1
    129c:	b4 06 a0 04 	add  %i2, 4, %i2
    12a0:	c2 2f 40 00 	stb  %g1, [ %i5 ]
    12a4:	ba 07 60 01 	inc  %i5
    12a8:	10 bf fe 8f 	b  ce4 <ee_vsprintf+0x40>
    12ac:	c4 0e 60 01 	ldub  [ %i1 + 1 ], %g2
    12b0:	f8 06 80 00 	ld  [ %i2 ], %i4
    12b4:	84 06 60 02 	add  %i1, 2, %g2
    12b8:	b4 06 a0 04 	add  %i2, 4, %i2
    12bc:	80 a7 20 00 	cmp  %i4, 0
    12c0:	16 bf fe ab 	bge  d6c <ee_vsprintf+0xc8>
    12c4:	c2 0e 60 02 	ldub  [ %i1 + 2 ], %g1
    12c8:	b8 20 00 1c 	neg  %i4
    12cc:	10 bf fe a8 	b  d6c <ee_vsprintf+0xc8>
    12d0:	9a 13 60 10 	or  %o5, 0x10, %o5
    12d4:	24 bf ff 43 	ble,a   fe0 <ee_vsprintf+0x33c>
    12d8:	88 14 20 40 	or  %l0, 0x40, %g4
    12dc:	89 38 60 1f 	sra  %g1, 0x1f, %g4
    12e0:	81 81 20 00 	mov  %g4, %y
    12e4:	01 00 00 00 	nop 
    12e8:	01 00 00 00 	nop 
    12ec:	01 00 00 00 	nop 
    12f0:	98 78 60 0a 	sdiv  %g1, 0xa, %o4
    12f4:	90 07 80 03 	add  %fp, %g3, %o0
    12f8:	92 03 00 0c 	add  %o4, %o4, %o1
    12fc:	88 14 20 40 	or  %l0, 0x40, %g4
    1300:	86 00 e0 01 	inc  %g3
    1304:	ec 09 00 0c 	ldub  [ %g4 + %o4 ], %l6
    1308:	99 2b 20 03 	sll  %o4, 3, %o4
    130c:	ec 2a 3f b0 	stb  %l6, [ %o0 + -80 ]
    1310:	98 02 40 0c 	add  %o1, %o4, %o4
    1314:	10 bf ff 33 	b  fe0 <ee_vsprintf+0x33c>
    1318:	82 20 40 0c 	sub  %g1, %o4, %g1
    131c:	c2 06 80 00 	ld  [ %i2 ], %g1
    1320:	c2 2f 40 00 	stb  %g1, [ %i5 ]
    1324:	86 07 60 01 	add  %i5, 1, %g3
    1328:	b4 06 a0 04 	add  %i2, 4, %i2
    132c:	ba 07 40 1c 	add  %i5, %i4, %i5
    1330:	82 10 00 03 	mov  %g3, %g1
    1334:	80 a7 20 01 	cmp  %i4, 1
    1338:	04 80 01 61 	ble  18bc <ee_vsprintf+0xc18>
    133c:	84 10 20 20 	mov  0x20, %g2
    1340:	c4 28 40 00 	stb  %g2, [ %g1 ]
    1344:	82 00 60 01 	inc  %g1
    1348:	80 a0 40 1d 	cmp  %g1, %i5
    134c:	32 bf ff fe 	bne,a   1344 <ee_vsprintf+0x6a0>
    1350:	c4 28 40 00 	stb  %g2, [ %g1 ]
    1354:	ba 07 3f ff 	add  %i4, -1, %i5
    1358:	c4 0e 60 01 	ldub  [ %i1 + 1 ], %g2
    135c:	10 bf fe 62 	b  ce4 <ee_vsprintf+0x40>
    1360:	ba 00 c0 1d 	add  %g3, %i5, %i5
    1364:	82 0b 7f fe 	and  %o5, -2, %g1
    1368:	d5 1c 60 98 	ldd  [ %l1 + 0x98 ], %f10
    136c:	82 10 60 02 	or  %g1, 2, %g1
    1370:	81 aa 0a ca 	fcmped  %f8, %f10
    1374:	84 08 60 01 	and  %g1, 1, %g2
    1378:	80 a0 00 02 	cmp  %g0, %g2
    137c:	ae 40 3f ff 	addx  %g0, -1, %l7
    1380:	ae 0d e0 f0 	and  %l7, 0xf0, %l7
    1384:	01 00 00 00 	nop 
    1388:	19 bf ff a7 	fbuge  1224 <ee_vsprintf+0x580>
    138c:	ae 05 e0 30 	add  %l7, 0x30, %l7
    1390:	10 80 00 5a 	b  14f8 <ee_vsprintf+0x854>
    1394:	91 a0 00 a8 	fnegs  %f8, %f8
    1398:	10 bf ff 83 	b  11a4 <ee_vsprintf+0x500>
    139c:	b8 10 20 08 	mov  8, %i4
    13a0:	d4 06 80 00 	ld  [ %i2 ], %o2
    13a4:	80 8b 60 40 	btst  0x40, %o5
    13a8:	02 80 00 51 	be  14ec <ee_vsprintf+0x848>
    13ac:	b4 06 a0 04 	add  %i2, 4, %i2
    13b0:	9e 14 a0 68 	or  %l2, 0x68, %o7
    13b4:	82 10 20 00 	clr  %g1
    13b8:	c8 0a 80 01 	ldub  [ %o2 + %g1 ], %g4
    13bc:	96 09 20 ff 	and  %g4, 0xff, %o3
    13c0:	88 09 20 0f 	and  %g4, 0xf, %g4
    13c4:	84 10 20 00 	clr  %g2
    13c8:	d8 0b c0 04 	ldub  [ %o7 + %g4 ], %o4
    13cc:	86 07 80 02 	add  %fp, %g2, %g3
    13d0:	97 32 e0 04 	srl  %o3, 4, %o3
    13d4:	d8 28 ff b1 	stb  %o4, [ %g3 + -79 ]
    13d8:	c8 0b c0 0b 	ldub  [ %o7 + %o3 ], %g4
    13dc:	c8 28 ff b0 	stb  %g4, [ %g3 + -80 ]
    13e0:	82 00 60 01 	inc  %g1
    13e4:	92 10 20 3a 	mov  0x3a, %o1
    13e8:	80 a0 60 06 	cmp  %g1, 6
    13ec:	02 80 00 12 	be  1434 <ee_vsprintf+0x790>
    13f0:	86 00 a0 02 	add  %g2, 2, %g3
    13f4:	86 07 80 03 	add  %fp, %g3, %g3
    13f8:	d2 28 ff b0 	stb  %o1, [ %g3 + -80 ]
    13fc:	c8 0a 80 01 	ldub  [ %o2 + %g1 ], %g4
    1400:	96 09 20 ff 	and  %g4, 0xff, %o3
    1404:	88 09 20 0f 	and  %g4, 0xf, %g4
    1408:	84 00 a0 03 	add  %g2, 3, %g2
    140c:	d8 0b c0 04 	ldub  [ %o7 + %g4 ], %o4
    1410:	86 07 80 02 	add  %fp, %g2, %g3
    1414:	97 32 e0 04 	srl  %o3, 4, %o3
    1418:	d8 28 ff b1 	stb  %o4, [ %g3 + -79 ]
    141c:	c8 0b c0 0b 	ldub  [ %o7 + %o3 ], %g4
    1420:	c8 28 ff b0 	stb  %g4, [ %g3 + -80 ]
    1424:	82 00 60 01 	inc  %g1
    1428:	80 a0 60 06 	cmp  %g1, 6
    142c:	12 bf ff f2 	bne  13f4 <ee_vsprintf+0x750>
    1430:	86 00 a0 02 	add  %g2, 2, %g3
    1434:	80 8b 60 10 	btst  0x10, %o5
    1438:	32 80 00 0f 	bne,a   1474 <ee_vsprintf+0x7d0>
    143c:	82 10 20 00 	clr  %g1
    1440:	80 a7 00 03 	cmp  %i4, %g3
    1444:	04 80 01 19 	ble  18a8 <ee_vsprintf+0xc04>
    1448:	82 07 3f ff 	add  %i4, -1, %g1
    144c:	82 27 00 03 	sub  %i4, %g3, %g1
    1450:	84 10 20 20 	mov  0x20, %g2
    1454:	82 07 40 01 	add  %i5, %g1, %g1
    1458:	c4 2f 40 00 	stb  %g2, [ %i5 ]
    145c:	ba 07 60 01 	inc  %i5
    1460:	80 a7 40 01 	cmp  %i5, %g1
    1464:	32 bf ff fe 	bne,a   145c <ee_vsprintf+0x7b8>
    1468:	c4 2f 40 00 	stb  %g2, [ %i5 ]
    146c:	b8 00 ff ff 	add  %g3, -1, %i4
    1470:	82 10 20 00 	clr  %g1
    1474:	c4 0c c0 01 	ldub  [ %l3 + %g1 ], %g2
    1478:	c4 2f 40 01 	stb  %g2, [ %i5 + %g1 ]
    147c:	82 00 60 01 	inc  %g1
    1480:	80 a0 40 03 	cmp  %g1, %g3
    1484:	32 bf ff fd 	bne,a   1478 <ee_vsprintf+0x7d4>
    1488:	c4 0c c0 01 	ldub  [ %l3 + %g1 ], %g2
    148c:	80 a7 00 01 	cmp  %i4, %g1
    1490:	04 bf fe fc 	ble  1080 <ee_vsprintf+0x3dc>
    1494:	ba 07 40 01 	add  %i5, %g1, %i5
    1498:	82 27 00 01 	sub  %i4, %g1, %g1
    149c:	84 10 20 20 	mov  0x20, %g2
    14a0:	82 07 40 01 	add  %i5, %g1, %g1
    14a4:	c4 2f 40 00 	stb  %g2, [ %i5 ]
    14a8:	ba 07 60 01 	inc  %i5
    14ac:	80 a7 40 01 	cmp  %i5, %g1
    14b0:	32 bf ff fe 	bne,a   14a8 <ee_vsprintf+0x804>
    14b4:	c4 2f 40 00 	stb  %g2, [ %i5 ]
    14b8:	10 bf fe 0b 	b  ce4 <ee_vsprintf+0x40>
    14bc:	c4 0e 60 01 	ldub  [ %i1 + 1 ], %g2
    14c0:	ec 06 80 00 	ld  [ %i2 ], %l6
    14c4:	84 06 60 02 	add  %i1, 2, %g2
    14c8:	b4 06 a0 04 	add  %i2, 4, %i2
    14cc:	80 a5 a0 00 	cmp  %l6, 0
    14d0:	16 bf fe 87 	bge  eec <ee_vsprintf+0x248>
    14d4:	c2 0e 60 02 	ldub  [ %i1 + 2 ], %g1
    14d8:	ac 10 20 00 	clr  %l6
    14dc:	10 bf fe 2a 	b  d84 <ee_vsprintf+0xe0>
    14e0:	b2 10 00 02 	mov  %g2, %i1
    14e4:	10 bf fe 4a 	b  e0c <ee_vsprintf+0x168>
    14e8:	b0 10 20 00 	clr  %i0
    14ec:	10 bf ff b2 	b  13b4 <ee_vsprintf+0x710>
    14f0:	9e 14 20 40 	or  %l0, 0x40, %o7
    14f4:	91 a0 00 a8 	fnegs  %f8, %f8
    14f8:	b8 07 3f ff 	add  %i4, -1, %i4
    14fc:	88 10 20 2d 	mov  0x2d, %g4
    1500:	80 a5 bf ff 	cmp  %l6, -1
    1504:	22 80 00 02 	be,a   150c <ee_vsprintf+0x868>
    1508:	ac 10 20 06 	mov  6, %l6
    150c:	d1 3f bf 38 	std  %f8, [ %fp + -200 ]
    1510:	c2 27 bf 4c 	st  %g1, [ %fp + -180 ]
    1514:	c8 27 bf 48 	st  %g4, [ %fp + -184 ]
    1518:	d0 1f bf 38 	ldd  [ %fp + -200 ], %o0
    151c:	94 10 00 16 	mov  %l6, %o2
    1520:	96 07 bf 50 	add  %fp, -176, %o3
    1524:	98 07 bf 54 	add  %fp, -172, %o4
    1528:	40 00 01 f2 	call  1cf0 <fcvtbuf>
    152c:	9a 10 00 13 	mov  %l3, %o5
    1530:	c6 07 bf 54 	ld  [ %fp + -172 ], %g3
    1534:	84 07 bf 60 	add  %fp, -160, %g2
    1538:	80 a0 e0 00 	cmp  %g3, 0
    153c:	c2 07 bf 4c 	ld  [ %fp + -180 ], %g1
    1540:	02 80 00 05 	be  1554 <ee_vsprintf+0x8b0>
    1544:	c8 07 bf 48 	ld  [ %fp + -184 ], %g4
    1548:	86 10 20 2d 	mov  0x2d, %g3
    154c:	84 07 bf 61 	add  %fp, -159, %g2
    1550:	c6 2f bf 60 	stb  %g3, [ %fp + -160 ]
    1554:	c6 4a 00 00 	ldsb  [ %o0 ], %g3
    1558:	80 a0 e0 00 	cmp  %g3, 0
    155c:	02 80 00 a1 	be  17e0 <ee_vsprintf+0xb3c>
    1560:	de 0a 00 00 	ldub  [ %o0 ], %o7
    1564:	d8 07 bf 50 	ld  [ %fp + -176 ], %o4
    1568:	86 10 00 08 	mov  %o0, %g3
    156c:	80 a3 20 00 	cmp  %o4, 0
    1570:	14 80 00 0b 	bg  159c <ee_vsprintf+0x8f8>
    1574:	96 10 20 2e 	mov  0x2e, %o3
    1578:	10 80 00 12 	b  15c0 <ee_vsprintf+0x91c>
    157c:	86 10 20 30 	mov  0x30, %g3
    1580:	de 28 80 00 	stb  %o7, [ %g2 ]
    1584:	86 00 e0 01 	inc  %g3
    1588:	84 00 a0 01 	inc  %g2
    158c:	da 48 c0 00 	ldsb  [ %g3 ], %o5
    1590:	80 a3 60 00 	cmp  %o5, 0
    1594:	02 80 00 1f 	be  1610 <ee_vsprintf+0x96c>
    1598:	de 08 c0 00 	ldub  [ %g3 ], %o7
    159c:	9a 20 c0 08 	sub  %g3, %o0, %o5
    15a0:	80 a3 00 0d 	cmp  %o4, %o5
    15a4:	32 bf ff f8 	bne,a   1584 <ee_vsprintf+0x8e0>
    15a8:	de 28 80 00 	stb  %o7, [ %g2 ]
    15ac:	d6 28 80 00 	stb  %o3, [ %g2 ]
    15b0:	10 bf ff f4 	b  1580 <ee_vsprintf+0x8dc>
    15b4:	84 00 a0 01 	inc  %g2
    15b8:	10 bf ff d2 	b  1500 <ee_vsprintf+0x85c>
    15bc:	88 10 20 2b 	mov  0x2b, %g4
    15c0:	c6 28 80 00 	stb  %g3, [ %g2 ]
    15c4:	86 10 20 2e 	mov  0x2e, %g3
    15c8:	c6 28 a0 01 	stb  %g3, [ %g2 + 1 ]
    15cc:	9a a0 00 0c 	subcc  %g0, %o4, %o5
    15d0:	02 80 00 09 	be  15f4 <ee_vsprintf+0x950>
    15d4:	84 00 a0 02 	add  %g2, 2, %g2
    15d8:	9a 00 80 0d 	add  %g2, %o5, %o5
    15dc:	86 10 20 30 	mov  0x30, %g3
    15e0:	c6 28 80 00 	stb  %g3, [ %g2 ]
    15e4:	84 00 a0 01 	inc  %g2
    15e8:	80 a0 80 0d 	cmp  %g2, %o5
    15ec:	32 bf ff fe 	bne,a   15e4 <ee_vsprintf+0x940>
    15f0:	c6 28 80 00 	stb  %g3, [ %g2 ]
    15f4:	de 28 80 00 	stb  %o7, [ %g2 ]
    15f8:	90 02 20 01 	inc  %o0
    15fc:	84 00 a0 01 	inc  %g2
    1600:	c6 4a 00 00 	ldsb  [ %o0 ], %g3
    1604:	80 a0 e0 00 	cmp  %g3, 0
    1608:	12 bf ff fb 	bne  15f4 <ee_vsprintf+0x950>
    160c:	de 0a 00 00 	ldub  [ %o0 ], %o7
    1610:	80 88 60 20 	btst  0x20, %g1
    1614:	02 80 00 05 	be  1628 <ee_vsprintf+0x984>
    1618:	c0 28 80 00 	clrb  [ %g2 ]
    161c:	80 a5 a0 00 	cmp  %l6, 0
    1620:	02 80 00 4c 	be  1750 <ee_vsprintf+0xaac>
    1624:	c6 4f bf 60 	ldsb  [ %fp + -160 ], %g3
    1628:	c4 0f bf 60 	ldub  [ %fp + -160 ], %g2
    162c:	87 28 a0 18 	sll  %g2, 0x18, %g3
    1630:	80 a0 e0 00 	cmp  %g3, 0
    1634:	22 80 00 0d 	be,a   1668 <ee_vsprintf+0x9c4>
    1638:	9e 10 20 00 	clr  %o7
    163c:	86 07 bf 60 	add  %fp, -160, %g3
    1640:	10 80 00 04 	b  1650 <ee_vsprintf+0x9ac>
    1644:	9e 10 00 03 	mov  %g3, %o7
    1648:	22 80 00 08 	be,a   1668 <ee_vsprintf+0x9c4>
    164c:	9e 25 40 03 	sub  %l5, %g3, %o7
    1650:	9e 03 e0 01 	inc  %o7
    1654:	da 4b c0 00 	ldsb  [ %o7 ], %o5
    1658:	80 a3 60 00 	cmp  %o5, 0
    165c:	12 bf ff fb 	bne  1648 <ee_vsprintf+0x9a4>
    1660:	80 a3 c0 15 	cmp  %o7, %l5
    1664:	9e 23 c0 03 	sub  %o7, %g3, %o7
    1668:	80 88 60 11 	btst  0x11, %g1
    166c:	12 80 00 0d 	bne  16a0 <ee_vsprintf+0x9fc>
    1670:	b8 27 00 0f 	sub  %i4, %o7, %i4
    1674:	80 a7 20 00 	cmp  %i4, 0
    1678:	04 80 00 88 	ble  1898 <ee_vsprintf+0xbf4>
    167c:	86 07 3f ff 	add  %i4, -1, %g3
    1680:	b8 07 40 1c 	add  %i5, %i4, %i4
    1684:	86 10 20 20 	mov  0x20, %g3
    1688:	c6 2f 40 00 	stb  %g3, [ %i5 ]
    168c:	ba 07 60 01 	inc  %i5
    1690:	80 a7 40 1c 	cmp  %i5, %i4
    1694:	32 bf ff fe 	bne,a   168c <ee_vsprintf+0x9e8>
    1698:	c6 2f 40 00 	stb  %g3, [ %i5 ]
    169c:	b8 10 3f ff 	mov  -1, %i4
    16a0:	80 89 20 ff 	btst  0xff, %g4
    16a4:	02 80 00 04 	be  16b4 <ee_vsprintf+0xa10>
    16a8:	80 88 60 10 	btst  0x10, %g1
    16ac:	c8 2f 40 00 	stb  %g4, [ %i5 ]
    16b0:	ba 07 60 01 	inc  %i5
    16b4:	12 80 00 0d 	bne  16e8 <ee_vsprintf+0xa44>
    16b8:	80 a3 e0 00 	cmp  %o7, 0
    16bc:	80 a7 20 00 	cmp  %i4, 0
    16c0:	04 80 00 78 	ble  18a0 <ee_vsprintf+0xbfc>
    16c4:	82 07 3f ff 	add  %i4, -1, %g1
    16c8:	b8 07 40 1c 	add  %i5, %i4, %i4
    16cc:	ee 2f 40 00 	stb  %l7, [ %i5 ]
    16d0:	ba 07 60 01 	inc  %i5
    16d4:	80 a7 40 1c 	cmp  %i5, %i4
    16d8:	32 bf ff fe 	bne,a   16d0 <ee_vsprintf+0xa2c>
    16dc:	ee 2f 40 00 	stb  %l7, [ %i5 ]
    16e0:	b8 10 3f ff 	mov  -1, %i4
    16e4:	80 a3 e0 00 	cmp  %o7, 0
    16e8:	04 80 00 0b 	ble  1714 <ee_vsprintf+0xa70>
    16ec:	82 10 20 00 	clr  %g1
    16f0:	10 80 00 04 	b  1700 <ee_vsprintf+0xa5c>
    16f4:	c4 2f 40 01 	stb  %g2, [ %i5 + %g1 ]
    16f8:	c4 08 c0 01 	ldub  [ %g3 + %g1 ], %g2
    16fc:	c4 2f 40 01 	stb  %g2, [ %i5 + %g1 ]
    1700:	82 00 60 01 	inc  %g1
    1704:	80 a0 40 0f 	cmp  %g1, %o7
    1708:	12 bf ff fc 	bne  16f8 <ee_vsprintf+0xa54>
    170c:	86 07 bf 60 	add  %fp, -160, %g3
    1710:	ba 07 40 01 	add  %i5, %g1, %i5
    1714:	80 a7 20 00 	cmp  %i4, 0
    1718:	04 bf fe 5a 	ble  1080 <ee_vsprintf+0x3dc>
    171c:	82 10 20 20 	mov  0x20, %g1
    1720:	84 07 40 1c 	add  %i5, %i4, %g2
    1724:	c2 2f 40 00 	stb  %g1, [ %i5 ]
    1728:	ba 07 60 01 	inc  %i5
    172c:	80 a7 40 02 	cmp  %i5, %g2
    1730:	32 bf ff fe 	bne,a   1728 <ee_vsprintf+0xa84>
    1734:	c2 2f 40 00 	stb  %g1, [ %i5 ]
    1738:	10 bf fd 6b 	b  ce4 <ee_vsprintf+0x40>
    173c:	c4 0e 60 01 	ldub  [ %i1 + 1 ], %g2
    1740:	80 88 60 20 	btst  0x20, %g1
    1744:	02 bf ff b9 	be  1628 <ee_vsprintf+0x984>
    1748:	c0 28 a0 01 	clrb  [ %g2 + 1 ]
    174c:	c6 4f bf 60 	ldsb  [ %fp + -160 ], %g3
    1750:	80 a0 e0 00 	cmp  %g3, 0
    1754:	02 80 00 57 	be  18b0 <ee_vsprintf+0xc0c>
    1758:	c4 0f bf 60 	ldub  [ %fp + -160 ], %g2
    175c:	80 a0 e0 2e 	cmp  %g3, 0x2e
    1760:	02 bf ff b8 	be  1640 <ee_vsprintf+0x99c>
    1764:	86 07 bf 60 	add  %fp, -160, %g3
    1768:	86 08 bf df 	and  %g2, -33, %g3
    176c:	87 28 e0 18 	sll  %g3, 0x18, %g3
    1770:	87 38 e0 18 	sra  %g3, 0x18, %g3
    1774:	80 a0 e0 45 	cmp  %g3, 0x45
    1778:	02 80 00 2f 	be  1834 <ee_vsprintf+0xb90>
    177c:	86 07 bf 60 	add  %fp, -160, %g3
    1780:	10 80 00 0a 	b  17a8 <ee_vsprintf+0xb04>
    1784:	9e 10 00 03 	mov  %g3, %o7
    1788:	80 a3 60 2e 	cmp  %o5, 0x2e
    178c:	02 bf ff ad 	be  1640 <ee_vsprintf+0x99c>
    1790:	9a 0b 3f df 	and  %o4, -33, %o5
    1794:	9b 2b 60 18 	sll  %o5, 0x18, %o5
    1798:	9b 3b 60 18 	sra  %o5, 0x18, %o5
    179c:	80 a3 60 45 	cmp  %o5, 0x45
    17a0:	02 80 00 27 	be  183c <ee_vsprintf+0xb98>
    17a4:	9a 03 e1 00 	add  %o7, 0x100, %o5
    17a8:	9e 03 e0 01 	inc  %o7
    17ac:	da 4b c0 00 	ldsb  [ %o7 ], %o5
    17b0:	80 a3 60 00 	cmp  %o5, 0
    17b4:	12 bf ff f5 	bne  1788 <ee_vsprintf+0xae4>
    17b8:	d8 0b c0 00 	ldub  [ %o7 ], %o4
    17bc:	c0 2b e0 01 	clrb  [ %o7 + 1 ]
    17c0:	84 10 20 2e 	mov  0x2e, %g2
    17c4:	10 bf ff 99 	b  1628 <ee_vsprintf+0x984>
    17c8:	c4 2b c0 00 	stb  %g2, [ %o7 ]
    17cc:	09 00 00 28 	sethi  %hi(0xa000), %g4
    17d0:	10 bf fe 3d 	b  10c4 <ee_vsprintf+0x420>
    17d4:	88 11 20 90 	or  %g4, 0x90, %g4	! a090 <main+0x2090>
    17d8:	10 bf fe 4b 	b  1104 <ee_vsprintf+0x460>
    17dc:	86 10 20 00 	clr  %g3
    17e0:	86 10 20 30 	mov  0x30, %g3
    17e4:	80 a5 a0 00 	cmp  %l6, 0
    17e8:	02 bf ff d6 	be  1740 <ee_vsprintf+0xa9c>
    17ec:	c6 28 80 00 	stb  %g3, [ %g2 ]
    17f0:	9e 10 20 2e 	mov  0x2e, %o7
    17f4:	86 00 a0 02 	add  %g2, 2, %g3
    17f8:	de 28 a0 01 	stb  %o7, [ %g2 + 1 ]
    17fc:	84 10 20 00 	clr  %g2
    1800:	9e 10 20 30 	mov  0x30, %o7
    1804:	de 28 c0 02 	stb  %o7, [ %g3 + %g2 ]
    1808:	84 00 a0 01 	inc  %g2
    180c:	80 a5 80 02 	cmp  %l6, %g2
    1810:	34 bf ff fe 	bg,a   1808 <ee_vsprintf+0xb64>
    1814:	de 28 c0 02 	stb  %o7, [ %g3 + %g2 ]
    1818:	80 a5 a0 00 	cmp  %l6, 0
    181c:	24 80 00 02 	ble,a   1824 <ee_vsprintf+0xb80>
    1820:	ac 10 20 01 	mov  1, %l6
    1824:	10 bf ff 81 	b  1628 <ee_vsprintf+0x984>
    1828:	c0 28 c0 16 	clrb  [ %g3 + %l6 ]
    182c:	10 bf fe 03 	b  1038 <ee_vsprintf+0x394>
    1830:	b8 10 00 01 	mov  %g1, %i4
    1834:	9e 07 bf 60 	add  %fp, -160, %o7
    1838:	9a 03 e1 00 	add  %o7, 0x100, %o5
    183c:	10 80 00 04 	b  184c <ee_vsprintf+0xba8>
    1840:	84 10 00 0f 	mov  %o7, %g2
    1844:	22 80 00 08 	be,a   1864 <ee_vsprintf+0xbc0>
    1848:	84 20 80 0f 	sub  %g2, %o7, %g2
    184c:	84 00 a0 01 	inc  %g2
    1850:	c6 48 80 00 	ldsb  [ %g2 ], %g3
    1854:	80 a0 e0 00 	cmp  %g3, 0
    1858:	12 bf ff fb 	bne  1844 <ee_vsprintf+0xba0>
    185c:	80 a0 80 0d 	cmp  %g2, %o5
    1860:	84 20 80 0f 	sub  %g2, %o7, %g2
    1864:	80 a0 a0 00 	cmp  %g2, 0
    1868:	24 bf ff d7 	ble,a   17c4 <ee_vsprintf+0xb20>
    186c:	84 10 20 2e 	mov  0x2e, %g2
    1870:	da 0b c0 02 	ldub  [ %o7 + %g2 ], %o5
    1874:	86 03 c0 02 	add  %o7, %g2, %g3
    1878:	84 80 bf ff 	addcc  %g2, -1, %g2
    187c:	12 bf ff fd 	bne  1870 <ee_vsprintf+0xbcc>
    1880:	da 28 e0 01 	stb  %o5, [ %g3 + 1 ]
    1884:	84 10 20 2e 	mov  0x2e, %g2
    1888:	10 bf ff 68 	b  1628 <ee_vsprintf+0x984>
    188c:	c4 2b c0 00 	stb  %g2, [ %o7 ]
    1890:	10 bf fe 2c 	b  1140 <ee_vsprintf+0x49c>
    1894:	b8 10 00 01 	mov  %g1, %i4
    1898:	10 bf ff 82 	b  16a0 <ee_vsprintf+0x9fc>
    189c:	b8 10 00 03 	mov  %g3, %i4
    18a0:	10 bf ff 91 	b  16e4 <ee_vsprintf+0xa40>
    18a4:	b8 10 00 01 	mov  %g1, %i4
    18a8:	10 bf fe f2 	b  1470 <ee_vsprintf+0x7cc>
    18ac:	b8 10 00 01 	mov  %g1, %i4
    18b0:	9e 07 bf 60 	add  %fp, -160, %o7
    18b4:	10 bf ff c3 	b  17c0 <ee_vsprintf+0xb1c>
    18b8:	c0 2b e0 01 	clrb  [ %o7 + 1 ]
    18bc:	ba 10 00 03 	mov  %g3, %i5
    18c0:	10 bf fd 09 	b  ce4 <ee_vsprintf+0x40>
    18c4:	c4 0e 60 01 	ldub  [ %i1 + 1 ], %g2

000018c8 <uart_send_char>:
    18c8:	9d e3 bf a0 	save  %sp, -96, %sp
    18cc:	40 00 04 85 	call  2ae0 <__ajit_serial_putchar__>
    18d0:	90 10 00 18 	mov  %i0, %o0
    18d4:	80 a2 20 00 	cmp  %o0, 0
    18d8:	02 bf ff fd 	be  18cc <uart_send_char+0x4>
    18dc:	05 3f ff cc 	sethi  %hi(0xffff3000), %g2
    18e0:	84 10 a2 00 	or  %g2, 0x200, %g2	! ffff3200 <ajit_global_interrupt_handlers+0xfffe7f58>
    18e4:	c2 80 84 00 	lda  [ %g2 ] #ASI_SCRATCHPAD, %g1
    18e8:	82 08 60 09 	and  %g1, 9, %g1
    18ec:	80 a0 60 09 	cmp  %g1, 9
    18f0:	02 bf ff fd 	be  18e4 <uart_send_char+0x1c>
    18f4:	01 00 00 00 	nop 
    18f8:	81 c7 e0 08 	ret 
    18fc:	81 e8 00 00 	restore 

00001900 <ee_printf>:
    1900:	9d e3 bb 98 	save  %sp, -1128, %sp
    1904:	94 07 a0 48 	add  %fp, 0x48, %o2
    1908:	fa 27 a0 58 	st  %i5, [ %fp + 0x58 ]
    190c:	92 10 00 18 	mov  %i0, %o1
    1910:	f2 27 a0 48 	st  %i1, [ %fp + 0x48 ]
    1914:	f4 27 a0 4c 	st  %i2, [ %fp + 0x4c ]
    1918:	f6 27 a0 50 	st  %i3, [ %fp + 0x50 ]
    191c:	f8 27 a0 54 	st  %i4, [ %fp + 0x54 ]
    1920:	d4 27 bb fc 	st  %o2, [ %fp + -1028 ]
    1924:	ba 07 bc 00 	add  %fp, -1024, %i5
    1928:	7f ff fc df 	call  ca4 <ee_vsprintf>
    192c:	90 10 00 1d 	mov  %i5, %o0
    1930:	d0 0f bc 00 	ldub  [ %fp + -1024 ], %o0
    1934:	91 2a 20 18 	sll  %o0, 0x18, %o0
    1938:	80 a2 20 00 	cmp  %o0, 0
    193c:	02 80 00 0a 	be  1964 <ee_printf+0x64>
    1940:	b0 10 20 00 	clr  %i0
    1944:	7f ff ff e1 	call  18c8 <uart_send_char>
    1948:	91 3a 20 18 	sra  %o0, 0x18, %o0
    194c:	b0 06 20 01 	inc  %i0
    1950:	d0 0f 40 18 	ldub  [ %i5 + %i0 ], %o0
    1954:	91 2a 20 18 	sll  %o0, 0x18, %o0
    1958:	80 a2 20 00 	cmp  %o0, 0
    195c:	12 bf ff fa 	bne  1944 <ee_printf+0x44>
    1960:	01 00 00 00 	nop 
    1964:	81 c7 e0 08 	ret 
    1968:	81 e8 00 00 	restore 

0000196c <cvt>:
    196c:	9d e3 bf 90 	save  %sp, -112, %sp
    1970:	f0 3f bf f8 	std  %i0, [ %fp + -8 ]
    1974:	de 07 a0 5c 	ld  [ %fp + 0x5c ], %o7
    1978:	d5 1f bf f8 	ldd  [ %fp + -8 ], %f10
    197c:	80 a6 a0 00 	cmp  %i2, 0
    1980:	06 80 00 05 	bl  1994 <cvt+0x28>
    1984:	84 10 20 00 	clr  %g2
    1988:	80 a6 a0 4e 	cmp  %i2, 0x4e
    198c:	04 80 00 a6 	ble  1c24 <cvt+0x2b8>
    1990:	84 10 20 4e 	mov  0x4e, %g2
    1994:	03 00 00 28 	sethi  %hi(0xa000), %g1
    1998:	d1 18 60 98 	ldd  [ %g1 + 0x98 ], %f8	! a098 <main+0x2098>
    199c:	81 aa 8a c8 	fcmped  %f10, %f8
    19a0:	01 00 00 00 	nop 
    19a4:	09 80 00 9a 	fbl  1c0c <cvt+0x2a0>
    19a8:	86 10 20 01 	mov  1, %g3	! 1 <_start+0x1>
    19ac:	c0 27 00 00 	clr  [ %i4 ]
    19b0:	91 a0 1a 4a 	fdtoi  %f10, %f8
    19b4:	d9 18 60 98 	ldd  [ %g1 + 0x98 ], %f12
    19b8:	91 a0 19 08 	fitod  %f8, %f8
    19bc:	81 aa 0a 4c 	fcmpd  %f8, %f12
    19c0:	01 00 00 00 	nop 
    19c4:	13 80 00 66 	fbe  1b5c <cvt+0x1f0>
    19c8:	95 a2 88 c8 	fsubd  %f10, %f8, %f10
    19cc:	03 00 00 28 	sethi  %hi(0xa000), %g1
    19d0:	9a 07 60 50 	add  %i5, 0x50, %o5
    19d4:	35 00 00 28 	sethi  %hi(0xa000), %i2
    19d8:	e5 18 60 a8 	ldd  [ %g1 + 0xa8 ], %f18
    19dc:	b8 10 00 0d 	mov  %o5, %i4
    19e0:	03 00 00 28 	sethi  %hi(0xa000), %g1
    19e4:	86 10 20 00 	clr  %g3
    19e8:	dd 1e a0 a0 	ldd  [ %i2 + 0xa0 ], %f14
    19ec:	e1 18 60 98 	ldd  [ %g1 + 0x98 ], %f16
    19f0:	99 a2 09 ce 	fdivd  %f8, %f14, %f12
    19f4:	91 a0 1a 4c 	fdtoi  %f12, %f8
    19f8:	91 a0 19 08 	fitod  %f8, %f8
    19fc:	99 a3 08 c8 	fsubd  %f12, %f8, %f12
    1a00:	99 a3 08 52 	faddd  %f12, %f18, %f12
    1a04:	99 a3 09 4e 	fmuld  %f12, %f14, %f12
    1a08:	99 a0 1a 4c 	fdtoi  %f12, %f12
    1a0c:	d9 27 bf f4 	st  %f12, [ %fp + -12 ]
    1a10:	b8 07 3f ff 	add  %i4, -1, %i4
    1a14:	c2 07 bf f4 	ld  [ %fp + -12 ], %g1
    1a18:	88 00 60 30 	add  %g1, 0x30, %g4
    1a1c:	c8 2f 00 00 	stb  %g4, [ %i4 ]
    1a20:	b2 10 00 04 	mov  %g4, %i1
    1a24:	81 aa 0a 50 	fcmpd  %f8, %f16
    1a28:	01 00 00 00 	nop 
    1a2c:	03 bf ff f1 	fbne  19f0 <cvt+0x84>
    1a30:	86 00 e0 01 	inc  %g3
    1a34:	80 a3 40 1c 	cmp  %o5, %i4
    1a38:	08 80 00 0e 	bleu  1a70 <cvt+0x104>
    1a3c:	82 10 00 1d 	mov  %i5, %g1
    1a40:	b0 07 60 4f 	add  %i5, 0x4f, %i0
    1a44:	88 10 00 1c 	mov  %i4, %g4
    1a48:	10 80 00 04 	b  1a58 <cvt+0xec>
    1a4c:	b4 10 00 1d 	mov  %i5, %i2
    1a50:	f2 09 20 01 	ldub  [ %g4 + 1 ], %i1
    1a54:	88 01 20 01 	inc  %g4
    1a58:	f2 2e 80 00 	stb  %i1, [ %i2 ]
    1a5c:	80 a1 00 18 	cmp  %g4, %i0
    1a60:	12 bf ff fc 	bne  1a50 <cvt+0xe4>
    1a64:	b4 06 a0 01 	inc  %i2
    1a68:	82 23 40 1c 	sub  %o5, %i4, %g1
    1a6c:	82 07 40 01 	add  %i5, %g1, %g1
    1a70:	80 a3 e0 00 	cmp  %o7, 0
    1a74:	12 80 00 03 	bne  1a80 <cvt+0x114>
    1a78:	84 07 40 02 	add  %i5, %g2, %g2
    1a7c:	84 00 80 03 	add  %g2, %g3, %g2
    1a80:	80 a0 80 1d 	cmp  %g2, %i5
    1a84:	0a 80 00 5f 	bcs  1c00 <cvt+0x294>
    1a88:	c6 26 c0 00 	st  %g3, [ %i3 ]
    1a8c:	80 a0 40 02 	cmp  %g1, %g2
    1a90:	18 80 00 17 	bgu  1aec <cvt+0x180>
    1a94:	88 07 60 50 	add  %i5, 0x50, %g4
    1a98:	35 00 00 28 	sethi  %hi(0xa000), %i2
    1a9c:	80 a0 40 04 	cmp  %g1, %g4
    1aa0:	1a 80 00 13 	bcc  1aec <cvt+0x180>
    1aa4:	b4 16 a0 a0 	or  %i2, 0xa0, %i2
    1aa8:	10 80 00 05 	b  1abc <cvt+0x150>
    1aac:	d9 1e 80 00 	ldd  [ %i2 ], %f12
    1ab0:	80 a0 40 04 	cmp  %g1, %g4
    1ab4:	02 80 00 0f 	be  1af0 <cvt+0x184>
    1ab8:	80 a0 80 04 	cmp  %g2, %g4
    1abc:	95 a2 89 4c 	fmuld  %f10, %f12, %f10
    1ac0:	91 a0 1a 4a 	fdtoi  %f10, %f8
    1ac4:	91 a0 19 08 	fitod  %f8, %f8
    1ac8:	9d a0 1a 48 	fdtoi  %f8, %f14
    1acc:	dd 27 bf f4 	st  %f14, [ %fp + -12 ]
    1ad0:	c6 07 bf f4 	ld  [ %fp + -12 ], %g3
    1ad4:	86 00 e0 30 	add  %g3, 0x30, %g3
    1ad8:	c6 28 40 00 	stb  %g3, [ %g1 ]
    1adc:	82 00 60 01 	inc  %g1
    1ae0:	80 a0 80 01 	cmp  %g2, %g1
    1ae4:	1a bf ff f3 	bcc  1ab0 <cvt+0x144>
    1ae8:	95 a2 88 c8 	fsubd  %f10, %f8, %f10
    1aec:	80 a0 80 04 	cmp  %g2, %g4
    1af0:	1a 80 00 4a 	bcc  1c18 <cvt+0x2ac>
    1af4:	88 10 00 02 	mov  %g2, %g4
    1af8:	f8 08 80 00 	ldub  [ %g2 ], %i4
    1afc:	b8 07 20 05 	add  %i4, 5, %i4
    1b00:	82 10 00 1c 	mov  %i4, %g1
    1b04:	f8 28 80 00 	stb  %i4, [ %g2 ]
    1b08:	86 10 20 30 	mov  0x30, %g3
    1b0c:	b8 10 20 31 	mov  0x31, %i4
    1b10:	83 28 60 18 	sll  %g1, 0x18, %g1
    1b14:	83 38 60 18 	sra  %g1, 0x18, %g1
    1b18:	80 a0 60 39 	cmp  %g1, 0x39
    1b1c:	24 80 00 0e 	ble,a   1b54 <cvt+0x1e8>
    1b20:	c0 29 00 00 	clrb  [ %g4 ]
    1b24:	80 a0 80 1d 	cmp  %g2, %i5
    1b28:	08 80 00 2a 	bleu  1bd0 <cvt+0x264>
    1b2c:	c6 28 80 00 	stb  %g3, [ %g2 ]
    1b30:	c2 08 bf ff 	ldub  [ %g2 + -1 ], %g1
    1b34:	82 00 60 01 	inc  %g1
    1b38:	c2 28 bf ff 	stb  %g1, [ %g2 + -1 ]
    1b3c:	83 28 60 18 	sll  %g1, 0x18, %g1
    1b40:	83 38 60 18 	sra  %g1, 0x18, %g1
    1b44:	80 a0 60 39 	cmp  %g1, 0x39
    1b48:	14 bf ff f7 	bg  1b24 <cvt+0x1b8>
    1b4c:	84 00 bf ff 	add  %g2, -1, %g2
    1b50:	c0 29 00 00 	clrb  [ %g4 ]
    1b54:	81 c7 e0 08 	ret 
    1b58:	91 e8 00 1d 	restore  %g0, %i5, %o0
    1b5c:	81 aa 8a cc 	fcmped  %f10, %f12
    1b60:	01 00 00 00 	nop 
    1b64:	1d 80 00 32 	fbule  1c2c <cvt+0x2c0>
    1b68:	01 00 00 00 	nop 
    1b6c:	35 00 00 28 	sethi  %hi(0xa000), %i2
    1b70:	03 00 00 28 	sethi  %hi(0xa000), %g1
    1b74:	d9 1e a0 a0 	ldd  [ %i2 + 0xa0 ], %f12
    1b78:	d1 18 60 b0 	ldd  [ %g1 + 0xb0 ], %f8
    1b7c:	99 a2 89 4c 	fmuld  %f10, %f12, %f12
    1b80:	86 10 20 00 	clr  %g3
    1b84:	e1 1e a0 a0 	ldd  [ %i2 + 0xa0 ], %f16
    1b88:	9d a0 00 28 	fmovs  %f8, %f14
    1b8c:	81 ab 0a c8 	fcmped  %f12, %f8
    1b90:	01 00 00 00 	nop 
    1b94:	09 80 00 06 	fbl  1bac <cvt+0x240>
    1b98:	9f a0 00 29 	fmovs  %f9, %f15
    1b9c:	10 bf ff b5 	b  1a70 <cvt+0x104>
    1ba0:	82 10 00 1d 	mov  %i5, %g1
    1ba4:	99 a0 00 28 	fmovs  %f8, %f12
    1ba8:	9b a0 00 29 	fmovs  %f9, %f13
    1bac:	91 a3 09 50 	fmuld  %f12, %f16, %f8
    1bb0:	81 aa 0a ce 	fcmped  %f8, %f14
    1bb4:	01 00 00 00 	nop 
    1bb8:	09 bf ff fb 	fbl  1ba4 <cvt+0x238>
    1bbc:	86 00 ff ff 	add  %g3, -1, %g3
    1bc0:	82 10 00 1d 	mov  %i5, %g1
    1bc4:	95 a0 00 2c 	fmovs  %f12, %f10
    1bc8:	10 bf ff aa 	b  1a70 <cvt+0x104>
    1bcc:	97 a0 00 2d 	fmovs  %f13, %f11
    1bd0:	f8 28 80 00 	stb  %i4, [ %g2 ]
    1bd4:	c2 06 c0 00 	ld  [ %i3 ], %g1
    1bd8:	82 00 60 01 	inc  %g1
    1bdc:	80 a3 e0 00 	cmp  %o7, 0
    1be0:	12 80 00 06 	bne  1bf8 <cvt+0x28c>
    1be4:	c2 26 c0 00 	st  %g1, [ %i3 ]
    1be8:	80 a1 00 1d 	cmp  %g4, %i5
    1bec:	38 80 00 02 	bgu,a   1bf4 <cvt+0x288>
    1bf0:	c6 29 00 00 	stb  %g3, [ %g4 ]
    1bf4:	88 01 20 01 	inc  %g4
    1bf8:	10 bf ff c6 	b  1b10 <cvt+0x1a4>
    1bfc:	c2 08 80 00 	ldub  [ %g2 ], %g1
    1c00:	c0 2f 40 00 	clrb  [ %i5 ]
    1c04:	81 c7 e0 08 	ret 
    1c08:	91 e8 00 1d 	restore  %g0, %i5, %o0
    1c0c:	95 a0 00 aa 	fnegs  %f10, %f10
    1c10:	10 bf ff 68 	b  19b0 <cvt+0x44>
    1c14:	c6 27 00 00 	st  %g3, [ %i4 ]
    1c18:	c0 2f 60 4f 	clrb  [ %i5 + 0x4f ]
    1c1c:	81 c7 e0 08 	ret 
    1c20:	91 e8 00 1d 	restore  %g0, %i5, %o0
    1c24:	10 bf ff 5c 	b  1994 <cvt+0x28>
    1c28:	84 10 00 1a 	mov  %i2, %g2
    1c2c:	82 10 00 1d 	mov  %i5, %g1
    1c30:	10 bf ff 90 	b  1a70 <cvt+0x104>
    1c34:	86 10 20 00 	clr  %g3

00001c38 <__modf>:
    1c38:	9c 03 bf b0 	add  %sp, -80, %sp
    1c3c:	d0 3b a0 48 	std  %o0, [ %sp + 0x48 ]
    1c40:	c1 1b a0 48 	ldd  [ %sp + 0x48 ], %f0
    1c44:	9c 23 bf b0 	sub  %sp, -80, %sp
    1c48:	91 a0 1a 40 	fdtoi  %f0, %f8
    1c4c:	91 a0 19 08 	fitod  %f8, %f8
    1c50:	81 a0 08 c8 	fsubd  %f0, %f8, %f0
    1c54:	81 c3 e0 08 	retl 
    1c58:	d1 3a 80 00 	std  %f8, [ %o2 ]

00001c5c <ecvt>:
    1c5c:	9d e3 bf 98 	save  %sp, -104, %sp
    1c60:	82 10 20 01 	mov  1, %g1
    1c64:	90 10 00 18 	mov  %i0, %o0
    1c68:	92 10 00 19 	mov  %i1, %o1
    1c6c:	c2 23 a0 5c 	st  %g1, [ %sp + 0x5c ]
    1c70:	94 10 00 1a 	mov  %i2, %o2
    1c74:	96 10 00 1b 	mov  %i3, %o3
    1c78:	98 10 00 1c 	mov  %i4, %o4
    1c7c:	1b 00 00 2c 	sethi  %hi(0xb000), %o5
    1c80:	7f ff ff 3b 	call  196c <cvt>
    1c84:	9a 13 60 08 	or  %o5, 8, %o5	! b008 <CVTBUF>
    1c88:	81 c7 e0 08 	ret 
    1c8c:	91 e8 00 08 	restore  %g0, %o0, %o0

00001c90 <ecvtbuf>:
    1c90:	9d e3 bf 98 	save  %sp, -104, %sp
    1c94:	82 10 20 01 	mov  1, %g1
    1c98:	90 10 00 18 	mov  %i0, %o0
    1c9c:	92 10 00 19 	mov  %i1, %o1
    1ca0:	c2 23 a0 5c 	st  %g1, [ %sp + 0x5c ]
    1ca4:	94 10 00 1a 	mov  %i2, %o2
    1ca8:	96 10 00 1b 	mov  %i3, %o3
    1cac:	98 10 00 1c 	mov  %i4, %o4
    1cb0:	7f ff ff 2f 	call  196c <cvt>
    1cb4:	9a 10 00 1d 	mov  %i5, %o5
    1cb8:	81 c7 e0 08 	ret 
    1cbc:	91 e8 00 08 	restore  %g0, %o0, %o0

00001cc0 <fcvt>:
    1cc0:	9d e3 bf 98 	save  %sp, -104, %sp
    1cc4:	1b 00 00 2c 	sethi  %hi(0xb000), %o5
    1cc8:	c0 23 a0 5c 	clr  [ %sp + 0x5c ]
    1ccc:	90 10 00 18 	mov  %i0, %o0
    1cd0:	92 10 00 19 	mov  %i1, %o1
    1cd4:	94 10 00 1a 	mov  %i2, %o2
    1cd8:	96 10 00 1b 	mov  %i3, %o3
    1cdc:	98 10 00 1c 	mov  %i4, %o4
    1ce0:	7f ff ff 23 	call  196c <cvt>
    1ce4:	9a 13 60 08 	or  %o5, 8, %o5
    1ce8:	81 c7 e0 08 	ret 
    1cec:	91 e8 00 08 	restore  %g0, %o0, %o0

00001cf0 <fcvtbuf>:
    1cf0:	9d e3 bf 98 	save  %sp, -104, %sp
    1cf4:	c0 23 a0 5c 	clr  [ %sp + 0x5c ]
    1cf8:	90 10 00 18 	mov  %i0, %o0
    1cfc:	92 10 00 19 	mov  %i1, %o1
    1d00:	94 10 00 1a 	mov  %i2, %o2
    1d04:	96 10 00 1b 	mov  %i3, %o3
    1d08:	98 10 00 1c 	mov  %i4, %o4
    1d0c:	7f ff ff 18 	call  196c <cvt>
    1d10:	9a 10 00 1d 	mov  %i5, %o5
    1d14:	81 c7 e0 08 	ret 
    1d18:	91 e8 00 08 	restore  %g0, %o0, %o0

00001d1c <ajit_initialize_interrupt_handlers_to_null>:
    1d1c:	03 00 00 2c 	sethi  %hi(0xb000), %g1
    1d20:	82 10 62 a8 	or  %g1, 0x2a8, %g1	! b2a8 <ajit_global_interrupt_handlers>
    1d24:	84 00 60 40 	add  %g1, 0x40, %g2
    1d28:	c0 20 40 00 	clr  [ %g1 ]
    1d2c:	82 00 60 04 	add  %g1, 4, %g1
    1d30:	80 a0 40 02 	cmp  %g1, %g2
    1d34:	32 bf ff fe 	bne,a   1d2c <ajit_initialize_interrupt_handlers_to_null+0x10>
    1d38:	c0 20 40 00 	clr  [ %g1 ]
    1d3c:	81 c3 e0 08 	retl 
    1d40:	01 00 00 00 	nop 

00001d44 <ajit_set_interrupt_handler>:
    1d44:	80 a2 20 0f 	cmp  %o0, 0xf
    1d48:	18 80 00 05 	bgu  1d5c <ajit_set_interrupt_handler+0x18>
    1d4c:	91 2a 20 02 	sll  %o0, 2, %o0
    1d50:	03 00 00 2c 	sethi  %hi(0xb000), %g1
    1d54:	82 10 62 a8 	or  %g1, 0x2a8, %g1	! b2a8 <ajit_global_interrupt_handlers>
    1d58:	d2 20 40 08 	st  %o1, [ %g1 + %o0 ]
    1d5c:	81 c3 e0 08 	retl 
    1d60:	01 00 00 00 	nop 

00001d64 <readInterruptControlRegister>:
    1d64:	90 02 00 08 	add  %o0, %o0, %o0
    1d68:	03 3f ff cc 	sethi  %hi(0xffff3000), %g1
    1d6c:	92 02 00 09 	add  %o0, %o1, %o1
    1d70:	91 2a 60 02 	sll  %o1, 2, %o0
    1d74:	90 02 00 01 	add  %o0, %g1, %o0
    1d78:	82 13 c0 00 	mov  %o7, %g1
    1d7c:	40 00 02 65 	call  2710 <__ajit_load_word_mmu_bypass__>
    1d80:	9e 10 40 00 	mov  %g1, %o7

00001d84 <writeInterruptControlRegister>:
    1d84:	90 02 00 08 	add  %o0, %o0, %o0
    1d88:	03 3f ff cc 	sethi  %hi(0xffff3000), %g1
    1d8c:	92 02 00 09 	add  %o0, %o1, %o1
    1d90:	90 10 00 0a 	mov  %o2, %o0
    1d94:	93 2a 60 02 	sll  %o1, 2, %o1
    1d98:	92 02 40 01 	add  %o1, %g1, %o1
    1d9c:	82 13 c0 00 	mov  %o7, %g1
    1da0:	40 00 01 e4 	call  2530 <__ajit_store_word_mmu_bypass__>
    1da4:	9e 10 40 00 	mov  %g1, %o7

00001da8 <enableInterruptController>:
    1da8:	9d e3 bf a0 	save  %sp, -96, %sp
    1dac:	90 10 00 18 	mov  %i0, %o0
    1db0:	7f ff ff ed 	call  1d64 <readInterruptControlRegister>
    1db4:	92 10 00 19 	mov  %i1, %o1
    1db8:	b4 12 20 01 	or  %o0, 1, %i2
    1dbc:	7f ff ff f2 	call  1d84 <writeInterruptControlRegister>
    1dc0:	81 e8 00 00 	restore 

00001dc4 <disableInterruptController>:
    1dc4:	9d e3 bf a0 	save  %sp, -96, %sp
    1dc8:	90 10 00 18 	mov  %i0, %o0
    1dcc:	7f ff ff e6 	call  1d64 <readInterruptControlRegister>
    1dd0:	92 10 00 19 	mov  %i1, %o1
    1dd4:	b4 0a 3f fe 	and  %o0, -2, %i2
    1dd8:	7f ff ff eb 	call  1d84 <writeInterruptControlRegister>
    1ddc:	81 e8 00 00 	restore 

00001de0 <ajit_generic_interrupt_handler>:
    1de0:	9d e3 bf 98 	save  %sp, -104, %sp
    1de4:	90 07 bf fe 	add  %fp, -2, %o0
    1de8:	40 00 01 97 	call  2444 <ajit_get_core_and_thread_id>
    1dec:	92 07 bf ff 	add  %fp, -1, %o1
    1df0:	d0 0f bf fe 	ldub  [ %fp + -2 ], %o0
    1df4:	7f ff ff f4 	call  1dc4 <disableInterruptController>
    1df8:	d2 0f bf ff 	ldub  [ %fp + -1 ], %o1
    1dfc:	b1 36 20 04 	srl  %i0, 4, %i0
    1e00:	b0 0e 20 ff 	and  %i0, 0xff, %i0
    1e04:	82 06 3f ef 	add  %i0, -17, %g1
    1e08:	80 a0 60 0e 	cmp  %g1, 0xe
    1e0c:	18 80 00 11 	bgu  1e50 <ajit_generic_interrupt_handler+0x70>
    1e10:	d0 0f bf fe 	ldub  [ %fp + -2 ], %o0
    1e14:	b0 06 3f f0 	add  %i0, -16, %i0
    1e18:	03 00 00 2c 	sethi  %hi(0xb000), %g1
    1e1c:	b1 2e 20 02 	sll  %i0, 2, %i0
    1e20:	82 10 62 a8 	or  %g1, 0x2a8, %g1
    1e24:	c2 00 40 18 	ld  [ %g1 + %i0 ], %g1
    1e28:	80 a0 60 00 	cmp  %g1, 0
    1e2c:	02 80 00 09 	be  1e50 <ajit_generic_interrupt_handler+0x70>
    1e30:	01 00 00 00 	nop 
    1e34:	9f c0 40 00 	call  %g1
    1e38:	01 00 00 00 	nop 
    1e3c:	d0 0f bf fe 	ldub  [ %fp + -2 ], %o0
    1e40:	7f ff ff da 	call  1da8 <enableInterruptController>
    1e44:	d2 0f bf ff 	ldub  [ %fp + -1 ], %o1
    1e48:	81 c7 e0 08 	ret 
    1e4c:	81 e8 00 00 	restore 
    1e50:	7f ff ff d6 	call  1da8 <enableInterruptController>
    1e54:	d2 0f bf ff 	ldub  [ %fp + -1 ], %o1
    1e58:	91 d0 20 00 	ta  0
    1e5c:	81 c7 e0 08 	ret 
    1e60:	81 e8 00 00 	restore 

00001e64 <enableInterrupt>:
    1e64:	9d e3 bf a0 	save  %sp, -96, %sp
    1e68:	90 10 00 18 	mov  %i0, %o0
    1e6c:	7f ff ff be 	call  1d64 <readInterruptControlRegister>
    1e70:	92 10 00 19 	mov  %i1, %o1
    1e74:	82 10 20 01 	mov  1, %g1
    1e78:	b5 28 40 1a 	sll  %g1, %i2, %i2
    1e7c:	b4 12 00 1a 	or  %o0, %i2, %i2
    1e80:	7f ff ff c1 	call  1d84 <writeInterruptControlRegister>
    1e84:	81 e8 00 00 	restore 

00001e88 <enableAllInterrupts>:
    1e88:	9d e3 bf a0 	save  %sp, -96, %sp
    1e8c:	35 00 00 3f 	sethi  %hi(0xfc00), %i2
    1e90:	90 10 00 18 	mov  %i0, %o0
    1e94:	92 10 00 19 	mov  %i1, %o1
    1e98:	7f ff ff b3 	call  1d64 <readInterruptControlRegister>
    1e9c:	b4 16 a3 fe 	or  %i2, 0x3fe, %i2
    1ea0:	b4 12 00 1a 	or  %o0, %i2, %i2
    1ea4:	7f ff ff b8 	call  1d84 <writeInterruptControlRegister>
    1ea8:	81 e8 00 00 	restore 

00001eac <enableInterruptControllerAndAllInterrupts>:
    1eac:	15 00 00 3f 	sethi  %hi(0xfc00), %o2
    1eb0:	94 12 a3 ff 	or  %o2, 0x3ff, %o2	! ffff <ajit_global_interrupt_handlers+0x4d57>
    1eb4:	82 13 c0 00 	mov  %o7, %g1
    1eb8:	7f ff ff b3 	call  1d84 <writeInterruptControlRegister>
    1ebc:	9e 10 40 00 	mov  %g1, %o7

00001ec0 <setInterruptMask>:
    1ec0:	9d e3 bf a0 	save  %sp, -96, %sp
    1ec4:	90 10 00 18 	mov  %i0, %o0
    1ec8:	7f ff ff a7 	call  1d64 <readInterruptControlRegister>
    1ecc:	92 10 00 19 	mov  %i1, %o1
    1ed0:	03 3f ff c0 	sethi  %hi(0xffff0000), %g1
    1ed4:	05 00 00 3f 	sethi  %hi(0xfc00), %g2
    1ed8:	82 10 60 01 	or  %g1, 1, %g1
    1edc:	84 10 a3 fe 	or  %g2, 0x3fe, %g2
    1ee0:	90 0a 00 01 	and  %o0, %g1, %o0
    1ee4:	b4 0e 80 02 	and  %i2, %g2, %i2
    1ee8:	b4 12 00 1a 	or  %o0, %i2, %i2
    1eec:	7f ff ff a6 	call  1d84 <writeInterruptControlRegister>
    1ef0:	81 e8 00 00 	restore 

00001ef4 <disableInterrupt>:
    1ef4:	9d e3 bf a0 	save  %sp, -96, %sp
    1ef8:	90 10 00 18 	mov  %i0, %o0
    1efc:	7f ff ff 9a 	call  1d64 <readInterruptControlRegister>
    1f00:	92 10 00 19 	mov  %i1, %o1
    1f04:	82 10 20 01 	mov  1, %g1
    1f08:	b5 28 40 1a 	sll  %g1, %i2, %i2
    1f0c:	b4 2a 00 1a 	andn  %o0, %i2, %i2
    1f10:	7f ff ff 9d 	call  1d84 <writeInterruptControlRegister>
    1f14:	81 e8 00 00 	restore 

00001f18 <__cortos_bpool>:
    1f18:	9d e3 bf a0 	save  %sp, -96, %sp
    1f1c:	3b 00 00 2c 	sethi  %hi(0xb000), %i5
    1f20:	c2 07 60 5c 	ld  [ %i5 + 0x5c ], %g1	! b05c <bgetLockAddr>
    1f24:	80 a0 60 00 	cmp  %g1, 0
    1f28:	12 80 00 0b 	bne  1f54 <__cortos_bpool+0x3c>
    1f2c:	11 00 40 00 	sethi  %hi(0x1000000), %o0
    1f30:	40 00 00 75 	call  2104 <bpool>
    1f34:	13 07 d0 00 	sethi  %hi(0x1f400000), %o1
    1f38:	03 00 00 2c 	sethi  %hi(0xb000), %g1
    1f3c:	82 10 60 68 	or  %g1, 0x68, %g1	! b068 <allocatedLocksNc>
    1f40:	84 10 20 01 	mov  1, %g2
    1f44:	c4 28 60 02 	stb  %g2, [ %g1 + 2 ]
    1f48:	03 00 00 34 	sethi  %hi(0xd000), %g1
    1f4c:	82 10 60 02 	or  %g1, 2, %g1	! d002 <ajit_global_interrupt_handlers+0x1d5a>
    1f50:	c2 27 60 5c 	st  %g1, [ %i5 + 0x5c ]
    1f54:	81 c7 e0 08 	ret 
    1f58:	81 e8 00 00 	restore 

00001f5c <cortos_bget>:
    1f5c:	9d e3 bf a0 	save  %sp, -96, %sp
    1f60:	3b 00 00 2c 	sethi  %hi(0xb000), %i5
    1f64:	7f ff f8 d0 	call  2a4 <cortos_lock_acquire_buzy>
    1f68:	d0 07 60 5c 	ld  [ %i5 + 0x5c ], %o0	! b05c <bgetLockAddr>
    1f6c:	40 00 00 36 	call  2044 <bget>
    1f70:	90 10 00 18 	mov  %i0, %o0
    1f74:	b0 10 00 08 	mov  %o0, %i0
    1f78:	7f ff f8 e5 	call  30c <cortos_lock_release>
    1f7c:	d0 07 60 5c 	ld  [ %i5 + 0x5c ], %o0
    1f80:	81 c7 e0 08 	ret 
    1f84:	81 e8 00 00 	restore 

00001f88 <cortos_brel>:
    1f88:	9d e3 bf a0 	save  %sp, -96, %sp
    1f8c:	3b 00 00 2c 	sethi  %hi(0xb000), %i5
    1f90:	7f ff f8 c5 	call  2a4 <cortos_lock_acquire_buzy>
    1f94:	d0 07 60 5c 	ld  [ %i5 + 0x5c ], %o0	! b05c <bgetLockAddr>
    1f98:	40 00 00 6c 	call  2148 <brel>
    1f9c:	90 10 00 18 	mov  %i0, %o0
    1fa0:	f0 07 60 5c 	ld  [ %i5 + 0x5c ], %i0
    1fa4:	7f ff f8 da 	call  30c <cortos_lock_release>
    1fa8:	81 e8 00 00 	restore 

00001fac <__cortos_bpool_ncram>:
    1fac:	9d e3 bf a0 	save  %sp, -96, %sp
    1fb0:	3b 00 00 2c 	sethi  %hi(0xb000), %i5
    1fb4:	c2 07 60 58 	ld  [ %i5 + 0x58 ], %g1	! b058 <bgetNcramLockAddr>
    1fb8:	80 a0 60 00 	cmp  %g1, 0
    1fbc:	12 80 00 0c 	bne  1fec <__cortos_bpool_ncram+0x40>
    1fc0:	11 00 08 00 	sethi  %hi(0x200000), %o0
    1fc4:	13 00 07 ff 	sethi  %hi(0x1ffc00), %o1
    1fc8:	7f ff f9 9c 	call  638 <bpool_ncram>
    1fcc:	92 12 63 ff 	or  %o1, 0x3ff, %o1	! 1fffff <ajit_global_interrupt_handlers+0x1f4d57>
    1fd0:	03 00 00 2c 	sethi  %hi(0xb000), %g1
    1fd4:	82 10 60 68 	or  %g1, 0x68, %g1	! b068 <allocatedLocksNc>
    1fd8:	84 10 20 01 	mov  1, %g2
    1fdc:	c4 28 60 03 	stb  %g2, [ %g1 + 3 ]
    1fe0:	03 00 00 34 	sethi  %hi(0xd000), %g1
    1fe4:	82 10 60 03 	or  %g1, 3, %g1	! d003 <ajit_global_interrupt_handlers+0x1d5b>
    1fe8:	c2 27 60 58 	st  %g1, [ %i5 + 0x58 ]
    1fec:	81 c7 e0 08 	ret 
    1ff0:	81 e8 00 00 	restore 

00001ff4 <cortos_bget_ncram>:
    1ff4:	9d e3 bf a0 	save  %sp, -96, %sp
    1ff8:	3b 00 00 2c 	sethi  %hi(0xb000), %i5
    1ffc:	7f ff f8 aa 	call  2a4 <cortos_lock_acquire_buzy>
    2000:	d0 07 60 58 	ld  [ %i5 + 0x58 ], %o0	! b058 <bgetNcramLockAddr>
    2004:	7f ff f9 5d 	call  578 <bget_ncram>
    2008:	90 10 00 18 	mov  %i0, %o0
    200c:	b0 10 00 08 	mov  %o0, %i0
    2010:	7f ff f8 bf 	call  30c <cortos_lock_release>
    2014:	d0 07 60 58 	ld  [ %i5 + 0x58 ], %o0
    2018:	81 c7 e0 08 	ret 
    201c:	81 e8 00 00 	restore 

00002020 <cortos_brel_ncram>:
    2020:	9d e3 bf a0 	save  %sp, -96, %sp
    2024:	3b 00 00 2c 	sethi  %hi(0xb000), %i5
    2028:	7f ff f8 9f 	call  2a4 <cortos_lock_acquire_buzy>
    202c:	d0 07 60 58 	ld  [ %i5 + 0x58 ], %o0	! b058 <bgetNcramLockAddr>
    2030:	7f ff f9 93 	call  67c <brel_ncram>
    2034:	90 10 00 18 	mov  %i0, %o0
    2038:	f0 07 60 58 	ld  [ %i5 + 0x58 ], %i0
    203c:	7f ff f8 b4 	call  30c <cortos_lock_release>
    2040:	81 e8 00 00 	restore 

00002044 <bget>:
    2044:	80 a2 20 07 	cmp  %o0, 7
    2048:	08 80 00 23 	bleu  20d4 <bget+0x90>
    204c:	86 10 20 10 	mov  0x10, %g3
    2050:	88 02 20 07 	add  %o0, 7, %g4
    2054:	88 09 3f f8 	and  %g4, -8, %g4
    2058:	88 01 20 08 	add  %g4, 8, %g4
    205c:	86 10 00 04 	mov  %g4, %g3
    2060:	05 00 00 28 	sethi  %hi(0xa000), %g2
    2064:	84 10 a1 70 	or  %g2, 0x170, %g2	! a170 <freelist>
    2068:	d0 00 a0 08 	ld  [ %g2 + 8 ], %o0
    206c:	80 a2 00 02 	cmp  %o0, %g2
    2070:	32 80 00 08 	bne,a   2090 <bget+0x4c>
    2074:	c2 02 20 04 	ld  [ %o0 + 4 ], %g1
    2078:	81 c3 e0 08 	retl 
    207c:	90 10 20 00 	clr  %o0
    2080:	80 a2 00 02 	cmp  %o0, %g2
    2084:	02 80 00 12 	be  20cc <bget+0x88>
    2088:	01 00 00 00 	nop 
    208c:	c2 02 20 04 	ld  [ %o0 + 4 ], %g1
    2090:	80 a0 40 03 	cmp  %g1, %g3
    2094:	26 bf ff fb 	bl,a   2080 <bget+0x3c>
    2098:	d0 02 20 08 	ld  [ %o0 + 8 ], %o0
    209c:	84 20 40 03 	sub  %g1, %g3, %g2
    20a0:	80 a0 a0 10 	cmp  %g2, 0x10
    20a4:	28 80 00 0e 	bleu,a   20dc <bget+0x98>
    20a8:	c6 02 20 08 	ld  [ %o0 + 8 ], %g3
    20ac:	c4 22 20 04 	st  %g2, [ %o0 + 4 ]
    20b0:	c4 22 00 02 	st  %g2, [ %o0 + %g2 ]
    20b4:	86 20 00 03 	neg  %g3
    20b8:	90 02 00 02 	add  %o0, %g2, %o0
    20bc:	c0 22 00 04 	clr  [ %o0 + %g4 ]
    20c0:	c6 22 20 04 	st  %g3, [ %o0 + 4 ]
    20c4:	81 c3 e0 08 	retl 
    20c8:	90 02 20 08 	add  %o0, 8, %o0
    20cc:	81 c3 e0 08 	retl 
    20d0:	90 10 20 00 	clr  %o0
    20d4:	10 bf ff e3 	b  2060 <bget+0x1c>
    20d8:	88 10 20 10 	mov  0x10, %g4
    20dc:	c4 02 20 0c 	ld  [ %o0 + 0xc ], %g2
    20e0:	c6 20 a0 08 	st  %g3, [ %g2 + 8 ]
    20e4:	c6 02 20 08 	ld  [ %o0 + 8 ], %g3
    20e8:	c4 20 e0 0c 	st  %g2, [ %g3 + 0xc ]
    20ec:	c0 22 00 01 	clr  [ %o0 + %g1 ]
    20f0:	84 20 00 01 	neg  %g1, %g2
    20f4:	c4 22 20 04 	st  %g2, [ %o0 + 4 ]
    20f8:	90 02 20 08 	add  %o0, 8, %o0
    20fc:	81 c3 e0 08 	retl 
    2100:	01 00 00 00 	nop 

00002104 <bpool>:
    2104:	03 00 00 28 	sethi  %hi(0xa000), %g1
    2108:	82 10 61 70 	or  %g1, 0x170, %g1	! a170 <freelist>
    210c:	c4 00 60 0c 	ld  [ %g1 + 0xc ], %g2
    2110:	c2 22 20 08 	st  %g1, [ %o0 + 8 ]
    2114:	c4 22 20 0c 	st  %g2, [ %o0 + 0xc ]
    2118:	d0 20 60 0c 	st  %o0, [ %g1 + 0xc ]
    211c:	c0 22 00 00 	clr  [ %o0 ]
    2120:	c2 02 20 0c 	ld  [ %o0 + 0xc ], %g1
    2124:	92 0a 7f f8 	and  %o1, -8, %o1
    2128:	d0 20 60 08 	st  %o0, [ %g1 + 8 ]
    212c:	92 02 7f f8 	add  %o1, -8, %o1
    2130:	d2 22 20 04 	st  %o1, [ %o0 + 4 ]
    2134:	82 02 00 09 	add  %o0, %o1, %g1
    2138:	05 20 00 00 	sethi  %hi(0x80000000), %g2
    213c:	d2 22 00 09 	st  %o1, [ %o0 + %o1 ]
    2140:	81 c3 e0 08 	retl 
    2144:	c4 20 60 04 	st  %g2, [ %g1 + 4 ]

00002148 <brel>:
    2148:	c2 02 3f f8 	ld  [ %o0 + -8 ], %g1
    214c:	80 a0 60 00 	cmp  %g1, 0
    2150:	02 80 00 16 	be  21a8 <brel+0x60>
    2154:	84 02 3f f8 	add  %o0, -8, %g2
    2158:	84 20 80 01 	sub  %g2, %g1, %g2
    215c:	c2 02 3f fc 	ld  [ %o0 + -4 ], %g1
    2160:	c6 00 a0 04 	ld  [ %g2 + 4 ], %g3
    2164:	82 20 c0 01 	sub  %g3, %g1, %g1
    2168:	c2 20 a0 04 	st  %g1, [ %g2 + 4 ]
    216c:	86 00 80 01 	add  %g2, %g1, %g3
    2170:	c8 00 e0 04 	ld  [ %g3 + 4 ], %g4
    2174:	80 a1 20 00 	cmp  %g4, 0
    2178:	04 80 00 0a 	ble  21a0 <brel+0x58>
    217c:	01 00 00 00 	nop 
    2180:	da 00 e0 0c 	ld  [ %g3 + 0xc ], %o5
    2184:	82 00 40 04 	add  %g1, %g4, %g1
    2188:	d8 00 e0 08 	ld  [ %g3 + 8 ], %o4
    218c:	c2 20 a0 04 	st  %g1, [ %g2 + 4 ]
    2190:	d8 23 60 08 	st  %o4, [ %o5 + 8 ]
    2194:	c8 00 e0 08 	ld  [ %g3 + 8 ], %g4
    2198:	86 00 80 01 	add  %g2, %g1, %g3
    219c:	da 21 20 0c 	st  %o5, [ %g4 + 0xc ]
    21a0:	81 c3 e0 08 	retl 
    21a4:	c2 20 c0 00 	st  %g1, [ %g3 ]
    21a8:	07 00 00 28 	sethi  %hi(0xa000), %g3
    21ac:	86 10 e1 70 	or  %g3, 0x170, %g3	! a170 <freelist>
    21b0:	c2 00 e0 0c 	ld  [ %g3 + 0xc ], %g1
    21b4:	c6 22 00 00 	st  %g3, [ %o0 ]
    21b8:	c2 22 20 04 	st  %g1, [ %o0 + 4 ]
    21bc:	c4 20 e0 0c 	st  %g2, [ %g3 + 0xc ]
    21c0:	c2 02 3f fc 	ld  [ %o0 + -4 ], %g1
    21c4:	c6 02 20 04 	ld  [ %o0 + 4 ], %g3
    21c8:	82 20 00 01 	neg  %g1
    21cc:	c4 20 e0 08 	st  %g2, [ %g3 + 8 ]
    21d0:	10 bf ff e7 	b  216c <brel+0x24>
    21d4:	c2 22 3f fc 	st  %g1, [ %o0 + -4 ]
    21d8:	00 00 25 4c 	unimp  0x254c
    21dc:	00 00 25 84 	unimp  0x2584
    21e0:	00 00 25 90 	unimp  0x2590
    21e4:	00 00 25 9c 	unimp  0x259c
    21e8:	00 00 25 a8 	unimp  0x25a8
    21ec:	00 00 25 b4 	unimp  0x25b4
    21f0:	00 00 25 c0 	unimp  0x25c0
    21f4:	00 00 25 cc 	unimp  0x25cc
    21f8:	00 00 25 d8 	unimp  0x25d8
    21fc:	00 00 25 e4 	unimp  0x25e4
    2200:	00 00 25 f0 	unimp  0x25f0
    2204:	00 00 25 fc 	unimp  0x25fc
    2208:	00 00 26 08 	unimp  0x2608
    220c:	00 00 26 14 	unimp  0x2614
    2210:	00 00 25 6c 	unimp  0x256c
    2214:	00 00 25 78 	unimp  0x2578
    2218:	00 00 26 30 	unimp  0x2630
    221c:	00 00 26 68 	unimp  0x2668
    2220:	00 00 26 74 	unimp  0x2674
    2224:	00 00 26 80 	unimp  0x2680
    2228:	00 00 26 8c 	unimp  0x268c
    222c:	00 00 26 98 	unimp  0x2698
    2230:	00 00 26 a4 	unimp  0x26a4
    2234:	00 00 26 b0 	unimp  0x26b0
    2238:	00 00 26 bc 	unimp  0x26bc
    223c:	00 00 26 c8 	unimp  0x26c8
    2240:	00 00 26 d4 	unimp  0x26d4
    2244:	00 00 26 e0 	unimp  0x26e0
    2248:	00 00 26 ec 	unimp  0x26ec
    224c:	00 00 26 f8 	unimp  0x26f8
    2250:	00 00 26 50 	unimp  0x2650
    2254:	00 00 26 5c 	unimp  0x265c

00002258 <__ajit_clear_all_gp_registers__>:
    2258:	82 10 00 00 	mov  %g0, %g1
    225c:	84 10 00 00 	mov  %g0, %g2
    2260:	86 10 00 00 	mov  %g0, %g3
    2264:	88 10 00 00 	mov  %g0, %g4
    2268:	8a 10 00 00 	mov  %g0, %g5
    226c:	8c 10 00 00 	mov  %g0, %g6
    2270:	8e 10 00 00 	mov  %g0, %g7
    2274:	b0 10 00 00 	mov  %g0, %i0
    2278:	b2 10 00 00 	mov  %g0, %i1
    227c:	b4 10 00 00 	mov  %g0, %i2
    2280:	b6 10 00 00 	mov  %g0, %i3
    2284:	b8 10 00 00 	mov  %g0, %i4
    2288:	ba 10 00 00 	mov  %g0, %i5
    228c:	bc 10 00 00 	mov  %g0, %fp
    2290:	be 10 00 00 	mov  %g0, %i7
    2294:	a0 10 00 00 	mov  %g0, %l0
    2298:	a2 10 00 00 	mov  %g0, %l1
    229c:	a4 10 00 00 	mov  %g0, %l2
    22a0:	a6 10 00 00 	mov  %g0, %l3
    22a4:	a8 10 00 00 	mov  %g0, %l4
    22a8:	aa 10 00 00 	mov  %g0, %l5
    22ac:	ac 10 00 00 	mov  %g0, %l6
    22b0:	ae 10 00 00 	mov  %g0, %l7
    22b4:	90 10 00 00 	mov  %g0, %o0
    22b8:	92 10 00 00 	mov  %g0, %o1
    22bc:	94 10 00 00 	mov  %g0, %o2
    22c0:	96 10 00 00 	mov  %g0, %o3
    22c4:	98 10 00 00 	mov  %g0, %o4
    22c8:	9a 10 00 00 	mov  %g0, %o5
    22cc:	9c 10 00 00 	mov  %g0, %sp
    22d0:	9e 10 00 00 	mov  %g0, %o7
    22d4:	82 10 20 07 	mov  7, %g1
    22d8:	81 e0 00 00 	save 
    22dc:	a0 10 00 00 	mov  %g0, %l0
    22e0:	a2 10 00 00 	mov  %g0, %l1
    22e4:	a4 10 00 00 	mov  %g0, %l2
    22e8:	a6 10 00 00 	mov  %g0, %l3
    22ec:	a8 10 00 00 	mov  %g0, %l4
    22f0:	aa 10 00 00 	mov  %g0, %l5
    22f4:	ac 10 00 00 	mov  %g0, %l6
    22f8:	ae 10 00 00 	mov  %g0, %l7
    22fc:	90 10 00 00 	mov  %g0, %o0
    2300:	92 10 00 00 	mov  %g0, %o1
    2304:	94 10 00 00 	mov  %g0, %o2
    2308:	96 10 00 00 	mov  %g0, %o3
    230c:	98 10 00 00 	mov  %g0, %o4
    2310:	9a 10 00 00 	mov  %g0, %o5
    2314:	9c 10 00 00 	mov  %g0, %sp
    2318:	9e 10 00 00 	mov  %g0, %o7
    231c:	82 80 7f ff 	addcc  %g1, -1, %g1
    2320:	12 bf ff ee 	bne  22d8 <__ajit_clear_all_gp_registers__+0x80>
    2324:	01 00 00 00 	nop 
    2328:	82 10 20 07 	mov  7, %g1	! 7 <_start+0x7>
    232c:	81 e8 00 00 	restore 
    2330:	82 80 7f ff 	addcc  %g1, -1, %g1
    2334:	12 bf ff fe 	bne  232c <__ajit_clear_all_gp_registers__+0xd4>
    2338:	01 00 00 00 	nop 
    233c:	81 c3 e0 08 	retl 
    2340:	01 00 00 00 	nop 

00002344 <ajit_read_from_scratch_pad>:
    2344:	80 a2 20 1f 	cmp  %o0, 0x1f
    2348:	18 80 00 05 	bgu  235c <ajit_read_from_scratch_pad+0x18>
    234c:	82 10 20 00 	clr  %g1
    2350:	91 2a 20 02 	sll  %o0, 2, %o0
    2354:	03 3f ff cb 	sethi  %hi(0xffff2c00), %g1
    2358:	c2 02 00 01 	ld  [ %o0 + %g1 ], %g1
    235c:	81 c3 e0 08 	retl 
    2360:	90 10 00 01 	mov  %g1, %o0

00002364 <ajit_write_to_scratch_pad>:
    2364:	80 a2 20 1f 	cmp  %o0, 0x1f
    2368:	18 80 00 04 	bgu  2378 <ajit_write_to_scratch_pad+0x14>
    236c:	91 2a 20 02 	sll  %o0, 2, %o0
    2370:	03 3f ff cb 	sethi  %hi(0xffff2c00), %g1
    2374:	d2 22 00 01 	st  %o1, [ %o0 + %g1 ]
    2378:	81 c3 e0 08 	retl 
    237c:	01 00 00 00 	nop 

00002380 <ajit_configure_i2c_master>:
    2380:	81 80 20 00 	mov  %g0, %y
    2384:	01 00 00 00 	nop 
    2388:	01 00 00 00 	nop 
    238c:	01 00 00 00 	nop 
    2390:	92 72 00 09 	udiv  %o0, %o1, %o1
    2394:	03 3f ff cd 	sethi  %hi(0xffff3400), %g1
    2398:	93 32 60 02 	srl  %o1, 2, %o1
    239c:	82 10 62 00 	or  %g1, 0x200, %g1
    23a0:	81 c3 e0 08 	retl 
    23a4:	d2 20 40 00 	st  %o1, [ %g1 ]

000023a8 <ajit_i2c_master_is_ready>:
    23a8:	03 3f ff cd 	sethi  %hi(0xffff3400), %g1
    23ac:	82 10 62 08 	or  %g1, 0x208, %g1	! ffff3608 <ajit_global_interrupt_handlers+0xfffe8360>
    23b0:	d0 00 40 00 	ld  [ %g1 ], %o0
    23b4:	91 32 20 0a 	srl  %o0, 0xa, %o0
    23b8:	81 c3 e0 08 	retl 
    23bc:	90 0a 20 01 	and  %o0, 1, %o0

000023c0 <ajit_i2c_master_write_command>:
    23c0:	03 3f ff cd 	sethi  %hi(0xffff3400), %g1
    23c4:	82 10 62 04 	or  %g1, 0x204, %g1	! ffff3604 <ajit_global_interrupt_handlers+0xfffe835c>
    23c8:	81 c3 e0 08 	retl 
    23cc:	d0 20 40 00 	st  %o0, [ %g1 ]

000023d0 <ajit_i2c_master_read_status>:
    23d0:	03 3f ff cd 	sethi  %hi(0xffff3400), %g1
    23d4:	82 10 62 08 	or  %g1, 0x208, %g1	! ffff3608 <ajit_global_interrupt_handlers+0xfffe8360>
    23d8:	81 c3 e0 08 	retl 
    23dc:	d0 00 40 00 	ld  [ %g1 ], %o0

000023e0 <ajit_i2c_master_access_slave_memory_device>:
    23e0:	03 3f ff cd 	sethi  %hi(0xffff3400), %g1
    23e4:	84 10 62 08 	or  %g1, 0x208, %g2	! ffff3608 <ajit_global_interrupt_handlers+0xfffe8360>
    23e8:	c4 00 80 00 	ld  [ %g2 ], %g2
    23ec:	80 88 a4 00 	btst  0x400, %g2
    23f0:	02 80 00 11 	be  2434 <ajit_i2c_master_access_slave_memory_device+0x54>
    23f4:	82 10 62 04 	or  %g1, 0x204, %g1
    23f8:	91 2a 20 10 	sll  %o0, 0x10, %o0
    23fc:	87 2a 60 1f 	sll  %o1, 0x1f, %g3
    2400:	09 18 00 00 	sethi  %hi(0x60000000), %g4
    2404:	95 2a a0 08 	sll  %o2, 8, %o2
    2408:	90 12 00 04 	or  %o0, %g4, %o0
    240c:	90 12 00 03 	or  %o0, %g3, %o0
    2410:	94 12 00 0a 	or  %o0, %o2, %o2
    2414:	96 12 80 0b 	or  %o2, %o3, %o3
    2418:	d6 20 40 00 	st  %o3, [ %g1 ]
    241c:	80 a2 60 00 	cmp  %o1, 0
    2420:	02 80 00 03 	be  242c <ajit_i2c_master_access_slave_memory_device+0x4c>
    2424:	90 10 20 00 	clr  %o0
    2428:	90 10 00 02 	mov  %g2, %o0
    242c:	81 c3 e0 08 	retl 
    2430:	90 0a 20 ff 	and  %o0, 0xff, %o0
    2434:	30 80 00 00 	b,a   2434 <ajit_i2c_master_access_slave_memory_device+0x54>

00002438 <__ajit_read_core_thread_id_word__>:
    2438:	91 47 40 00 	rd  %asr29, %o0
    243c:	81 c3 e0 08 	retl 
    2440:	01 00 00 00 	nop 

00002444 <ajit_get_core_and_thread_id>:
    2444:	83 47 40 00 	rd  %asr29, %g1
    2448:	85 30 60 08 	srl  %g1, 8, %g2
    244c:	c4 2a 00 00 	stb  %g2, [ %o0 ]
    2450:	81 c3 e0 08 	retl 
    2454:	c2 2a 40 00 	stb  %g1, [ %o1 ]

00002458 <__ajit_read_cycle_count_register_high__>:
    2458:	91 47 80 00 	rd  %asr30, %o0
    245c:	81 c3 e0 08 	retl 
    2460:	01 00 00 00 	nop 

00002464 <__ajit_read_cycle_count_register_low__>:
    2464:	91 47 c0 00 	rd  %asr31, %o0
    2468:	81 c3 e0 08 	retl 
    246c:	01 00 00 00 	nop 

00002470 <__ajit_get_clock_time>:
    2470:	99 47 c0 00 	rd  %asr31, %o4
    2474:	83 47 80 00 	rd  %asr30, %g1
    2478:	86 10 20 00 	clr  %g3
    247c:	9a 10 00 0c 	mov  %o4, %o5
    2480:	98 10 20 00 	clr  %o4
    2484:	86 10 c0 0d 	or  %g3, %o5, %g3
    2488:	84 10 40 0c 	or  %g1, %o4, %g2
    248c:	92 10 00 03 	mov  %g3, %o1
    2490:	81 c3 e0 08 	retl 
    2494:	90 10 00 02 	mov  %g2, %o0

00002498 <__ajit_sleep__>:
    2498:	95 47 c0 00 	rd  %asr31, %o2
    249c:	83 47 80 00 	rd  %asr30, %g1
    24a0:	9a 10 20 00 	clr  %o5
    24a4:	96 10 00 0a 	mov  %o2, %o3
    24a8:	9a 13 40 0b 	or  %o5, %o3, %o5
    24ac:	92 83 40 08 	addcc  %o5, %o0, %o1
    24b0:	94 10 20 00 	clr  %o2
    24b4:	98 10 40 0a 	or  %g1, %o2, %o4
    24b8:	90 43 20 00 	addx  %o4, 0, %o0
    24bc:	80 a2 00 0c 	cmp  %o0, %o4
    24c0:	08 80 00 0c 	bleu  24f0 <__ajit_sleep__+0x58>
    24c4:	01 00 00 00 	nop 
    24c8:	99 47 c0 00 	rd  %asr31, %o4
    24cc:	83 47 80 00 	rd  %asr30, %g1
    24d0:	86 10 20 00 	clr  %g3
    24d4:	9a 10 00 0c 	mov  %o4, %o5
    24d8:	98 10 20 00 	clr  %o4
    24dc:	98 10 40 0c 	or  %g1, %o4, %o4
    24e0:	80 a2 00 0c 	cmp  %o0, %o4
    24e4:	18 bf ff f9 	bgu  24c8 <__ajit_sleep__+0x30>
    24e8:	9a 10 c0 0d 	or  %g3, %o5, %o5
    24ec:	80 a2 00 0c 	cmp  %o0, %o4
    24f0:	12 80 00 04 	bne  2500 <__ajit_sleep__+0x68>
    24f4:	80 a2 40 0d 	cmp  %o1, %o5
    24f8:	18 bf ff f4 	bgu  24c8 <__ajit_sleep__+0x30>
    24fc:	01 00 00 00 	nop 
    2500:	81 c3 e0 08 	retl 
    2504:	01 00 00 00 	nop 

00002508 <__ajit_set_mmu_default_cacheable_bit__>:
    2508:	80 a0 00 08 	cmp  %g0, %o0
    250c:	84 10 20 00 	clr  %g2
    2510:	82 40 20 00 	addx  %g0, 0, %g1
    2514:	83 28 60 08 	sll  %g1, 8, %g1
    2518:	c2 a0 80 80 	sta  %g1, [ %g2 ] #ASI_N
    251c:	81 c3 e0 08 	retl 
    2520:	01 00 00 00 	nop 

00002524 <__ajit_store_word_mmu_reg__>:
    2524:	d0 a2 40 80 	sta  %o0, [ %o1 ] #ASI_N
    2528:	81 c3 e0 08 	retl 
    252c:	01 00 00 00 	nop 

00002530 <__ajit_store_word_mmu_bypass__>:
    2530:	d0 a2 44 00 	sta  %o0, [ %o1 ] #ASI_SCRATCHPAD
    2534:	81 c3 e0 08 	retl 
    2538:	01 00 00 00 	nop 

0000253c <__ajit_store_word_to_physical_address__>:
    253c:	86 0a 60 0f 	and  %o1, 0xf, %g3
    2540:	80 a0 e0 0f 	cmp  %g3, 0xf
    2544:	08 80 00 05 	bleu  2558 <__ajit_store_word_to_physical_address__+0x1c>
    2548:	83 28 e0 02 	sll  %g3, 2, %g1
    254c:	d0 a2 84 00 	sta  %o0, [ %o2 ] #ASI_SCRATCHPAD
    2550:	81 c3 e0 08 	retl 
    2554:	01 00 00 00 	nop 
    2558:	05 00 00 08 	sethi  %hi(0x2000), %g2
    255c:	84 10 a1 d8 	or  %g2, 0x1d8, %g2	! 21d8 <brel+0x90>
    2560:	c2 00 80 01 	ld  [ %g2 + %g1 ], %g1
    2564:	81 c0 40 00 	jmp  %g1
    2568:	01 00 00 00 	nop 
    256c:	d0 a2 85 c0 	sta  %o0, [ %o2 ] (46)
    2570:	81 c3 e0 08 	retl 
    2574:	01 00 00 00 	nop 
    2578:	d0 a2 85 e0 	sta  %o0, [ %o2 ] (47)
    257c:	81 c3 e0 08 	retl 
    2580:	01 00 00 00 	nop 
    2584:	d0 a2 84 20 	sta  %o0, [ %o2 ] #ASI_MMU
    2588:	81 c3 e0 08 	retl 
    258c:	01 00 00 00 	nop 
    2590:	d0 a2 84 40 	sta  %o0, [ %o2 ] (34)
    2594:	81 c3 e0 08 	retl 
    2598:	01 00 00 00 	nop 
    259c:	d0 a2 84 60 	sta  %o0, [ %o2 ] #ASI_BLK_INIT_QUAD_LDD_AIUS
    25a0:	81 c3 e0 08 	retl 
    25a4:	01 00 00 00 	nop 
    25a8:	d0 a2 84 80 	sta  %o0, [ %o2 ] #ASI_NUCLEUS_QUAD_LDD
    25ac:	81 c3 e0 08 	retl 
    25b0:	01 00 00 00 	nop 
    25b4:	d0 a2 84 a0 	sta  %o0, [ %o2 ] #ASI_QUEUE
    25b8:	81 c3 e0 08 	retl 
    25bc:	01 00 00 00 	nop 
    25c0:	d0 a2 84 c0 	sta  %o0, [ %o2 ] #ASI_QUAD_LDD_PHYS_4V
    25c4:	81 c3 e0 08 	retl 
    25c8:	01 00 00 00 	nop 
    25cc:	d0 a2 84 e0 	sta  %o0, [ %o2 ] (39)
    25d0:	81 c3 e0 08 	retl 
    25d4:	01 00 00 00 	nop 
    25d8:	d0 a2 85 00 	sta  %o0, [ %o2 ] (40)
    25dc:	81 c3 e0 08 	retl 
    25e0:	01 00 00 00 	nop 
    25e4:	d0 a2 85 20 	sta  %o0, [ %o2 ] (41)
    25e8:	81 c3 e0 08 	retl 
    25ec:	01 00 00 00 	nop 
    25f0:	d0 a2 85 40 	sta  %o0, [ %o2 ] (42)
    25f4:	81 c3 e0 08 	retl 
    25f8:	01 00 00 00 	nop 
    25fc:	d0 a2 85 60 	sta  %o0, [ %o2 ] (43)
    2600:	81 c3 e0 08 	retl 
    2604:	01 00 00 00 	nop 
    2608:	d0 a2 85 80 	sta  %o0, [ %o2 ] #ASI_NUCLEUS_QUAD_LDD_L
    260c:	81 c3 e0 08 	retl 
    2610:	01 00 00 00 	nop 
    2614:	d0 a2 85 a0 	sta  %o0, [ %o2 ] (45)
    2618:	81 c3 e0 08 	retl 
    261c:	01 00 00 00 	nop 

00002620 <__ajit_load_word_from_physical_address__>:
    2620:	86 0a 20 0f 	and  %o0, 0xf, %g3
    2624:	80 a0 e0 0f 	cmp  %g3, 0xf
    2628:	08 80 00 05 	bleu  263c <__ajit_load_word_from_physical_address__+0x1c>
    262c:	83 28 e0 02 	sll  %g3, 2, %g1
    2630:	d0 82 44 00 	lda  [ %o1 ] #ASI_SCRATCHPAD, %o0
    2634:	81 c3 e0 08 	retl 
    2638:	01 00 00 00 	nop 
    263c:	05 00 00 08 	sethi  %hi(0x2000), %g2
    2640:	84 10 a2 18 	or  %g2, 0x218, %g2	! 2218 <brel+0xd0>
    2644:	c2 00 80 01 	ld  [ %g2 + %g1 ], %g1
    2648:	81 c0 40 00 	jmp  %g1
    264c:	01 00 00 00 	nop 
    2650:	d0 82 45 c0 	lda  [ %o1 ] (46), %o0
    2654:	81 c3 e0 08 	retl 
    2658:	01 00 00 00 	nop 
    265c:	d0 82 45 e0 	lda  [ %o1 ] (47), %o0
    2660:	81 c3 e0 08 	retl 
    2664:	01 00 00 00 	nop 
    2668:	d0 82 44 20 	lda  [ %o1 ] #ASI_MMU, %o0
    266c:	81 c3 e0 08 	retl 
    2670:	01 00 00 00 	nop 
    2674:	d0 82 44 40 	lda  [ %o1 ] (34), %o0
    2678:	81 c3 e0 08 	retl 
    267c:	01 00 00 00 	nop 
    2680:	d0 82 44 60 	lda  [ %o1 ] #ASI_BLK_INIT_QUAD_LDD_AIUS, %o0
    2684:	81 c3 e0 08 	retl 
    2688:	01 00 00 00 	nop 
    268c:	d0 82 44 80 	lda  [ %o1 ] #ASI_NUCLEUS_QUAD_LDD, %o0
    2690:	81 c3 e0 08 	retl 
    2694:	01 00 00 00 	nop 
    2698:	d0 82 44 a0 	lda  [ %o1 ] #ASI_QUEUE, %o0
    269c:	81 c3 e0 08 	retl 
    26a0:	01 00 00 00 	nop 
    26a4:	d0 82 44 c0 	lda  [ %o1 ] #ASI_QUAD_LDD_PHYS_4V, %o0
    26a8:	81 c3 e0 08 	retl 
    26ac:	01 00 00 00 	nop 
    26b0:	d0 82 44 e0 	lda  [ %o1 ] (39), %o0
    26b4:	81 c3 e0 08 	retl 
    26b8:	01 00 00 00 	nop 
    26bc:	d0 82 45 00 	lda  [ %o1 ] (40), %o0
    26c0:	81 c3 e0 08 	retl 
    26c4:	01 00 00 00 	nop 
    26c8:	d0 82 45 20 	lda  [ %o1 ] (41), %o0
    26cc:	81 c3 e0 08 	retl 
    26d0:	01 00 00 00 	nop 
    26d4:	d0 82 45 40 	lda  [ %o1 ] (42), %o0
    26d8:	81 c3 e0 08 	retl 
    26dc:	01 00 00 00 	nop 
    26e0:	d0 82 45 60 	lda  [ %o1 ] (43), %o0
    26e4:	81 c3 e0 08 	retl 
    26e8:	01 00 00 00 	nop 
    26ec:	d0 82 45 80 	lda  [ %o1 ] #ASI_NUCLEUS_QUAD_LDD_L, %o0
    26f0:	81 c3 e0 08 	retl 
    26f4:	01 00 00 00 	nop 
    26f8:	d0 82 45 a0 	lda  [ %o1 ] (45), %o0
    26fc:	81 c3 e0 08 	retl 
    2700:	01 00 00 00 	nop 

00002704 <__ajit_load_word_mmu_reg__>:
    2704:	d0 82 00 80 	lda  [ %o0 ] #ASI_N, %o0
    2708:	81 c3 e0 08 	retl 
    270c:	01 00 00 00 	nop 

00002710 <__ajit_load_word_mmu_bypass__>:
    2710:	d0 82 04 00 	lda  [ %o0 ] #ASI_SCRATCHPAD, %o0
    2714:	81 c3 e0 08 	retl 
    2718:	01 00 00 00 	nop 

0000271c <__ajit_flush_icache__>:
    271c:	81 d8 20 00 	flush  %g0
    2720:	81 c3 e0 08 	retl 
    2724:	01 00 00 00 	nop 

00002728 <__ajit_flush_dcache__>:
    2728:	c0 a0 02 60 	sta  %g0, [ %g0 ] (19)
    272c:	81 c3 e0 08 	retl 
    2730:	01 00 00 00 	nop 

00002734 <__ajit_write_timer_control_register__>:
    2734:	03 3f ff cc 	sethi  %hi(0xffff3000), %g1
    2738:	82 10 61 00 	or  %g1, 0x100, %g1	! ffff3100 <ajit_global_interrupt_handlers+0xfffe7e58>
    273c:	d0 a0 44 00 	sta  %o0, [ %g1 ] #ASI_SCRATCHPAD
    2740:	81 c3 e0 08 	retl 
    2744:	01 00 00 00 	nop 

00002748 <__ajit_read_timer_control_register__>:
    2748:	11 3f ff cc 	sethi  %hi(0xffff3000), %o0
    274c:	90 12 21 00 	or  %o0, 0x100, %o0	! ffff3100 <ajit_global_interrupt_handlers+0xfffe7e58>
    2750:	d0 82 04 00 	lda  [ %o0 ] #ASI_SCRATCHPAD, %o0
    2754:	81 c3 e0 08 	retl 
    2758:	01 00 00 00 	nop 

0000275c <__ajit_write_timer_control_register_via_vmap__>:
    275c:	03 3f ff cc 	sethi  %hi(0xffff3000), %g1
    2760:	82 10 61 00 	or  %g1, 0x100, %g1	! ffff3100 <ajit_global_interrupt_handlers+0xfffe7e58>
    2764:	81 c3 e0 08 	retl 
    2768:	d0 20 40 00 	st  %o0, [ %g1 ]

0000276c <__ajit_read_timer_control_register_via_vmap__>:
    276c:	03 3f ff cc 	sethi  %hi(0xffff3000), %g1
    2770:	82 10 61 00 	or  %g1, 0x100, %g1	! ffff3100 <ajit_global_interrupt_handlers+0xfffe7e58>
    2774:	81 c3 e0 08 	retl 
    2778:	d0 00 40 00 	ld  [ %g1 ], %o0

0000277c <__ajit_write_serial_control_register__>:
    277c:	03 3f ff cc 	sethi  %hi(0xffff3000), %g1
    2780:	82 10 62 00 	or  %g1, 0x200, %g1	! ffff3200 <ajit_global_interrupt_handlers+0xfffe7f58>
    2784:	d0 a0 44 00 	sta  %o0, [ %g1 ] #ASI_SCRATCHPAD
    2788:	81 c3 e0 08 	retl 
    278c:	01 00 00 00 	nop 

00002790 <__ajit_serial_configure__>:
    2790:	05 3f ff cc 	sethi  %hi(0xffff3000), %g2
    2794:	84 10 a2 00 	or  %g2, 0x200, %g2	! ffff3200 <ajit_global_interrupt_handlers+0xfffe7f58>
    2798:	c4 80 84 00 	lda  [ %g2 ] #ASI_SCRATCHPAD, %g2
    279c:	80 a2 20 00 	cmp  %o0, 0
    27a0:	02 80 00 03 	be  27ac <__ajit_serial_configure__+0x1c>
    27a4:	82 08 bf fe 	and  %g2, -2, %g1
    27a8:	82 10 a0 01 	or  %g2, 1, %g1
    27ac:	80 a2 60 00 	cmp  %o1, 0
    27b0:	02 80 00 03 	be  27bc <__ajit_serial_configure__+0x2c>
    27b4:	84 08 7f fd 	and  %g1, -3, %g2
    27b8:	84 10 60 02 	or  %g1, 2, %g2
    27bc:	80 a2 a0 00 	cmp  %o2, 0
    27c0:	02 80 00 03 	be  27cc <__ajit_serial_configure__+0x3c>
    27c4:	82 08 bf fb 	and  %g2, -5, %g1
    27c8:	82 10 a0 04 	or  %g2, 4, %g1
    27cc:	05 3f ff cc 	sethi  %hi(0xffff3000), %g2
    27d0:	84 10 a2 00 	or  %g2, 0x200, %g2	! ffff3200 <ajit_global_interrupt_handlers+0xfffe7f58>
    27d4:	c2 a0 84 00 	sta  %g1, [ %g2 ] #ASI_SCRATCHPAD
    27d8:	81 c3 e0 08 	retl 
    27dc:	01 00 00 00 	nop 

000027e0 <__ajit_serial_set_baudrate__>:
    27e0:	91 2a 20 04 	sll  %o0, 4, %o0
    27e4:	80 a2 00 09 	cmp  %o0, %o1
    27e8:	1a 80 00 26 	bcc  2880 <__ajit_serial_set_baudrate__+0xa0>
    27ec:	82 10 20 00 	clr  %g1
    27f0:	80 a2 20 00 	cmp  %o0, 0
    27f4:	22 80 00 24 	be,a   2884 <__ajit_serial_set_baudrate__+0xa4>
    27f8:	05 3f ff cd 	sethi  %hi(0xffff3400), %g2
    27fc:	84 10 00 09 	mov  %o1, %g2
    2800:	10 80 00 03 	b  280c <__ajit_serial_set_baudrate__+0x2c>
    2804:	82 10 00 08 	mov  %o0, %g1
    2808:	82 10 00 03 	mov  %g3, %g1
    280c:	81 80 20 00 	mov  %g0, %y
    2810:	01 00 00 00 	nop 
    2814:	01 00 00 00 	nop 
    2818:	01 00 00 00 	nop 
    281c:	86 70 80 01 	udiv  %g2, %g1, %g3
    2820:	86 58 c0 01 	smul  %g3, %g1, %g3
    2824:	86 20 80 03 	sub  %g2, %g3, %g3
    2828:	80 a0 e0 00 	cmp  %g3, 0
    282c:	12 bf ff f7 	bne  2808 <__ajit_serial_set_baudrate__+0x28>
    2830:	84 10 00 01 	mov  %g1, %g2
    2834:	81 80 20 00 	mov  %g0, %y
    2838:	01 00 00 00 	nop 
    283c:	01 00 00 00 	nop 
    2840:	01 00 00 00 	nop 
    2844:	84 72 00 01 	udiv  %o0, %g1, %g2
    2848:	81 80 20 00 	mov  %g0, %y
    284c:	01 00 00 00 	nop 
    2850:	01 00 00 00 	nop 
    2854:	01 00 00 00 	nop 
    2858:	88 72 40 01 	udiv  %o1, %g1, %g4
    285c:	86 08 af ff 	and  %g2, 0xfff, %g3
    2860:	82 21 00 02 	sub  %g4, %g2, %g1
    2864:	05 3f ff cd 	sethi  %hi(0xffff3400), %g2
    2868:	83 28 60 10 	sll  %g1, 0x10, %g1
    286c:	84 10 a0 08 	or  %g2, 8, %g2
    2870:	82 10 40 03 	or  %g1, %g3, %g1
    2874:	c2 a0 84 00 	sta  %g1, [ %g2 ] #ASI_SCRATCHPAD
    2878:	81 c3 e0 08 	retl 
    287c:	01 00 00 00 	nop 
    2880:	05 3f ff cd 	sethi  %hi(0xffff3400), %g2
    2884:	84 10 a0 08 	or  %g2, 8, %g2	! ffff3408 <ajit_global_interrupt_handlers+0xfffe8160>
    2888:	c2 a0 84 00 	sta  %g1, [ %g2 ] #ASI_SCRATCHPAD
    288c:	81 c3 e0 08 	retl 
    2890:	01 00 00 00 	nop 

00002894 <__ajit_serial_set_baudrate_via_vmap__>:
    2894:	91 2a 20 04 	sll  %o0, 4, %o0
    2898:	80 a2 00 09 	cmp  %o0, %o1
    289c:	1a 80 00 25 	bcc  2930 <__ajit_serial_set_baudrate_via_vmap__+0x9c>
    28a0:	84 10 20 00 	clr  %g2
    28a4:	80 a2 20 00 	cmp  %o0, 0
    28a8:	22 80 00 23 	be,a   2934 <__ajit_serial_set_baudrate_via_vmap__+0xa0>
    28ac:	03 3f ff cd 	sethi  %hi(0xffff3400), %g1
    28b0:	84 10 00 09 	mov  %o1, %g2
    28b4:	10 80 00 03 	b  28c0 <__ajit_serial_set_baudrate_via_vmap__+0x2c>
    28b8:	82 10 00 08 	mov  %o0, %g1
    28bc:	82 10 00 03 	mov  %g3, %g1
    28c0:	81 80 20 00 	mov  %g0, %y
    28c4:	01 00 00 00 	nop 
    28c8:	01 00 00 00 	nop 
    28cc:	01 00 00 00 	nop 
    28d0:	86 70 80 01 	udiv  %g2, %g1, %g3
    28d4:	86 58 c0 01 	smul  %g3, %g1, %g3
    28d8:	86 20 80 03 	sub  %g2, %g3, %g3
    28dc:	80 a0 e0 00 	cmp  %g3, 0
    28e0:	12 bf ff f7 	bne  28bc <__ajit_serial_set_baudrate_via_vmap__+0x28>
    28e4:	84 10 00 01 	mov  %g1, %g2
    28e8:	81 80 20 00 	mov  %g0, %y
    28ec:	01 00 00 00 	nop 
    28f0:	01 00 00 00 	nop 
    28f4:	01 00 00 00 	nop 
    28f8:	86 72 00 01 	udiv  %o0, %g1, %g3
    28fc:	81 80 20 00 	mov  %g0, %y
    2900:	01 00 00 00 	nop 
    2904:	01 00 00 00 	nop 
    2908:	01 00 00 00 	nop 
    290c:	84 72 40 01 	udiv  %o1, %g1, %g2
    2910:	82 08 ef ff 	and  %g3, 0xfff, %g1
    2914:	84 20 80 03 	sub  %g2, %g3, %g2
    2918:	85 28 a0 10 	sll  %g2, 0x10, %g2
    291c:	84 10 80 01 	or  %g2, %g1, %g2
    2920:	03 3f ff cd 	sethi  %hi(0xffff3400), %g1
    2924:	82 10 60 08 	or  %g1, 8, %g1	! ffff3408 <ajit_global_interrupt_handlers+0xfffe8160>
    2928:	81 c3 e0 08 	retl 
    292c:	c4 20 40 00 	st  %g2, [ %g1 ]
    2930:	03 3f ff cd 	sethi  %hi(0xffff3400), %g1
    2934:	82 10 60 08 	or  %g1, 8, %g1	! ffff3408 <ajit_global_interrupt_handlers+0xfffe8160>
    2938:	81 c3 e0 08 	retl 
    293c:	c4 20 40 00 	st  %g2, [ %g1 ]

00002940 <calculate_baud_control_word_for_uart>:
    2940:	91 2a 20 04 	sll  %o0, 4, %o0
    2944:	80 a2 00 09 	cmp  %o0, %o1
    2948:	1a 80 00 20 	bcc  29c8 <calculate_baud_control_word_for_uart+0x88>
    294c:	80 a2 20 00 	cmp  %o0, 0
    2950:	02 80 00 1e 	be  29c8 <calculate_baud_control_word_for_uart+0x88>
    2954:	84 10 00 09 	mov  %o1, %g2
    2958:	10 80 00 03 	b  2964 <calculate_baud_control_word_for_uart+0x24>
    295c:	82 10 00 08 	mov  %o0, %g1
    2960:	82 10 00 03 	mov  %g3, %g1
    2964:	81 80 20 00 	mov  %g0, %y
    2968:	01 00 00 00 	nop 
    296c:	01 00 00 00 	nop 
    2970:	01 00 00 00 	nop 
    2974:	86 70 80 01 	udiv  %g2, %g1, %g3
    2978:	86 58 c0 01 	smul  %g3, %g1, %g3
    297c:	86 20 80 03 	sub  %g2, %g3, %g3
    2980:	80 a0 e0 00 	cmp  %g3, 0
    2984:	12 bf ff f7 	bne  2960 <calculate_baud_control_word_for_uart+0x20>
    2988:	84 10 00 01 	mov  %g1, %g2
    298c:	81 80 20 00 	mov  %g0, %y
    2990:	01 00 00 00 	nop 
    2994:	01 00 00 00 	nop 
    2998:	01 00 00 00 	nop 
    299c:	84 72 00 01 	udiv  %o0, %g1, %g2
    29a0:	81 80 20 00 	mov  %g0, %y
    29a4:	01 00 00 00 	nop 
    29a8:	01 00 00 00 	nop 
    29ac:	01 00 00 00 	nop 
    29b0:	90 72 40 01 	udiv  %o1, %g1, %o0
    29b4:	82 08 af ff 	and  %g2, 0xfff, %g1
    29b8:	90 22 00 02 	sub  %o0, %g2, %o0
    29bc:	91 2a 20 10 	sll  %o0, 0x10, %o0
    29c0:	81 c3 e0 08 	retl 
    29c4:	90 12 00 01 	or  %o0, %g1, %o0
    29c8:	81 c3 e0 08 	retl 
    29cc:	90 10 20 00 	clr  %o0

000029d0 <__ajit_serial_set_baudrate_inner__>:
    29d0:	93 2a 60 04 	sll  %o1, 4, %o1
    29d4:	80 a2 40 0a 	cmp  %o1, %o2
    29d8:	1a 80 00 27 	bcc  2a74 <__ajit_serial_set_baudrate_inner__+0xa4>
    29dc:	05 3f ff cd 	sethi  %hi(0xffff3400), %g2
    29e0:	80 a2 60 00 	cmp  %o1, 0
    29e4:	22 80 00 25 	be,a   2a78 <__ajit_serial_set_baudrate_inner__+0xa8>
    29e8:	82 10 20 00 	clr  %g1
    29ec:	84 10 00 0a 	mov  %o2, %g2
    29f0:	10 80 00 03 	b  29fc <__ajit_serial_set_baudrate_inner__+0x2c>
    29f4:	82 10 00 09 	mov  %o1, %g1
    29f8:	82 10 00 03 	mov  %g3, %g1
    29fc:	81 80 20 00 	mov  %g0, %y
    2a00:	01 00 00 00 	nop 
    2a04:	01 00 00 00 	nop 
    2a08:	01 00 00 00 	nop 
    2a0c:	86 70 80 01 	udiv  %g2, %g1, %g3
    2a10:	86 58 c0 01 	smul  %g3, %g1, %g3
    2a14:	86 20 80 03 	sub  %g2, %g3, %g3
    2a18:	80 a0 e0 00 	cmp  %g3, 0
    2a1c:	12 bf ff f7 	bne  29f8 <__ajit_serial_set_baudrate_inner__+0x28>
    2a20:	84 10 00 01 	mov  %g1, %g2
    2a24:	81 80 20 00 	mov  %g0, %y
    2a28:	01 00 00 00 	nop 
    2a2c:	01 00 00 00 	nop 
    2a30:	01 00 00 00 	nop 
    2a34:	84 72 40 01 	udiv  %o1, %g1, %g2
    2a38:	81 80 20 00 	mov  %g0, %y
    2a3c:	01 00 00 00 	nop 
    2a40:	01 00 00 00 	nop 
    2a44:	01 00 00 00 	nop 
    2a48:	88 72 80 01 	udiv  %o2, %g1, %g4
    2a4c:	86 08 af ff 	and  %g2, 0xfff, %g3
    2a50:	82 21 00 02 	sub  %g4, %g2, %g1
    2a54:	80 a2 20 00 	cmp  %o0, 0
    2a58:	83 28 60 10 	sll  %g1, 0x10, %g1
    2a5c:	05 3f ff cd 	sethi  %hi(0xffff3400), %g2
    2a60:	82 10 40 03 	or  %g1, %g3, %g1
    2a64:	02 80 00 08 	be  2a84 <__ajit_serial_set_baudrate_inner__+0xb4>
    2a68:	84 10 a0 08 	or  %g2, 8, %g2
    2a6c:	81 c3 e0 08 	retl 
    2a70:	c2 20 80 00 	st  %g1, [ %g2 ]
    2a74:	82 10 20 00 	clr  %g1
    2a78:	80 a2 20 00 	cmp  %o0, 0
    2a7c:	12 bf ff fc 	bne  2a6c <__ajit_serial_set_baudrate_inner__+0x9c>
    2a80:	84 10 a0 08 	or  %g2, 8, %g2
    2a84:	c2 a0 84 00 	sta  %g1, [ %g2 ] #ASI_SCRATCHPAD
    2a88:	81 c3 e0 08 	retl 
    2a8c:	01 00 00 00 	nop 

00002a90 <__ajit_read_serial_control_register__>:
    2a90:	11 3f ff cc 	sethi  %hi(0xffff3000), %o0
    2a94:	90 12 22 00 	or  %o0, 0x200, %o0	! ffff3200 <ajit_global_interrupt_handlers+0xfffe7f58>
    2a98:	d0 82 04 00 	lda  [ %o0 ] #ASI_SCRATCHPAD, %o0
    2a9c:	81 c3 e0 08 	retl 
    2aa0:	01 00 00 00 	nop 

00002aa4 <__ajit_write_serial_tx_register__>:
    2aa4:	03 3f ff cc 	sethi  %hi(0xffff3000), %g1
    2aa8:	82 10 62 04 	or  %g1, 0x204, %g1	! ffff3204 <ajit_global_interrupt_handlers+0xfffe7f5c>
    2aac:	d0 a8 44 00 	stba  %o0, [ %g1 ] #ASI_SCRATCHPAD
    2ab0:	81 c3 e0 08 	retl 
    2ab4:	01 00 00 00 	nop 

00002ab8 <__ajit_read_serial_tx_register__>:
    2ab8:	11 3f ff cc 	sethi  %hi(0xffff3000), %o0
    2abc:	90 12 22 04 	or  %o0, 0x204, %o0	! ffff3204 <ajit_global_interrupt_handlers+0xfffe7f5c>
    2ac0:	d0 8a 04 00 	lduba  [ %o0 ] #ASI_SCRATCHPAD, %o0
    2ac4:	81 c3 e0 08 	retl 
    2ac8:	90 0a 20 ff 	and  %o0, 0xff, %o0

00002acc <__ajit_read_serial_rx_register__>:
    2acc:	11 3f ff cc 	sethi  %hi(0xffff3000), %o0
    2ad0:	90 12 22 08 	or  %o0, 0x208, %o0	! ffff3208 <ajit_global_interrupt_handlers+0xfffe7f60>
    2ad4:	d0 8a 04 00 	lduba  [ %o0 ] #ASI_SCRATCHPAD, %o0
    2ad8:	81 c3 e0 08 	retl 
    2adc:	90 0a 20 ff 	and  %o0, 0xff, %o0

00002ae0 <__ajit_serial_putchar__>:
    2ae0:	05 3f ff cc 	sethi  %hi(0xffff3000), %g2
    2ae4:	82 10 a2 00 	or  %g2, 0x200, %g1	! ffff3200 <ajit_global_interrupt_handlers+0xfffe7f58>
    2ae8:	c2 80 44 00 	lda  [ %g1 ] #ASI_SCRATCHPAD, %g1
    2aec:	80 88 60 01 	btst  1, %g1
    2af0:	02 80 00 07 	be  2b0c <__ajit_serial_putchar__+0x2c>
    2af4:	86 10 20 00 	clr  %g3
    2af8:	80 88 60 08 	btst  8, %g1
    2afc:	12 80 00 04 	bne  2b0c <__ajit_serial_putchar__+0x2c>
    2b00:	84 10 a2 04 	or  %g2, 0x204, %g2
    2b04:	d0 a8 84 00 	stba  %o0, [ %g2 ] #ASI_SCRATCHPAD
    2b08:	86 10 00 08 	mov  %o0, %g3
    2b0c:	81 c3 e0 08 	retl 
    2b10:	90 10 00 03 	mov  %g3, %o0

00002b14 <__ajit_serial_getchar__>:
    2b14:	03 3f ff cc 	sethi  %hi(0xffff3000), %g1
    2b18:	84 10 62 00 	or  %g1, 0x200, %g2	! ffff3200 <ajit_global_interrupt_handlers+0xfffe7f58>
    2b1c:	c4 80 84 00 	lda  [ %g2 ] #ASI_SCRATCHPAD, %g2
    2b20:	84 08 a0 12 	and  %g2, 0x12, %g2
    2b24:	80 a0 a0 12 	cmp  %g2, 0x12
    2b28:	12 80 00 04 	bne  2b38 <__ajit_serial_getchar__+0x24>
    2b2c:	90 10 20 00 	clr  %o0
    2b30:	90 10 62 08 	or  %g1, 0x208, %o0
    2b34:	d0 8a 04 00 	lduba  [ %o0 ] #ASI_SCRATCHPAD, %o0
    2b38:	81 c3 e0 08 	retl 
    2b3c:	01 00 00 00 	nop 

00002b40 <__ajit_serial_puts__>:
    2b40:	19 3f ff cc 	sethi  %hi(0xffff3000), %o4
    2b44:	9a 10 20 00 	clr  %o5
    2b48:	84 13 22 00 	or  %o4, 0x200, %g2
    2b4c:	88 10 20 00 	clr  %g4
    2b50:	80 a2 60 00 	cmp  %o1, 0
    2b54:	02 80 00 12 	be  2b9c <__ajit_serial_puts__+0x5c>
    2b58:	98 13 22 04 	or  %o4, 0x204, %o4
    2b5c:	c6 0a 00 0d 	ldub  [ %o0 + %o5 ], %g3
    2b60:	c2 80 84 00 	lda  [ %g2 ] #ASI_SCRATCHPAD, %g1
    2b64:	80 88 60 01 	btst  1, %g1
    2b68:	02 bf ff fe 	be  2b60 <__ajit_serial_puts__+0x20>
    2b6c:	80 88 60 08 	btst  8, %g1
    2b70:	12 bf ff fc 	bne  2b60 <__ajit_serial_puts__+0x20>
    2b74:	01 00 00 00 	nop 
    2b78:	c6 ab 04 00 	stba  %g3, [ %o4 ] #ASI_SCRATCHPAD
    2b7c:	87 28 e0 18 	sll  %g3, 0x18, %g3
    2b80:	80 a0 e0 00 	cmp  %g3, 0
    2b84:	22 bf ff f7 	be,a   2b60 <__ajit_serial_puts__+0x20>
    2b88:	c6 0a 00 0d 	ldub  [ %o0 + %o5 ], %g3
    2b8c:	88 01 20 01 	inc  %g4
    2b90:	80 a1 00 09 	cmp  %g4, %o1
    2b94:	12 bf ff f2 	bne  2b5c <__ajit_serial_puts__+0x1c>
    2b98:	9a 10 00 04 	mov  %g4, %o5
    2b9c:	81 c3 e0 08 	retl 
    2ba0:	01 00 00 00 	nop 

00002ba4 <__ajit_serial_gets__>:
    2ba4:	80 a2 60 00 	cmp  %o1, 0
    2ba8:	02 80 00 15 	be  2bfc <__ajit_serial_gets__+0x58>
    2bac:	09 3f ff cc 	sethi  %hi(0xffff3000), %g4
    2bb0:	9a 10 20 00 	clr  %o5
    2bb4:	84 11 22 00 	or  %g4, 0x200, %g2
    2bb8:	86 10 20 00 	clr  %g3
    2bbc:	88 11 22 08 	or  %g4, 0x208, %g4
    2bc0:	c2 80 84 00 	lda  [ %g2 ] #ASI_SCRATCHPAD, %g1
    2bc4:	80 88 60 02 	btst  2, %g1
    2bc8:	02 bf ff fe 	be  2bc0 <__ajit_serial_gets__+0x1c>
    2bcc:	80 88 60 10 	btst  0x10, %g1
    2bd0:	02 bf ff fc 	be  2bc0 <__ajit_serial_gets__+0x1c>
    2bd4:	01 00 00 00 	nop 
    2bd8:	c2 89 04 00 	lduba  [ %g4 ] #ASI_SCRATCHPAD, %g1
    2bdc:	80 a0 60 00 	cmp  %g1, 0
    2be0:	02 bf ff f8 	be  2bc0 <__ajit_serial_gets__+0x1c>
    2be4:	01 00 00 00 	nop 
    2be8:	c2 2a 00 0d 	stb  %g1, [ %o0 + %o5 ]
    2bec:	86 00 e0 01 	inc  %g3
    2bf0:	80 a0 c0 09 	cmp  %g3, %o1
    2bf4:	12 bf ff f3 	bne  2bc0 <__ajit_serial_gets__+0x1c>
    2bf8:	9a 10 00 03 	mov  %g3, %o5
    2bfc:	81 c3 e0 08 	retl 
    2c00:	01 00 00 00 	nop 

00002c04 <__ajit_write_serial_control_register_via_vmap__>:
    2c04:	03 3f ff cc 	sethi  %hi(0xffff3000), %g1
    2c08:	82 10 62 00 	or  %g1, 0x200, %g1	! ffff3200 <ajit_global_interrupt_handlers+0xfffe7f58>
    2c0c:	81 c3 e0 08 	retl 
    2c10:	d0 20 40 00 	st  %o0, [ %g1 ]

00002c14 <__ajit_read_serial_control_register_via_vmap__>:
    2c14:	03 3f ff cc 	sethi  %hi(0xffff3000), %g1
    2c18:	82 10 62 00 	or  %g1, 0x200, %g1	! ffff3200 <ajit_global_interrupt_handlers+0xfffe7f58>
    2c1c:	81 c3 e0 08 	retl 
    2c20:	d0 08 40 00 	ldub  [ %g1 ], %o0

00002c24 <__ajit_write_serial_tx_register_via_vmap__>:
    2c24:	03 3f ff cc 	sethi  %hi(0xffff3000), %g1
    2c28:	82 10 62 04 	or  %g1, 0x204, %g1	! ffff3204 <ajit_global_interrupt_handlers+0xfffe7f5c>
    2c2c:	81 c3 e0 08 	retl 
    2c30:	d0 28 40 00 	stb  %o0, [ %g1 ]

00002c34 <__ajit_read_serial_tx_register_via_vmap__>:
    2c34:	03 3f ff cc 	sethi  %hi(0xffff3000), %g1
    2c38:	82 10 62 04 	or  %g1, 0x204, %g1	! ffff3204 <ajit_global_interrupt_handlers+0xfffe7f5c>
    2c3c:	81 c3 e0 08 	retl 
    2c40:	d0 08 40 00 	ldub  [ %g1 ], %o0

00002c44 <__ajit_read_serial_rx_register_via_vmap__>:
    2c44:	03 3f ff cc 	sethi  %hi(0xffff3000), %g1
    2c48:	82 10 62 08 	or  %g1, 0x208, %g1	! ffff3208 <ajit_global_interrupt_handlers+0xfffe7f60>
    2c4c:	81 c3 e0 08 	retl 
    2c50:	d0 08 40 00 	ldub  [ %g1 ], %o0

00002c54 <__ajit_serial_putchar_via_vmap__>:
    2c54:	05 3f ff cc 	sethi  %hi(0xffff3000), %g2
    2c58:	82 10 a2 00 	or  %g2, 0x200, %g1	! ffff3200 <ajit_global_interrupt_handlers+0xfffe7f58>
    2c5c:	c2 00 40 00 	ld  [ %g1 ], %g1
    2c60:	80 88 60 01 	btst  1, %g1
    2c64:	02 80 00 07 	be  2c80 <__ajit_serial_putchar_via_vmap__+0x2c>
    2c68:	86 10 20 00 	clr  %g3
    2c6c:	80 88 60 08 	btst  8, %g1
    2c70:	12 80 00 04 	bne  2c80 <__ajit_serial_putchar_via_vmap__+0x2c>
    2c74:	84 10 a2 04 	or  %g2, 0x204, %g2
    2c78:	86 10 00 08 	mov  %o0, %g3
    2c7c:	d0 28 80 00 	stb  %o0, [ %g2 ]
    2c80:	81 c3 e0 08 	retl 
    2c84:	90 10 00 03 	mov  %g3, %o0

00002c88 <__ajit_serial_getchar_via_vmap__>:
    2c88:	03 3f ff cc 	sethi  %hi(0xffff3000), %g1
    2c8c:	84 10 62 00 	or  %g1, 0x200, %g2	! ffff3200 <ajit_global_interrupt_handlers+0xfffe7f58>
    2c90:	c4 00 80 00 	ld  [ %g2 ], %g2
    2c94:	84 08 a0 12 	and  %g2, 0x12, %g2
    2c98:	80 a0 a0 12 	cmp  %g2, 0x12
    2c9c:	12 80 00 04 	bne  2cac <__ajit_serial_getchar_via_vmap__+0x24>
    2ca0:	90 10 20 00 	clr  %o0
    2ca4:	82 10 62 08 	or  %g1, 0x208, %g1
    2ca8:	d0 08 40 00 	ldub  [ %g1 ], %o0
    2cac:	81 c3 e0 08 	retl 
    2cb0:	01 00 00 00 	nop 

00002cb4 <__ajit_serial_puts_via_vmap__>:
    2cb4:	19 3f ff cc 	sethi  %hi(0xffff3000), %o4
    2cb8:	88 10 20 00 	clr  %g4
    2cbc:	9a 13 22 00 	or  %o4, 0x200, %o5
    2cc0:	86 10 20 00 	clr  %g3
    2cc4:	80 a2 60 00 	cmp  %o1, 0
    2cc8:	02 80 00 14 	be  2d18 <__ajit_serial_puts_via_vmap__+0x64>
    2ccc:	98 13 22 04 	or  %o4, 0x204, %o4
    2cd0:	c4 03 40 00 	ld  [ %o5 ], %g2
    2cd4:	80 88 a0 01 	btst  1, %g2
    2cd8:	12 80 00 03 	bne  2ce4 <__ajit_serial_puts_via_vmap__+0x30>
    2cdc:	c2 0a 00 04 	ldub  [ %o0 + %g4 ], %g1
    2ce0:	30 80 00 00 	b,a   2ce0 <__ajit_serial_puts_via_vmap__+0x2c>
    2ce4:	84 08 a0 08 	and  %g2, 8, %g2
    2ce8:	80 a0 a0 00 	cmp  %g2, 0
    2cec:	12 80 00 00 	bne  2cec <__ajit_serial_puts_via_vmap__+0x38>
    2cf0:	01 00 00 00 	nop 
    2cf4:	c2 2b 00 00 	stb  %g1, [ %o4 ]
    2cf8:	83 28 60 18 	sll  %g1, 0x18, %g1
    2cfc:	80 a0 60 00 	cmp  %g1, 0
    2d00:	22 bf ff f5 	be,a   2cd4 <__ajit_serial_puts_via_vmap__+0x20>
    2d04:	c4 03 40 00 	ld  [ %o5 ], %g2
    2d08:	86 00 e0 01 	inc  %g3
    2d0c:	80 a0 c0 09 	cmp  %g3, %o1
    2d10:	12 bf ff f0 	bne  2cd0 <__ajit_serial_puts_via_vmap__+0x1c>
    2d14:	88 10 00 03 	mov  %g3, %g4
    2d18:	81 c3 e0 08 	retl 
    2d1c:	01 00 00 00 	nop 

00002d20 <__ajit_serial_gets_via_vmap__>:
    2d20:	09 3f ff cc 	sethi  %hi(0xffff3000), %g4
    2d24:	9a 10 20 00 	clr  %o5
    2d28:	86 11 22 00 	or  %g4, 0x200, %g3
    2d2c:	84 10 20 00 	clr  %g2
    2d30:	80 a2 60 00 	cmp  %o1, 0
    2d34:	02 80 00 12 	be  2d7c <__ajit_serial_gets_via_vmap__+0x5c>
    2d38:	88 11 22 08 	or  %g4, 0x208, %g4
    2d3c:	c2 00 c0 00 	ld  [ %g3 ], %g1
    2d40:	80 88 60 02 	btst  2, %g1
    2d44:	12 80 00 03 	bne  2d50 <__ajit_serial_gets_via_vmap__+0x30>
    2d48:	80 88 60 10 	btst  0x10, %g1
    2d4c:	30 80 00 00 	b,a   2d4c <__ajit_serial_gets_via_vmap__+0x2c>
    2d50:	32 80 00 03 	bne,a   2d5c <__ajit_serial_gets_via_vmap__+0x3c>
    2d54:	c2 09 00 00 	ldub  [ %g4 ], %g1
    2d58:	30 80 00 00 	b,a   2d58 <__ajit_serial_gets_via_vmap__+0x38>
    2d5c:	80 a0 60 00 	cmp  %g1, 0
    2d60:	22 bf ff f8 	be,a   2d40 <__ajit_serial_gets_via_vmap__+0x20>
    2d64:	c2 00 c0 00 	ld  [ %g3 ], %g1
    2d68:	c2 2a 00 0d 	stb  %g1, [ %o0 + %o5 ]
    2d6c:	84 00 a0 01 	inc  %g2
    2d70:	80 a0 80 09 	cmp  %g2, %o1
    2d74:	12 bf ff f2 	bne  2d3c <__ajit_serial_gets_via_vmap__+0x1c>
    2d78:	9a 10 00 02 	mov  %g2, %o5
    2d7c:	81 c3 e0 08 	retl 
    2d80:	01 00 00 00 	nop 

00002d84 <__ajit_serial_configure_via_vmap__>:
    2d84:	03 3f ff cc 	sethi  %hi(0xffff3000), %g1
    2d88:	82 10 62 00 	or  %g1, 0x200, %g1	! ffff3200 <ajit_global_interrupt_handlers+0xfffe7f58>
    2d8c:	80 a2 20 00 	cmp  %o0, 0
    2d90:	c4 00 40 00 	ld  [ %g1 ], %g2
    2d94:	02 80 00 03 	be  2da0 <__ajit_serial_configure_via_vmap__+0x1c>
    2d98:	82 08 bf fe 	and  %g2, -2, %g1
    2d9c:	82 10 a0 01 	or  %g2, 1, %g1
    2da0:	80 a2 60 00 	cmp  %o1, 0
    2da4:	02 80 00 03 	be  2db0 <__ajit_serial_configure_via_vmap__+0x2c>
    2da8:	84 08 7f fd 	and  %g1, -3, %g2
    2dac:	84 10 60 02 	or  %g1, 2, %g2
    2db0:	80 a2 a0 00 	cmp  %o2, 0
    2db4:	02 80 00 03 	be  2dc0 <__ajit_serial_configure_via_vmap__+0x3c>
    2db8:	82 08 bf fb 	and  %g2, -5, %g1
    2dbc:	82 10 a0 04 	or  %g2, 4, %g1
    2dc0:	05 3f ff cc 	sethi  %hi(0xffff3000), %g2
    2dc4:	84 10 a2 00 	or  %g2, 0x200, %g2	! ffff3200 <ajit_global_interrupt_handlers+0xfffe7f58>
    2dc8:	81 c3 e0 08 	retl 
    2dcc:	c2 20 80 00 	st  %g1, [ %g2 ]

00002dd0 <__ajit_serial_uart_reset_via_vmap__>:
    2dd0:	03 3f ff cc 	sethi  %hi(0xffff3000), %g1
    2dd4:	82 10 62 00 	or  %g1, 0x200, %g1	! ffff3200 <ajit_global_interrupt_handlers+0xfffe7f58>
    2dd8:	c4 08 40 00 	ldub  [ %g1 ], %g2
    2ddc:	81 c3 e0 08 	retl 
    2de0:	c4 20 40 00 	st  %g2, [ %g1 ]

00002de4 <__ajit_serial_uart_reset_inner__>:
    2de4:	03 3f ff cc 	sethi  %hi(0xffff3000), %g1
    2de8:	80 a2 20 00 	cmp  %o0, 0
    2dec:	12 80 00 08 	bne  2e0c <__ajit_serial_uart_reset_inner__+0x28>
    2df0:	82 10 62 00 	or  %g1, 0x200, %g1
    2df4:	c4 80 44 00 	lda  [ %g1 ] #ASI_SCRATCHPAD, %g2
    2df8:	86 10 20 08 	mov  8, %g3
    2dfc:	c6 a0 44 00 	sta  %g3, [ %g1 ] #ASI_SCRATCHPAD
    2e00:	c4 a0 44 00 	sta  %g2, [ %g1 ] #ASI_SCRATCHPAD
    2e04:	81 c3 e0 08 	retl 
    2e08:	01 00 00 00 	nop 
    2e0c:	c4 08 40 00 	ldub  [ %g1 ], %g2
    2e10:	81 c3 e0 08 	retl 
    2e14:	c4 20 40 00 	st  %g2, [ %g1 ]

00002e18 <__ajit_serial_uart_reset__>:
    2e18:	90 10 20 00 	clr  %o0
    2e1c:	82 13 c0 00 	mov  %o7, %g1
    2e20:	7f ff ff f1 	call  2de4 <__ajit_serial_uart_reset_inner__>
    2e24:	9e 10 40 00 	mov  %g1, %o7

00002e28 <__ajit_write_irc_control_register__>:
    2e28:	03 3f ff cc 	sethi  %hi(0xffff3000), %g1
    2e2c:	d0 a0 44 00 	sta  %o0, [ %g1 ] #ASI_SCRATCHPAD
    2e30:	81 c3 e0 08 	retl 
    2e34:	01 00 00 00 	nop 

00002e38 <__ajit_read_irc_control_register__>:
    2e38:	11 3f ff cc 	sethi  %hi(0xffff3000), %o0
    2e3c:	d0 82 04 00 	lda  [ %o0 ] #ASI_SCRATCHPAD, %o0
    2e40:	81 c3 e0 08 	retl 
    2e44:	01 00 00 00 	nop 

00002e48 <__ajit_write_irc_control_register_via_vmap__>:
    2e48:	03 3f ff cc 	sethi  %hi(0xffff3000), %g1
    2e4c:	81 c3 e0 08 	retl 
    2e50:	d0 20 40 00 	st  %o0, [ %g1 ]

00002e54 <__ajit_read_irc_control_register_via_vmap__>:
    2e54:	03 3f ff cc 	sethi  %hi(0xffff3000), %g1
    2e58:	81 c3 e0 08 	retl 
    2e5c:	d0 00 40 00 	ld  [ %g1 ], %o0

00002e60 <__ajit_write_spi_master_register__>:
    2e60:	91 2a 20 02 	sll  %o0, 2, %o0
    2e64:	03 3f ff cc 	sethi  %hi(0xffff3000), %g1
    2e68:	82 10 63 00 	or  %g1, 0x300, %g1	! ffff3300 <ajit_global_interrupt_handlers+0xfffe8058>
    2e6c:	90 02 00 01 	add  %o0, %g1, %o0
    2e70:	d2 a2 04 00 	sta  %o1, [ %o0 ] #ASI_SCRATCHPAD
    2e74:	81 c3 e0 08 	retl 
    2e78:	01 00 00 00 	nop 

00002e7c <__ajit_write_spi_master_register_via_vmap__>:
    2e7c:	91 2a 20 02 	sll  %o0, 2, %o0
    2e80:	03 3f ff cc 	sethi  %hi(0xffff3000), %g1
    2e84:	82 10 63 00 	or  %g1, 0x300, %g1	! ffff3300 <ajit_global_interrupt_handlers+0xfffe8058>
    2e88:	81 c3 e0 08 	retl 
    2e8c:	d2 2a 00 01 	stb  %o1, [ %o0 + %g1 ]

00002e90 <__ajit_read_spi_master_register__>:
    2e90:	91 2a 20 02 	sll  %o0, 2, %o0
    2e94:	03 3f ff cc 	sethi  %hi(0xffff3000), %g1
    2e98:	82 10 63 00 	or  %g1, 0x300, %g1	! ffff3300 <ajit_global_interrupt_handlers+0xfffe8058>
    2e9c:	90 02 00 01 	add  %o0, %g1, %o0
    2ea0:	d0 82 04 00 	lda  [ %o0 ] #ASI_SCRATCHPAD, %o0
    2ea4:	81 c3 e0 08 	retl 
    2ea8:	90 0a 20 ff 	and  %o0, 0xff, %o0

00002eac <__ajit_read_spi_master_register_via_vmap__>:
    2eac:	91 2a 20 02 	sll  %o0, 2, %o0
    2eb0:	03 3f ff cc 	sethi  %hi(0xffff3000), %g1
    2eb4:	82 10 63 00 	or  %g1, 0x300, %g1	! ffff3300 <ajit_global_interrupt_handlers+0xfffe8058>
    2eb8:	81 c3 e0 08 	retl 
    2ebc:	d0 0a 00 01 	ldub  [ %o0 + %g1 ], %o0

00002ec0 <__ajit_gpio_xfer__>:
    2ec0:	09 3f ff cc 	sethi  %hi(0xffff3000), %g4
    2ec4:	82 11 23 00 	or  %g4, 0x300, %g1	! ffff3300 <ajit_global_interrupt_handlers+0xfffe8058>
    2ec8:	d0 a0 44 00 	sta  %o0, [ %g1 ] #ASI_SCRATCHPAD
    2ecc:	82 10 20 13 	mov  0x13, %g1
    2ed0:	88 11 23 08 	or  %g4, 0x308, %g4
    2ed4:	c2 a1 04 00 	sta  %g1, [ %g4 ] #ASI_SCRATCHPAD
    2ed8:	82 10 21 00 	mov  0x100, %g1
    2edc:	c4 81 04 00 	lda  [ %g4 ] #ASI_SCRATCHPAD, %g2
    2ee0:	82 00 7f ff 	add  %g1, -1, %g1
    2ee4:	87 38 60 1f 	sra  %g1, 0x1f, %g3
    2ee8:	86 20 c0 01 	sub  %g3, %g1, %g3
    2eec:	87 30 e0 1f 	srl  %g3, 0x1f, %g3
    2ef0:	80 88 c0 02 	btst  %g3, %g2
    2ef4:	12 bf ff fa 	bne  2edc <__ajit_gpio_xfer__+0x1c>
    2ef8:	11 3f ff cc 	sethi  %hi(0xffff3000), %o0
    2efc:	90 12 23 00 	or  %o0, 0x300, %o0	! ffff3300 <ajit_global_interrupt_handlers+0xfffe8058>
    2f00:	d0 82 04 00 	lda  [ %o0 ] #ASI_SCRATCHPAD, %o0
    2f04:	81 c3 e0 08 	retl 
    2f08:	90 0a 20 ff 	and  %o0, 0xff, %o0

00002f0c <__ajit_gpio_xfer_via_vmap__>:
    2f0c:	03 3f ff cc 	sethi  %hi(0xffff3000), %g1
    2f10:	84 10 63 00 	or  %g1, 0x300, %g2	! ffff3300 <ajit_global_interrupt_handlers+0xfffe8058>
    2f14:	d0 28 80 00 	stb  %o0, [ %g2 ]
    2f18:	82 10 63 08 	or  %g1, 0x308, %g1
    2f1c:	84 10 20 13 	mov  0x13, %g2
    2f20:	81 c3 e0 08 	retl 
    2f24:	c4 28 40 00 	stb  %g2, [ %g1 ]

00002f28 <__ajit_ta_0__>:
    2f28:	91 d0 20 00 	ta  0
    2f2c:	01 00 00 00 	nop 
    2f30:	01 00 00 00 	nop 
    2f34:	81 c3 e0 08 	retl 
    2f38:	01 00 00 00 	nop 

00002f3c <__ajit_fsqrtd__>:
    2f3c:	c1 1a 00 00 	ldd  [ %o0 ], %f0
    2f40:	85 a0 05 40 	fsqrtd  %f0, %f2
    2f44:	c5 3a 40 00 	std  %f2, [ %o1 ]
    2f48:	81 c3 e0 08 	retl 
    2f4c:	01 00 00 00 	nop 

00002f50 <__ajit_fsqrts__>:
    2f50:	c1 02 00 00 	ld  [ %o0 ], %f0
    2f54:	83 a0 05 20 	fsqrts  %f0, %f1
    2f58:	c3 22 40 00 	st  %f1, [ %o1 ]
    2f5c:	81 c3 e0 08 	retl 
    2f60:	01 00 00 00 	nop 

00002f64 <__ajit_fitod__>:
    2f64:	c1 02 00 00 	ld  [ %o0 ], %f0
    2f68:	85 a0 19 00 	fitod  %f0, %f2
    2f6c:	c5 3a 40 00 	std  %f2, [ %o1 ]
    2f70:	81 c3 e0 08 	retl 
    2f74:	01 00 00 00 	nop 

00002f78 <__ajit_fitos__>:
    2f78:	c1 02 00 00 	ld  [ %o0 ], %f0
    2f7c:	83 a0 18 80 	fitos  %f0, %f1
    2f80:	c3 22 40 00 	st  %f1, [ %o1 ]
    2f84:	81 c3 e0 08 	retl 
    2f88:	01 00 00 00 	nop 

00002f8c <__ajit_fdtoi__>:
    2f8c:	c1 1a 00 00 	ldd  [ %o0 ], %f0
    2f90:	85 a0 1a 40 	fdtoi  %f0, %f2
    2f94:	c5 22 40 00 	st  %f2, [ %o1 ]
    2f98:	81 c3 e0 08 	retl 
    2f9c:	01 00 00 00 	nop 

00002fa0 <__ajit_fstoi__>:
    2fa0:	c1 02 00 00 	ld  [ %o0 ], %f0
    2fa4:	83 a0 1a 20 	fstoi  %f0, %f1
    2fa8:	c3 22 40 00 	st  %f1, [ %o1 ]
    2fac:	81 c3 e0 08 	retl 
    2fb0:	01 00 00 00 	nop 
    2fb4:	80 8a 60 01 	btst  1, %o1
    2fb8:	02 80 00 08 	be  2fd8 <__ajit_fstoi__+0x38>
    2fbc:	80 8a 60 02 	btst  2, %o1
    2fc0:	c4 0a 7f ff 	ldub  [ %o1 + -1 ], %g2
    2fc4:	92 22 60 01 	dec  %o1
    2fc8:	c4 2a 3f ff 	stb  %g2, [ %o0 + -1 ]
    2fcc:	94 22 a0 01 	dec  %o2
    2fd0:	02 80 00 1a 	be  3038 <__GI_memmove+0x3c>
    2fd4:	90 22 20 01 	dec  %o0
    2fd8:	c4 12 7f fe 	lduh  [ %o1 + -2 ], %g2
    2fdc:	92 22 60 02 	sub  %o1, 2, %o1
    2fe0:	c4 32 3f fe 	sth  %g2, [ %o0 + -2 ]
    2fe4:	94 22 a0 02 	sub  %o2, 2, %o2
    2fe8:	10 80 00 14 	b  3038 <__GI_memmove+0x3c>
    2fec:	90 22 20 02 	sub  %o0, 2, %o0

00002ff0 <bcopy>:
    2ff0:	96 10 00 08 	mov  %o0, %o3
    2ff4:	90 10 00 09 	mov  %o1, %o0
    2ff8:	92 10 00 0b 	mov  %o3, %o1

00002ffc <__GI_memmove>:
    2ffc:	80 a2 00 09 	cmp  %o0, %o1
    3000:	d0 23 a0 40 	st  %o0, [ %sp + 0x40 ]
    3004:	08 80 01 79 	bleu  35e8 <__GI_memcpy+0x8>
    3008:	98 22 00 09 	sub  %o0, %o1, %o4
    300c:	96 02 40 0a 	add  %o1, %o2, %o3
    3010:	80 a2 c0 08 	cmp  %o3, %o0
    3014:	08 80 01 76 	bleu  35ec <__GI_memcpy+0xc>
    3018:	9a 8b 20 03 	andcc  %o4, 3, %o5
    301c:	92 02 40 0a 	add  %o1, %o2, %o1
    3020:	90 02 00 0a 	add  %o0, %o2, %o0
    3024:	12 80 00 f9 	bne  3408 <__GI_memmove+0x40c>
    3028:	80 a2 a0 0f 	cmp  %o2, 0xf
    302c:	08 80 00 eb 	bleu  33d8 <__GI_memmove+0x3dc>
    3030:	80 8a 60 03 	btst  3, %o1
    3034:	12 bf ff e0 	bne  2fb4 <__ajit_fstoi__+0x14>
    3038:	80 8a 60 04 	btst  4, %o1
    303c:	02 80 00 07 	be  3058 <__GI_memmove+0x5c>
    3040:	82 10 00 0a 	mov  %o2, %g1
    3044:	d8 02 7f fc 	ld  [ %o1 + -4 ], %o4
    3048:	82 20 60 04 	sub  %g1, 4, %g1
    304c:	d8 22 3f fc 	st  %o4, [ %o0 + -4 ]
    3050:	92 22 60 04 	sub  %o1, 4, %o1
    3054:	90 22 20 04 	sub  %o0, 4, %o0
    3058:	8c 88 7f 80 	andcc  %g1, -128, %g6
    305c:	02 80 00 37 	be  3138 <__GI_memmove+0x13c>
    3060:	80 8a 20 04 	btst  4, %o0
    3064:	02 80 00 84 	be  3274 <__GI_memmove+0x278>
    3068:	d4 1a 7f e0 	ldd  [ %o1 + -32 ], %o2
    306c:	d8 1a 7f e8 	ldd  [ %o1 + -24 ], %o4
    3070:	c4 1a 7f f0 	ldd  [ %o1 + -16 ], %g2
    3074:	c8 1a 7f f8 	ldd  [ %o1 + -8 ], %g4
    3078:	d4 22 3f e0 	st  %o2, [ %o0 + -32 ]
    307c:	d6 22 3f e4 	st  %o3, [ %o0 + -28 ]
    3080:	d8 22 3f e8 	st  %o4, [ %o0 + -24 ]
    3084:	da 22 3f ec 	st  %o5, [ %o0 + -20 ]
    3088:	c4 22 3f f0 	st  %g2, [ %o0 + -16 ]
    308c:	c6 22 3f f4 	st  %g3, [ %o0 + -12 ]
    3090:	c8 22 3f f8 	st  %g4, [ %o0 + -8 ]
    3094:	ca 22 3f fc 	st  %g5, [ %o0 + -4 ]
    3098:	d4 1a 7f c0 	ldd  [ %o1 + -64 ], %o2
    309c:	d8 1a 7f c8 	ldd  [ %o1 + -56 ], %o4
    30a0:	c4 1a 7f d0 	ldd  [ %o1 + -48 ], %g2
    30a4:	c8 1a 7f d8 	ldd  [ %o1 + -40 ], %g4
    30a8:	d4 22 3f c0 	st  %o2, [ %o0 + -64 ]
    30ac:	d6 22 3f c4 	st  %o3, [ %o0 + -60 ]
    30b0:	d8 22 3f c8 	st  %o4, [ %o0 + -56 ]
    30b4:	da 22 3f cc 	st  %o5, [ %o0 + -52 ]
    30b8:	c4 22 3f d0 	st  %g2, [ %o0 + -48 ]
    30bc:	c6 22 3f d4 	st  %g3, [ %o0 + -44 ]
    30c0:	c8 22 3f d8 	st  %g4, [ %o0 + -40 ]
    30c4:	ca 22 3f dc 	st  %g5, [ %o0 + -36 ]
    30c8:	d4 1a 7f a0 	ldd  [ %o1 + -96 ], %o2
    30cc:	d8 1a 7f a8 	ldd  [ %o1 + -88 ], %o4
    30d0:	c4 1a 7f b0 	ldd  [ %o1 + -80 ], %g2
    30d4:	c8 1a 7f b8 	ldd  [ %o1 + -72 ], %g4
    30d8:	d4 22 3f a0 	st  %o2, [ %o0 + -96 ]
    30dc:	d6 22 3f a4 	st  %o3, [ %o0 + -92 ]
    30e0:	d8 22 3f a8 	st  %o4, [ %o0 + -88 ]
    30e4:	da 22 3f ac 	st  %o5, [ %o0 + -84 ]
    30e8:	c4 22 3f b0 	st  %g2, [ %o0 + -80 ]
    30ec:	c6 22 3f b4 	st  %g3, [ %o0 + -76 ]
    30f0:	c8 22 3f b8 	st  %g4, [ %o0 + -72 ]
    30f4:	ca 22 3f bc 	st  %g5, [ %o0 + -68 ]
    30f8:	d4 1a 7f 80 	ldd  [ %o1 + -128 ], %o2
    30fc:	d8 1a 7f 88 	ldd  [ %o1 + -120 ], %o4
    3100:	c4 1a 7f 90 	ldd  [ %o1 + -112 ], %g2
    3104:	c8 1a 7f 98 	ldd  [ %o1 + -104 ], %g4
    3108:	d4 22 3f 80 	st  %o2, [ %o0 + -128 ]
    310c:	d6 22 3f 84 	st  %o3, [ %o0 + -124 ]
    3110:	d8 22 3f 88 	st  %o4, [ %o0 + -120 ]
    3114:	da 22 3f 8c 	st  %o5, [ %o0 + -116 ]
    3118:	c4 22 3f 90 	st  %g2, [ %o0 + -112 ]
    311c:	c6 22 3f 94 	st  %g3, [ %o0 + -108 ]
    3120:	c8 22 3f 98 	st  %g4, [ %o0 + -104 ]
    3124:	ca 22 3f 9c 	st  %g5, [ %o0 + -100 ]
    3128:	8c a1 a0 80 	subcc  %g6, 0x80, %g6
    312c:	92 22 60 80 	sub  %o1, 0x80, %o1
    3130:	12 bf ff ce 	bne  3068 <__GI_memmove+0x6c>
    3134:	90 22 20 80 	sub  %o0, 0x80, %o0
    3138:	8c 88 60 70 	andcc  %g1, 0x70, %g6
    313c:	02 80 00 34 	be  320c <__GI_memmove+0x210>
    3140:	80 88 60 08 	btst  8, %g1
    3144:	99 31 a0 01 	srl  %g6, 1, %o4
    3148:	84 10 00 0f 	mov  %o7, %g2
    314c:	98 01 80 0c 	add  %g6, %o4, %o4
    3150:	40 00 05 3d 	call  4644 <__GI_memcpy+0x1064>
    3154:	92 22 40 06 	sub  %o1, %g6, %o1
    3158:	9e 10 00 02 	mov  %g2, %o7
    315c:	81 c3 60 bc 	jmp  %o5 + 0xbc
    3160:	90 22 00 06 	sub  %o0, %g6, %o0
    3164:	c4 1a 60 60 	ldd  [ %o1 + 0x60 ], %g2
    3168:	c8 1a 60 68 	ldd  [ %o1 + 0x68 ], %g4
    316c:	c4 22 20 60 	st  %g2, [ %o0 + 0x60 ]
    3170:	c6 22 20 64 	st  %g3, [ %o0 + 0x64 ]
    3174:	c8 22 20 68 	st  %g4, [ %o0 + 0x68 ]
    3178:	ca 22 20 6c 	st  %g5, [ %o0 + 0x6c ]
    317c:	c4 1a 60 50 	ldd  [ %o1 + 0x50 ], %g2
    3180:	c8 1a 60 58 	ldd  [ %o1 + 0x58 ], %g4
    3184:	c4 22 20 50 	st  %g2, [ %o0 + 0x50 ]
    3188:	c6 22 20 54 	st  %g3, [ %o0 + 0x54 ]
    318c:	c8 22 20 58 	st  %g4, [ %o0 + 0x58 ]
    3190:	ca 22 20 5c 	st  %g5, [ %o0 + 0x5c ]
    3194:	c4 1a 60 40 	ldd  [ %o1 + 0x40 ], %g2
    3198:	c8 1a 60 48 	ldd  [ %o1 + 0x48 ], %g4
    319c:	c4 22 20 40 	st  %g2, [ %o0 + 0x40 ]
    31a0:	c6 22 20 44 	st  %g3, [ %o0 + 0x44 ]
    31a4:	c8 22 20 48 	st  %g4, [ %o0 + 0x48 ]
    31a8:	ca 22 20 4c 	st  %g5, [ %o0 + 0x4c ]
    31ac:	c4 1a 60 30 	ldd  [ %o1 + 0x30 ], %g2
    31b0:	c8 1a 60 38 	ldd  [ %o1 + 0x38 ], %g4
    31b4:	c4 22 20 30 	st  %g2, [ %o0 + 0x30 ]
    31b8:	c6 22 20 34 	st  %g3, [ %o0 + 0x34 ]
    31bc:	c8 22 20 38 	st  %g4, [ %o0 + 0x38 ]
    31c0:	ca 22 20 3c 	st  %g5, [ %o0 + 0x3c ]
    31c4:	c4 1a 60 20 	ldd  [ %o1 + 0x20 ], %g2
    31c8:	c8 1a 60 28 	ldd  [ %o1 + 0x28 ], %g4
    31cc:	c4 22 20 20 	st  %g2, [ %o0 + 0x20 ]
    31d0:	c6 22 20 24 	st  %g3, [ %o0 + 0x24 ]
    31d4:	c8 22 20 28 	st  %g4, [ %o0 + 0x28 ]
    31d8:	ca 22 20 2c 	st  %g5, [ %o0 + 0x2c ]
    31dc:	c4 1a 60 10 	ldd  [ %o1 + 0x10 ], %g2
    31e0:	c8 1a 60 18 	ldd  [ %o1 + 0x18 ], %g4
    31e4:	c4 22 20 10 	st  %g2, [ %o0 + 0x10 ]
    31e8:	c6 22 20 14 	st  %g3, [ %o0 + 0x14 ]
    31ec:	c8 22 20 18 	st  %g4, [ %o0 + 0x18 ]
    31f0:	ca 22 20 1c 	st  %g5, [ %o0 + 0x1c ]
    31f4:	c4 1a 60 00 	ldd  [ %o1 ], %g2
    31f8:	c8 1a 60 08 	ldd  [ %o1 + 8 ], %g4
    31fc:	c4 22 20 00 	st  %g2, [ %o0 ]
    3200:	c6 22 20 04 	st  %g3, [ %o0 + 4 ]
    3204:	c8 22 20 08 	st  %g4, [ %o0 + 8 ]
    3208:	ca 22 20 0c 	st  %g5, [ %o0 + 0xc ]
    320c:	02 80 00 07 	be  3228 <__GI_memmove+0x22c>
    3210:	80 88 60 04 	btst  4, %g1
    3214:	c4 1a 7f f8 	ldd  [ %o1 + -8 ], %g2
    3218:	90 22 20 08 	sub  %o0, 8, %o0
    321c:	92 22 60 08 	sub  %o1, 8, %o1
    3220:	c4 22 00 00 	st  %g2, [ %o0 ]
    3224:	c6 22 20 04 	st  %g3, [ %o0 + 4 ]
    3228:	02 80 00 06 	be  3240 <__GI_memmove+0x244>
    322c:	80 88 60 02 	btst  2, %g1
    3230:	c4 02 7f fc 	ld  [ %o1 + -4 ], %g2
    3234:	92 22 60 04 	sub  %o1, 4, %o1
    3238:	c4 22 3f fc 	st  %g2, [ %o0 + -4 ]
    323c:	90 22 20 04 	sub  %o0, 4, %o0
    3240:	02 80 00 06 	be  3258 <__GI_memmove+0x25c>
    3244:	80 88 60 01 	btst  1, %g1
    3248:	c4 12 7f fe 	lduh  [ %o1 + -2 ], %g2
    324c:	92 22 60 02 	sub  %o1, 2, %o1
    3250:	c4 32 3f fe 	sth  %g2, [ %o0 + -2 ]
    3254:	90 22 20 02 	sub  %o0, 2, %o0
    3258:	02 80 00 04 	be  3268 <__GI_memmove+0x26c>
    325c:	01 00 00 00 	nop 
    3260:	c4 0a 7f ff 	ldub  [ %o1 + -1 ], %g2
    3264:	c4 2a 3f ff 	stb  %g2, [ %o0 + -1 ]
    3268:	81 c3 e0 08 	retl 
    326c:	d0 03 a0 40 	ld  [ %sp + 0x40 ], %o0
    3270:	d4 1a 7f e0 	ldd  [ %o1 + -32 ], %o2
    3274:	d8 1a 7f e8 	ldd  [ %o1 + -24 ], %o4
    3278:	c4 1a 7f f0 	ldd  [ %o1 + -16 ], %g2
    327c:	c8 1a 7f f8 	ldd  [ %o1 + -8 ], %g4
    3280:	d4 3a 3f e0 	std  %o2, [ %o0 + -32 ]
    3284:	d8 3a 3f e8 	std  %o4, [ %o0 + -24 ]
    3288:	c4 3a 3f f0 	std  %g2, [ %o0 + -16 ]
    328c:	c8 3a 3f f8 	std  %g4, [ %o0 + -8 ]
    3290:	d4 1a 7f c0 	ldd  [ %o1 + -64 ], %o2
    3294:	d8 1a 7f c8 	ldd  [ %o1 + -56 ], %o4
    3298:	c4 1a 7f d0 	ldd  [ %o1 + -48 ], %g2
    329c:	c8 1a 7f d8 	ldd  [ %o1 + -40 ], %g4
    32a0:	d4 3a 3f c0 	std  %o2, [ %o0 + -64 ]
    32a4:	d8 3a 3f c8 	std  %o4, [ %o0 + -56 ]
    32a8:	c4 3a 3f d0 	std  %g2, [ %o0 + -48 ]
    32ac:	c8 3a 3f d8 	std  %g4, [ %o0 + -40 ]
    32b0:	d4 1a 7f a0 	ldd  [ %o1 + -96 ], %o2
    32b4:	d8 1a 7f a8 	ldd  [ %o1 + -88 ], %o4
    32b8:	c4 1a 7f b0 	ldd  [ %o1 + -80 ], %g2
    32bc:	c8 1a 7f b8 	ldd  [ %o1 + -72 ], %g4
    32c0:	d4 3a 3f a0 	std  %o2, [ %o0 + -96 ]
    32c4:	d8 3a 3f a8 	std  %o4, [ %o0 + -88 ]
    32c8:	c4 3a 3f b0 	std  %g2, [ %o0 + -80 ]
    32cc:	c8 3a 3f b8 	std  %g4, [ %o0 + -72 ]
    32d0:	d4 1a 7f 80 	ldd  [ %o1 + -128 ], %o2
    32d4:	d8 1a 7f 88 	ldd  [ %o1 + -120 ], %o4
    32d8:	c4 1a 7f 90 	ldd  [ %o1 + -112 ], %g2
    32dc:	c8 1a 7f 98 	ldd  [ %o1 + -104 ], %g4
    32e0:	d4 3a 3f 80 	std  %o2, [ %o0 + -128 ]
    32e4:	d8 3a 3f 88 	std  %o4, [ %o0 + -120 ]
    32e8:	c4 3a 3f 90 	std  %g2, [ %o0 + -112 ]
    32ec:	c8 3a 3f 98 	std  %g4, [ %o0 + -104 ]
    32f0:	8c a1 a0 80 	subcc  %g6, 0x80, %g6
    32f4:	92 22 60 80 	sub  %o1, 0x80, %o1
    32f8:	12 bf ff de 	bne  3270 <__GI_memmove+0x274>
    32fc:	90 22 20 80 	sub  %o0, 0x80, %o0
    3300:	8c 88 60 70 	andcc  %g1, 0x70, %g6
    3304:	02 bf ff c2 	be  320c <__GI_memmove+0x210>
    3308:	80 88 60 08 	btst  8, %g1
    330c:	99 31 a0 01 	srl  %g6, 1, %o4
    3310:	84 10 00 0f 	mov  %o7, %g2
    3314:	98 01 80 0c 	add  %g6, %o4, %o4
    3318:	40 00 04 cb 	call  4644 <__GI_memcpy+0x1064>
    331c:	92 22 40 06 	sub  %o1, %g6, %o1
    3320:	9e 10 00 02 	mov  %g2, %o7
    3324:	81 c3 7e f4 	jmp  %o5 + -268
    3328:	90 22 00 06 	sub  %o0, %g6, %o0
    332c:	96 0a a0 0e 	and  %o2, 0xe, %o3
    3330:	84 10 00 0f 	mov  %o7, %g2
    3334:	99 2a e0 03 	sll  %o3, 3, %o4
    3338:	90 22 00 0b 	sub  %o0, %o3, %o0
    333c:	40 00 04 c2 	call  4644 <__GI_memcpy+0x1064>
    3340:	92 22 40 0b 	sub  %o1, %o3, %o1
    3344:	9e 10 00 02 	mov  %g2, %o7
    3348:	81 c3 60 84 	jmp  %o5 + 0x84
    334c:	80 8a a0 01 	btst  1, %o2
    3350:	c4 0a 60 0c 	ldub  [ %o1 + 0xc ], %g2
    3354:	c6 0a 60 0d 	ldub  [ %o1 + 0xd ], %g3
    3358:	c4 2a 20 0c 	stb  %g2, [ %o0 + 0xc ]
    335c:	c6 2a 20 0d 	stb  %g3, [ %o0 + 0xd ]
    3360:	c4 0a 60 0a 	ldub  [ %o1 + 0xa ], %g2
    3364:	c6 0a 60 0b 	ldub  [ %o1 + 0xb ], %g3
    3368:	c4 2a 20 0a 	stb  %g2, [ %o0 + 0xa ]
    336c:	c6 2a 20 0b 	stb  %g3, [ %o0 + 0xb ]
    3370:	c4 0a 60 08 	ldub  [ %o1 + 8 ], %g2
    3374:	c6 0a 60 09 	ldub  [ %o1 + 9 ], %g3
    3378:	c4 2a 20 08 	stb  %g2, [ %o0 + 8 ]
    337c:	c6 2a 20 09 	stb  %g3, [ %o0 + 9 ]
    3380:	c4 0a 60 06 	ldub  [ %o1 + 6 ], %g2
    3384:	c6 0a 60 07 	ldub  [ %o1 + 7 ], %g3
    3388:	c4 2a 20 06 	stb  %g2, [ %o0 + 6 ]
    338c:	c6 2a 20 07 	stb  %g3, [ %o0 + 7 ]
    3390:	c4 0a 60 04 	ldub  [ %o1 + 4 ], %g2
    3394:	c6 0a 60 05 	ldub  [ %o1 + 5 ], %g3
    3398:	c4 2a 20 04 	stb  %g2, [ %o0 + 4 ]
    339c:	c6 2a 20 05 	stb  %g3, [ %o0 + 5 ]
    33a0:	c4 0a 60 02 	ldub  [ %o1 + 2 ], %g2
    33a4:	c6 0a 60 03 	ldub  [ %o1 + 3 ], %g3
    33a8:	c4 2a 20 02 	stb  %g2, [ %o0 + 2 ]
    33ac:	c6 2a 20 03 	stb  %g3, [ %o0 + 3 ]
    33b0:	c4 0a 60 00 	ldub  [ %o1 ], %g2
    33b4:	c6 0a 60 01 	ldub  [ %o1 + 1 ], %g3
    33b8:	c4 2a 20 00 	stb  %g2, [ %o0 ]
    33bc:	c6 2a 20 01 	stb  %g3, [ %o0 + 1 ]
    33c0:	02 80 00 04 	be  33d0 <__GI_memmove+0x3d4>
    33c4:	01 00 00 00 	nop 
    33c8:	c4 0a 7f ff 	ldub  [ %o1 + -1 ], %g2
    33cc:	c4 2a 3f ff 	stb  %g2, [ %o0 + -1 ]
    33d0:	81 c3 e0 08 	retl 
    33d4:	d0 03 a0 40 	ld  [ %sp + 0x40 ], %o0
    33d8:	12 bf ff d5 	bne  332c <__GI_memmove+0x330>
    33dc:	80 8a a0 08 	btst  8, %o2
    33e0:	02 80 00 08 	be  3400 <__GI_memmove+0x404>
    33e4:	80 8a a0 04 	btst  4, %o2
    33e8:	c4 02 7f f8 	ld  [ %o1 + -8 ], %g2
    33ec:	c6 02 7f fc 	ld  [ %o1 + -4 ], %g3
    33f0:	92 22 60 08 	sub  %o1, 8, %o1
    33f4:	c4 22 3f f8 	st  %g2, [ %o0 + -8 ]
    33f8:	c6 22 3f fc 	st  %g3, [ %o0 + -4 ]
    33fc:	90 22 20 08 	sub  %o0, 8, %o0
    3400:	10 bf ff 8a 	b  3228 <__GI_memmove+0x22c>
    3404:	82 10 00 0a 	mov  %o2, %g1
    3408:	80 a2 a0 0f 	cmp  %o2, 0xf
    340c:	08 bf ff c8 	bleu  332c <__GI_memmove+0x330>
    3410:	80 8a 20 03 	btst  3, %o0
    3414:	02 80 00 11 	be  3458 <__GI_memmove+0x45c>
    3418:	80 8a 20 01 	btst  1, %o0
    341c:	02 80 00 08 	be  343c <__GI_memmove+0x440>
    3420:	80 8a 20 02 	btst  2, %o0
    3424:	ca 0a 7f ff 	ldub  [ %o1 + -1 ], %g5
    3428:	92 22 60 01 	dec  %o1
    342c:	ca 2a 3f ff 	stb  %g5, [ %o0 + -1 ]
    3430:	90 22 20 01 	dec  %o0
    3434:	02 80 00 09 	be  3458 <__GI_memmove+0x45c>
    3438:	94 22 a0 01 	dec  %o2
    343c:	ca 0a 7f ff 	ldub  [ %o1 + -1 ], %g5
    3440:	92 22 60 02 	sub  %o1, 2, %o1
    3444:	ca 2a 3f ff 	stb  %g5, [ %o0 + -1 ]
    3448:	90 22 20 02 	sub  %o0, 2, %o0
    344c:	ca 0a 40 00 	ldub  [ %o1 ], %g5
    3450:	94 22 a0 02 	sub  %o2, 2, %o2
    3454:	ca 2a 00 00 	stb  %g5, [ %o0 ]
    3458:	84 0a 60 03 	and  %o1, 3, %g2
    345c:	92 0a 7f fc 	and  %o1, -4, %o1
    3460:	86 0a a0 0c 	and  %o2, 0xc, %g3
    3464:	92 02 60 04 	add  %o1, 4, %o1
    3468:	80 a0 e0 04 	cmp  %g3, 4
    346c:	89 28 a0 03 	sll  %g2, 3, %g4
    3470:	84 10 20 20 	mov  0x20, %g2
    3474:	02 80 00 18 	be  34d4 <__GI_memmove+0x4d8>
    3478:	8c 20 80 04 	sub  %g2, %g4, %g6
    347c:	0a 80 00 10 	bcs  34bc <__GI_memmove+0x4c0>
    3480:	80 a0 e0 08 	cmp  %g3, 8
    3484:	02 80 00 08 	be  34a4 <__GI_memmove+0x4a8>
    3488:	87 32 a0 02 	srl  %o2, 2, %g3
    348c:	d6 02 7f fc 	ld  [ %o1 + -4 ], %o3
    3490:	90 02 3f f8 	add  %o0, -8, %o0
    3494:	d8 02 7f f8 	ld  [ %o1 + -8 ], %o4
    3498:	92 02 7f f0 	add  %o1, -16, %o1
    349c:	10 80 00 1e 	b  3514 <__GI_memmove+0x518>
    34a0:	86 00 e0 01 	inc  %g3
    34a4:	d8 02 7f fc 	ld  [ %o1 + -4 ], %o4
    34a8:	90 02 3f fc 	add  %o0, -4, %o0
    34ac:	c2 02 7f f8 	ld  [ %o1 + -8 ], %g1
    34b0:	92 02 7f f4 	add  %o1, -12, %o1
    34b4:	10 80 00 1d 	b  3528 <__GI_memmove+0x52c>
    34b8:	86 00 e0 02 	add  %g3, 2, %g3
    34bc:	da 02 7f fc 	ld  [ %o1 + -4 ], %o5
    34c0:	90 02 3f f4 	add  %o0, -12, %o0
    34c4:	d6 02 7f f8 	ld  [ %o1 + -8 ], %o3
    34c8:	92 02 7f ec 	add  %o1, -20, %o1
    34cc:	10 80 00 0d 	b  3500 <__GI_memmove+0x504>
    34d0:	87 32 a0 02 	srl  %o2, 2, %g3
    34d4:	c2 02 7f fc 	ld  [ %o1 + -4 ], %g1
    34d8:	87 32 a0 02 	srl  %o2, 2, %g3
    34dc:	da 02 7f f8 	ld  [ %o1 + -8 ], %o5
    34e0:	92 02 7f e8 	add  %o1, -24, %o1
    34e4:	90 02 3f f0 	add  %o0, -16, %o0
    34e8:	86 00 ff ff 	add  %g3, -1, %g3
    34ec:	d6 02 60 0c 	ld  [ %o1 + 0xc ], %o3
    34f0:	85 2b 40 04 	sll  %o5, %g4, %g2
    34f4:	8b 30 40 06 	srl  %g1, %g6, %g5
    34f8:	84 10 80 05 	or  %g2, %g5, %g2
    34fc:	c4 22 20 0c 	st  %g2, [ %o0 + 0xc ]
    3500:	d8 02 60 08 	ld  [ %o1 + 8 ], %o4
    3504:	85 2a c0 04 	sll  %o3, %g4, %g2
    3508:	8b 33 40 06 	srl  %o5, %g6, %g5
    350c:	84 10 80 05 	or  %g2, %g5, %g2
    3510:	c4 22 20 08 	st  %g2, [ %o0 + 8 ]
    3514:	c2 02 60 04 	ld  [ %o1 + 4 ], %g1
    3518:	85 2b 00 04 	sll  %o4, %g4, %g2
    351c:	8b 32 c0 06 	srl  %o3, %g6, %g5
    3520:	84 10 80 05 	or  %g2, %g5, %g2
    3524:	c4 22 20 04 	st  %g2, [ %o0 + 4 ]
    3528:	da 02 40 00 	ld  [ %o1 ], %o5
    352c:	85 28 40 04 	sll  %g1, %g4, %g2
    3530:	8b 33 00 06 	srl  %o4, %g6, %g5
    3534:	86 80 ff fc 	addcc  %g3, -4, %g3
    3538:	84 10 80 05 	or  %g2, %g5, %g2
    353c:	92 02 7f f0 	add  %o1, -16, %o1
    3540:	c4 22 00 00 	st  %g2, [ %o0 ]
    3544:	90 02 3f f0 	add  %o0, -16, %o0
    3548:	32 bf ff ea 	bne,a   34f0 <__GI_memmove+0x4f4>
    354c:	d6 02 60 0c 	ld  [ %o1 + 0xc ], %o3
    3550:	85 2b 40 04 	sll  %o5, %g4, %g2
    3554:	8b 30 40 06 	srl  %g1, %g6, %g5
    3558:	87 31 20 03 	srl  %g4, 3, %g3
    355c:	84 10 80 05 	or  %g2, %g5, %g2
    3560:	92 02 40 03 	add  %o1, %g3, %o1
    3564:	80 8a a0 02 	btst  2, %o2
    3568:	c4 22 20 0c 	st  %g2, [ %o0 + 0xc ]
    356c:	02 80 00 08 	be  358c <__GI_memmove+0x590>
    3570:	80 8a a0 01 	btst  1, %o2
    3574:	ca 0a 60 0f 	ldub  [ %o1 + 0xf ], %g5
    3578:	92 02 7f fe 	add  %o1, -2, %o1
    357c:	ca 2a 20 0b 	stb  %g5, [ %o0 + 0xb ]
    3580:	90 02 3f fe 	add  %o0, -2, %o0
    3584:	ca 0a 60 10 	ldub  [ %o1 + 0x10 ], %g5
    3588:	ca 2a 20 0c 	stb  %g5, [ %o0 + 0xc ]
    358c:	02 80 00 04 	be  359c <__GI_memmove+0x5a0>
    3590:	01 00 00 00 	nop 
    3594:	ca 0a 60 0f 	ldub  [ %o1 + 0xf ], %g5
    3598:	ca 2a 20 0b 	stb  %g5, [ %o0 + 0xb ]
    359c:	81 c3 e0 08 	retl 
    35a0:	d0 03 a0 40 	ld  [ %sp + 0x40 ], %o0
    35a4:	80 8a 60 01 	btst  1, %o1
    35a8:	02 80 00 08 	be  35c8 <__GI_memmove+0x5cc>
    35ac:	80 8a 60 02 	btst  2, %o1
    35b0:	c4 0a 40 00 	ldub  [ %o1 ], %g2
    35b4:	92 02 60 01 	inc  %o1
    35b8:	c4 2a 00 00 	stb  %g2, [ %o0 ]
    35bc:	94 22 a0 01 	dec  %o2
    35c0:	12 80 00 10 	bne  3600 <__GI_memcpy+0x20>
    35c4:	90 02 20 01 	inc  %o0
    35c8:	c4 12 40 00 	lduh  [ %o1 ], %g2
    35cc:	92 02 60 02 	add  %o1, 2, %o1
    35d0:	c4 32 00 00 	sth  %g2, [ %o0 ]
    35d4:	94 22 a0 02 	sub  %o2, 2, %o2
    35d8:	10 80 00 0a 	b  3600 <__GI_memcpy+0x20>
    35dc:	90 02 20 02 	add  %o0, 2, %o0

000035e0 <__GI_memcpy>:
    35e0:	98 22 00 09 	sub  %o0, %o1, %o4
    35e4:	d0 23 a0 40 	st  %o0, [ %sp + 0x40 ]
    35e8:	9a 8b 20 03 	andcc  %o4, 3, %o5
    35ec:	12 80 00 f4 	bne  39bc <__GI_memcpy+0x3dc>
    35f0:	80 a2 a0 0f 	cmp  %o2, 0xf
    35f4:	08 80 04 08 	bleu  4614 <__GI_memcpy+0x1034>
    35f8:	80 8a 60 03 	btst  3, %o1
    35fc:	12 bf ff ea 	bne  35a4 <__GI_memmove+0x5a8>
    3600:	80 8a 60 04 	btst  4, %o1
    3604:	02 80 00 07 	be  3620 <__GI_memcpy+0x40>
    3608:	82 10 00 0a 	mov  %o2, %g1
    360c:	d8 02 40 00 	ld  [ %o1 ], %o4
    3610:	82 20 60 04 	sub  %g1, 4, %g1
    3614:	d8 22 00 00 	st  %o4, [ %o0 ]
    3618:	92 02 60 04 	add  %o1, 4, %o1
    361c:	90 02 20 04 	add  %o0, 4, %o0
    3620:	8c 88 7f 80 	andcc  %g1, -128, %g6
    3624:	02 80 00 37 	be  3700 <__GI_memcpy+0x120>
    3628:	80 8a 20 04 	btst  4, %o0
    362c:	02 80 00 84 	be  383c <__GI_memcpy+0x25c>
    3630:	d4 1a 60 00 	ldd  [ %o1 ], %o2
    3634:	d8 1a 60 08 	ldd  [ %o1 + 8 ], %o4
    3638:	c4 1a 60 10 	ldd  [ %o1 + 0x10 ], %g2
    363c:	c8 1a 60 18 	ldd  [ %o1 + 0x18 ], %g4
    3640:	d4 22 20 00 	st  %o2, [ %o0 ]
    3644:	d6 22 20 04 	st  %o3, [ %o0 + 4 ]
    3648:	d8 22 20 08 	st  %o4, [ %o0 + 8 ]
    364c:	da 22 20 0c 	st  %o5, [ %o0 + 0xc ]
    3650:	c4 22 20 10 	st  %g2, [ %o0 + 0x10 ]
    3654:	c6 22 20 14 	st  %g3, [ %o0 + 0x14 ]
    3658:	c8 22 20 18 	st  %g4, [ %o0 + 0x18 ]
    365c:	ca 22 20 1c 	st  %g5, [ %o0 + 0x1c ]
    3660:	d4 1a 60 20 	ldd  [ %o1 + 0x20 ], %o2
    3664:	d8 1a 60 28 	ldd  [ %o1 + 0x28 ], %o4
    3668:	c4 1a 60 30 	ldd  [ %o1 + 0x30 ], %g2
    366c:	c8 1a 60 38 	ldd  [ %o1 + 0x38 ], %g4
    3670:	d4 22 20 20 	st  %o2, [ %o0 + 0x20 ]
    3674:	d6 22 20 24 	st  %o3, [ %o0 + 0x24 ]
    3678:	d8 22 20 28 	st  %o4, [ %o0 + 0x28 ]
    367c:	da 22 20 2c 	st  %o5, [ %o0 + 0x2c ]
    3680:	c4 22 20 30 	st  %g2, [ %o0 + 0x30 ]
    3684:	c6 22 20 34 	st  %g3, [ %o0 + 0x34 ]
    3688:	c8 22 20 38 	st  %g4, [ %o0 + 0x38 ]
    368c:	ca 22 20 3c 	st  %g5, [ %o0 + 0x3c ]
    3690:	d4 1a 60 40 	ldd  [ %o1 + 0x40 ], %o2
    3694:	d8 1a 60 48 	ldd  [ %o1 + 0x48 ], %o4
    3698:	c4 1a 60 50 	ldd  [ %o1 + 0x50 ], %g2
    369c:	c8 1a 60 58 	ldd  [ %o1 + 0x58 ], %g4
    36a0:	d4 22 20 40 	st  %o2, [ %o0 + 0x40 ]
    36a4:	d6 22 20 44 	st  %o3, [ %o0 + 0x44 ]
    36a8:	d8 22 20 48 	st  %o4, [ %o0 + 0x48 ]
    36ac:	da 22 20 4c 	st  %o5, [ %o0 + 0x4c ]
    36b0:	c4 22 20 50 	st  %g2, [ %o0 + 0x50 ]
    36b4:	c6 22 20 54 	st  %g3, [ %o0 + 0x54 ]
    36b8:	c8 22 20 58 	st  %g4, [ %o0 + 0x58 ]
    36bc:	ca 22 20 5c 	st  %g5, [ %o0 + 0x5c ]
    36c0:	d4 1a 60 60 	ldd  [ %o1 + 0x60 ], %o2
    36c4:	d8 1a 60 68 	ldd  [ %o1 + 0x68 ], %o4
    36c8:	c4 1a 60 70 	ldd  [ %o1 + 0x70 ], %g2
    36cc:	c8 1a 60 78 	ldd  [ %o1 + 0x78 ], %g4
    36d0:	d4 22 20 60 	st  %o2, [ %o0 + 0x60 ]
    36d4:	d6 22 20 64 	st  %o3, [ %o0 + 0x64 ]
    36d8:	d8 22 20 68 	st  %o4, [ %o0 + 0x68 ]
    36dc:	da 22 20 6c 	st  %o5, [ %o0 + 0x6c ]
    36e0:	c4 22 20 70 	st  %g2, [ %o0 + 0x70 ]
    36e4:	c6 22 20 74 	st  %g3, [ %o0 + 0x74 ]
    36e8:	c8 22 20 78 	st  %g4, [ %o0 + 0x78 ]
    36ec:	ca 22 20 7c 	st  %g5, [ %o0 + 0x7c ]
    36f0:	8c a1 a0 80 	subcc  %g6, 0x80, %g6
    36f4:	92 02 60 80 	add  %o1, 0x80, %o1
    36f8:	12 bf ff ce 	bne  3630 <__GI_memcpy+0x50>
    36fc:	90 02 20 80 	add  %o0, 0x80, %o0
    3700:	8c 88 60 70 	andcc  %g1, 0x70, %g6
    3704:	02 80 00 34 	be  37d4 <__GI_memcpy+0x1f4>
    3708:	80 88 60 08 	btst  8, %g1
    370c:	99 31 a0 01 	srl  %g6, 1, %o4
    3710:	84 10 00 0f 	mov  %o7, %g2
    3714:	98 01 80 0c 	add  %g6, %o4, %o4
    3718:	92 02 40 06 	add  %o1, %g6, %o1
    371c:	40 00 03 ca 	call  4644 <__GI_memcpy+0x1064>
    3720:	90 02 00 06 	add  %o0, %g6, %o0
    3724:	81 c3 60 b8 	jmp  %o5 + 0xb8
    3728:	9e 10 00 02 	mov  %g2, %o7
    372c:	c4 1a 7f 90 	ldd  [ %o1 + -112 ], %g2
    3730:	c8 1a 7f 98 	ldd  [ %o1 + -104 ], %g4
    3734:	c4 22 3f 90 	st  %g2, [ %o0 + -112 ]
    3738:	c6 22 3f 94 	st  %g3, [ %o0 + -108 ]
    373c:	c8 22 3f 98 	st  %g4, [ %o0 + -104 ]
    3740:	ca 22 3f 9c 	st  %g5, [ %o0 + -100 ]
    3744:	c4 1a 7f a0 	ldd  [ %o1 + -96 ], %g2
    3748:	c8 1a 7f a8 	ldd  [ %o1 + -88 ], %g4
    374c:	c4 22 3f a0 	st  %g2, [ %o0 + -96 ]
    3750:	c6 22 3f a4 	st  %g3, [ %o0 + -92 ]
    3754:	c8 22 3f a8 	st  %g4, [ %o0 + -88 ]
    3758:	ca 22 3f ac 	st  %g5, [ %o0 + -84 ]
    375c:	c4 1a 7f b0 	ldd  [ %o1 + -80 ], %g2
    3760:	c8 1a 7f b8 	ldd  [ %o1 + -72 ], %g4
    3764:	c4 22 3f b0 	st  %g2, [ %o0 + -80 ]
    3768:	c6 22 3f b4 	st  %g3, [ %o0 + -76 ]
    376c:	c8 22 3f b8 	st  %g4, [ %o0 + -72 ]
    3770:	ca 22 3f bc 	st  %g5, [ %o0 + -68 ]
    3774:	c4 1a 7f c0 	ldd  [ %o1 + -64 ], %g2
    3778:	c8 1a 7f c8 	ldd  [ %o1 + -56 ], %g4
    377c:	c4 22 3f c0 	st  %g2, [ %o0 + -64 ]
    3780:	c6 22 3f c4 	st  %g3, [ %o0 + -60 ]
    3784:	c8 22 3f c8 	st  %g4, [ %o0 + -56 ]
    3788:	ca 22 3f cc 	st  %g5, [ %o0 + -52 ]
    378c:	c4 1a 7f d0 	ldd  [ %o1 + -48 ], %g2
    3790:	c8 1a 7f d8 	ldd  [ %o1 + -40 ], %g4
    3794:	c4 22 3f d0 	st  %g2, [ %o0 + -48 ]
    3798:	c6 22 3f d4 	st  %g3, [ %o0 + -44 ]
    379c:	c8 22 3f d8 	st  %g4, [ %o0 + -40 ]
    37a0:	ca 22 3f dc 	st  %g5, [ %o0 + -36 ]
    37a4:	c4 1a 7f e0 	ldd  [ %o1 + -32 ], %g2
    37a8:	c8 1a 7f e8 	ldd  [ %o1 + -24 ], %g4
    37ac:	c4 22 3f e0 	st  %g2, [ %o0 + -32 ]
    37b0:	c6 22 3f e4 	st  %g3, [ %o0 + -28 ]
    37b4:	c8 22 3f e8 	st  %g4, [ %o0 + -24 ]
    37b8:	ca 22 3f ec 	st  %g5, [ %o0 + -20 ]
    37bc:	c4 1a 7f f0 	ldd  [ %o1 + -16 ], %g2
    37c0:	c8 1a 7f f8 	ldd  [ %o1 + -8 ], %g4
    37c4:	c4 22 3f f0 	st  %g2, [ %o0 + -16 ]
    37c8:	c6 22 3f f4 	st  %g3, [ %o0 + -12 ]
    37cc:	c8 22 3f f8 	st  %g4, [ %o0 + -8 ]
    37d0:	ca 22 3f fc 	st  %g5, [ %o0 + -4 ]
    37d4:	02 80 00 07 	be  37f0 <__GI_memcpy+0x210>
    37d8:	80 88 60 04 	btst  4, %g1
    37dc:	c4 1a 40 00 	ldd  [ %o1 ], %g2
    37e0:	90 02 20 08 	add  %o0, 8, %o0
    37e4:	c4 22 3f f8 	st  %g2, [ %o0 + -8 ]
    37e8:	92 02 60 08 	add  %o1, 8, %o1
    37ec:	c6 22 3f fc 	st  %g3, [ %o0 + -4 ]
    37f0:	02 80 00 06 	be  3808 <__GI_memcpy+0x228>
    37f4:	80 88 60 02 	btst  2, %g1
    37f8:	c4 02 40 00 	ld  [ %o1 ], %g2
    37fc:	92 02 60 04 	add  %o1, 4, %o1
    3800:	c4 22 00 00 	st  %g2, [ %o0 ]
    3804:	90 02 20 04 	add  %o0, 4, %o0
    3808:	02 80 00 06 	be  3820 <__GI_memcpy+0x240>
    380c:	80 88 60 01 	btst  1, %g1
    3810:	c4 12 40 00 	lduh  [ %o1 ], %g2
    3814:	92 02 60 02 	add  %o1, 2, %o1
    3818:	c4 32 00 00 	sth  %g2, [ %o0 ]
    381c:	90 02 20 02 	add  %o0, 2, %o0
    3820:	02 80 00 04 	be  3830 <__GI_memcpy+0x250>
    3824:	01 00 00 00 	nop 
    3828:	c4 0a 40 00 	ldub  [ %o1 ], %g2
    382c:	c4 2a 00 00 	stb  %g2, [ %o0 ]
    3830:	81 c3 e0 08 	retl 
    3834:	d0 03 a0 40 	ld  [ %sp + 0x40 ], %o0
    3838:	d4 1a 60 00 	ldd  [ %o1 ], %o2
    383c:	d8 1a 60 08 	ldd  [ %o1 + 8 ], %o4
    3840:	c4 1a 60 10 	ldd  [ %o1 + 0x10 ], %g2
    3844:	c8 1a 60 18 	ldd  [ %o1 + 0x18 ], %g4
    3848:	d4 3a 20 00 	std  %o2, [ %o0 ]
    384c:	d8 3a 20 08 	std  %o4, [ %o0 + 8 ]
    3850:	c4 3a 20 10 	std  %g2, [ %o0 + 0x10 ]
    3854:	c8 3a 20 18 	std  %g4, [ %o0 + 0x18 ]
    3858:	d4 1a 60 20 	ldd  [ %o1 + 0x20 ], %o2
    385c:	d8 1a 60 28 	ldd  [ %o1 + 0x28 ], %o4
    3860:	c4 1a 60 30 	ldd  [ %o1 + 0x30 ], %g2
    3864:	c8 1a 60 38 	ldd  [ %o1 + 0x38 ], %g4
    3868:	d4 3a 20 20 	std  %o2, [ %o0 + 0x20 ]
    386c:	d8 3a 20 28 	std  %o4, [ %o0 + 0x28 ]
    3870:	c4 3a 20 30 	std  %g2, [ %o0 + 0x30 ]
    3874:	c8 3a 20 38 	std  %g4, [ %o0 + 0x38 ]
    3878:	d4 1a 60 40 	ldd  [ %o1 + 0x40 ], %o2
    387c:	d8 1a 60 48 	ldd  [ %o1 + 0x48 ], %o4
    3880:	c4 1a 60 50 	ldd  [ %o1 + 0x50 ], %g2
    3884:	c8 1a 60 58 	ldd  [ %o1 + 0x58 ], %g4
    3888:	d4 3a 20 40 	std  %o2, [ %o0 + 0x40 ]
    388c:	d8 3a 20 48 	std  %o4, [ %o0 + 0x48 ]
    3890:	c4 3a 20 50 	std  %g2, [ %o0 + 0x50 ]
    3894:	c8 3a 20 58 	std  %g4, [ %o0 + 0x58 ]
    3898:	d4 1a 60 60 	ldd  [ %o1 + 0x60 ], %o2
    389c:	d8 1a 60 68 	ldd  [ %o1 + 0x68 ], %o4
    38a0:	c4 1a 60 70 	ldd  [ %o1 + 0x70 ], %g2
    38a4:	c8 1a 60 78 	ldd  [ %o1 + 0x78 ], %g4
    38a8:	d4 3a 20 60 	std  %o2, [ %o0 + 0x60 ]
    38ac:	d8 3a 20 68 	std  %o4, [ %o0 + 0x68 ]
    38b0:	c4 3a 20 70 	std  %g2, [ %o0 + 0x70 ]
    38b4:	c8 3a 20 78 	std  %g4, [ %o0 + 0x78 ]
    38b8:	8c a1 a0 80 	subcc  %g6, 0x80, %g6
    38bc:	92 02 60 80 	add  %o1, 0x80, %o1
    38c0:	12 bf ff de 	bne  3838 <__GI_memcpy+0x258>
    38c4:	90 02 20 80 	add  %o0, 0x80, %o0
    38c8:	8c 88 60 70 	andcc  %g1, 0x70, %g6
    38cc:	02 80 00 24 	be  395c <__GI_memcpy+0x37c>
    38d0:	80 88 60 08 	btst  8, %g1
    38d4:	84 10 00 0f 	mov  %o7, %g2
    38d8:	40 00 03 5d 	call  464c <__GI_memcpy+0x106c>
    38dc:	92 02 40 06 	add  %o1, %g6, %o1
    38e0:	9e 10 00 02 	mov  %g2, %o7
    38e4:	81 c3 60 84 	jmp  %o5 + 0x84
    38e8:	90 02 00 06 	add  %o0, %g6, %o0
    38ec:	c4 1a 7f 90 	ldd  [ %o1 + -112 ], %g2
    38f0:	c8 1a 7f 98 	ldd  [ %o1 + -104 ], %g4
    38f4:	c4 3a 3f 90 	std  %g2, [ %o0 + -112 ]
    38f8:	c8 3a 3f 98 	std  %g4, [ %o0 + -104 ]
    38fc:	c4 1a 7f a0 	ldd  [ %o1 + -96 ], %g2
    3900:	c8 1a 7f a8 	ldd  [ %o1 + -88 ], %g4
    3904:	c4 3a 3f a0 	std  %g2, [ %o0 + -96 ]
    3908:	c8 3a 3f a8 	std  %g4, [ %o0 + -88 ]
    390c:	c4 1a 7f b0 	ldd  [ %o1 + -80 ], %g2
    3910:	c8 1a 7f b8 	ldd  [ %o1 + -72 ], %g4
    3914:	c4 3a 3f b0 	std  %g2, [ %o0 + -80 ]
    3918:	c8 3a 3f b8 	std  %g4, [ %o0 + -72 ]
    391c:	c4 1a 7f c0 	ldd  [ %o1 + -64 ], %g2
    3920:	c8 1a 7f c8 	ldd  [ %o1 + -56 ], %g4
    3924:	c4 3a 3f c0 	std  %g2, [ %o0 + -64 ]
    3928:	c8 3a 3f c8 	std  %g4, [ %o0 + -56 ]
    392c:	c4 1a 7f d0 	ldd  [ %o1 + -48 ], %g2
    3930:	c8 1a 7f d8 	ldd  [ %o1 + -40 ], %g4
    3934:	c4 3a 3f d0 	std  %g2, [ %o0 + -48 ]
    3938:	c8 3a 3f d8 	std  %g4, [ %o0 + -40 ]
    393c:	c4 1a 7f e0 	ldd  [ %o1 + -32 ], %g2
    3940:	c8 1a 7f e8 	ldd  [ %o1 + -24 ], %g4
    3944:	c4 3a 3f e0 	std  %g2, [ %o0 + -32 ]
    3948:	c8 3a 3f e8 	std  %g4, [ %o0 + -24 ]
    394c:	c4 1a 7f f0 	ldd  [ %o1 + -16 ], %g2
    3950:	c8 1a 7f f8 	ldd  [ %o1 + -8 ], %g4
    3954:	c4 3a 3f f0 	std  %g2, [ %o0 + -16 ]
    3958:	c8 3a 3f f8 	std  %g4, [ %o0 + -8 ]
    395c:	02 80 00 06 	be  3974 <__GI_memcpy+0x394>
    3960:	80 88 60 04 	btst  4, %g1
    3964:	c4 1a 40 00 	ldd  [ %o1 ], %g2
    3968:	90 02 20 08 	add  %o0, 8, %o0
    396c:	c4 3a 3f f8 	std  %g2, [ %o0 + -8 ]
    3970:	92 02 60 08 	add  %o1, 8, %o1
    3974:	02 80 00 06 	be  398c <__GI_memcpy+0x3ac>
    3978:	80 88 60 02 	btst  2, %g1
    397c:	c4 02 40 00 	ld  [ %o1 ], %g2
    3980:	92 02 60 04 	add  %o1, 4, %o1
    3984:	c4 22 00 00 	st  %g2, [ %o0 ]
    3988:	90 02 20 04 	add  %o0, 4, %o0
    398c:	02 80 00 06 	be  39a4 <__GI_memcpy+0x3c4>
    3990:	80 88 60 01 	btst  1, %g1
    3994:	c4 12 40 00 	lduh  [ %o1 ], %g2
    3998:	92 02 60 02 	add  %o1, 2, %o1
    399c:	c4 32 00 00 	sth  %g2, [ %o0 ]
    39a0:	90 02 20 02 	add  %o0, 2, %o0
    39a4:	02 80 00 04 	be  39b4 <__GI_memcpy+0x3d4>
    39a8:	01 00 00 00 	nop 
    39ac:	c4 0a 40 00 	ldub  [ %o1 ], %g2
    39b0:	c4 2a 00 00 	stb  %g2, [ %o0 ]
    39b4:	81 c3 e0 08 	retl 
    39b8:	d0 03 a0 40 	ld  [ %sp + 0x40 ], %o0
    39bc:	80 a2 a0 06 	cmp  %o2, 6
    39c0:	08 80 02 ea 	bleu  4568 <__GI_memcpy+0xf88>
    39c4:	80 a2 a1 00 	cmp  %o2, 0x100
    39c8:	1a 80 00 65 	bcc  3b5c <__GI_memcpy+0x57c>
    39cc:	80 8a 20 03 	btst  3, %o0
    39d0:	02 80 00 11 	be  3a14 <__GI_memcpy+0x434>
    39d4:	80 8a 20 01 	btst  1, %o0
    39d8:	02 80 00 08 	be  39f8 <__GI_memcpy+0x418>
    39dc:	80 8a 20 02 	btst  2, %o0
    39e0:	ca 0a 40 00 	ldub  [ %o1 ], %g5
    39e4:	92 02 60 01 	inc  %o1
    39e8:	ca 2a 00 00 	stb  %g5, [ %o0 ]
    39ec:	94 22 a0 01 	dec  %o2
    39f0:	12 80 00 09 	bne  3a14 <__GI_memcpy+0x434>
    39f4:	90 02 20 01 	inc  %o0
    39f8:	c6 0a 40 00 	ldub  [ %o1 ], %g3
    39fc:	92 02 60 02 	add  %o1, 2, %o1
    3a00:	c6 2a 00 00 	stb  %g3, [ %o0 ]
    3a04:	94 22 a0 02 	sub  %o2, 2, %o2
    3a08:	c6 0a 7f ff 	ldub  [ %o1 + -1 ], %g3
    3a0c:	90 02 20 02 	add  %o0, 2, %o0
    3a10:	c6 2a 3f ff 	stb  %g3, [ %o0 + -1 ]
    3a14:	84 0a 60 03 	and  %o1, 3, %g2
    3a18:	86 0a a0 0c 	and  %o2, 0xc, %g3
    3a1c:	92 0a 7f fc 	and  %o1, -4, %o1
    3a20:	80 a0 e0 04 	cmp  %g3, 4
    3a24:	89 28 a0 03 	sll  %g2, 3, %g4
    3a28:	84 10 20 20 	mov  0x20, %g2
    3a2c:	02 80 00 17 	be  3a88 <__GI_memcpy+0x4a8>
    3a30:	8c 20 80 04 	sub  %g2, %g4, %g6
    3a34:	0a 80 00 0f 	bcs  3a70 <__GI_memcpy+0x490>
    3a38:	80 a0 e0 08 	cmp  %g3, 8
    3a3c:	02 80 00 07 	be  3a58 <__GI_memcpy+0x478>
    3a40:	87 32 a0 02 	srl  %o2, 2, %g3
    3a44:	d6 02 40 00 	ld  [ %o1 ], %o3
    3a48:	90 02 3f f8 	add  %o0, -8, %o0
    3a4c:	d8 02 60 04 	ld  [ %o1 + 4 ], %o4
    3a50:	10 80 00 1f 	b  3acc <__GI_memcpy+0x4ec>
    3a54:	86 00 e0 01 	inc  %g3
    3a58:	d8 02 40 00 	ld  [ %o1 ], %o4
    3a5c:	90 02 3f f4 	add  %o0, -12, %o0
    3a60:	da 02 60 04 	ld  [ %o1 + 4 ], %o5
    3a64:	86 00 e0 02 	add  %g3, 2, %g3
    3a68:	10 80 00 1e 	b  3ae0 <__GI_memcpy+0x500>
    3a6c:	92 02 7f fc 	add  %o1, -4, %o1
    3a70:	c2 02 40 00 	ld  [ %o1 ], %g1
    3a74:	90 02 3f fc 	add  %o0, -4, %o0
    3a78:	d6 02 60 04 	ld  [ %o1 + 4 ], %o3
    3a7c:	87 32 a0 02 	srl  %o2, 2, %g3
    3a80:	10 80 00 0e 	b  3ab8 <__GI_memcpy+0x4d8>
    3a84:	92 02 60 04 	add  %o1, 4, %o1
    3a88:	da 02 40 00 	ld  [ %o1 ], %o5
    3a8c:	80 a2 a0 07 	cmp  %o2, 7
    3a90:	c2 02 60 04 	ld  [ %o1 + 4 ], %g1
    3a94:	87 32 a0 02 	srl  %o2, 2, %g3
    3a98:	08 80 00 1c 	bleu  3b08 <__GI_memcpy+0x528>
    3a9c:	92 02 60 08 	add  %o1, 8, %o1
    3aa0:	d6 02 40 00 	ld  [ %o1 ], %o3
    3aa4:	86 00 ff ff 	add  %g3, -1, %g3
    3aa8:	85 2b 40 04 	sll  %o5, %g4, %g2
    3aac:	8b 30 40 06 	srl  %g1, %g6, %g5
    3ab0:	84 10 80 05 	or  %g2, %g5, %g2
    3ab4:	c4 22 00 00 	st  %g2, [ %o0 ]
    3ab8:	d8 02 60 04 	ld  [ %o1 + 4 ], %o4
    3abc:	85 28 40 04 	sll  %g1, %g4, %g2
    3ac0:	8b 32 c0 06 	srl  %o3, %g6, %g5
    3ac4:	84 10 80 05 	or  %g2, %g5, %g2
    3ac8:	c4 22 20 04 	st  %g2, [ %o0 + 4 ]
    3acc:	da 02 60 08 	ld  [ %o1 + 8 ], %o5
    3ad0:	85 2a c0 04 	sll  %o3, %g4, %g2
    3ad4:	8b 33 00 06 	srl  %o4, %g6, %g5
    3ad8:	84 10 80 05 	or  %g2, %g5, %g2
    3adc:	c4 22 20 08 	st  %g2, [ %o0 + 8 ]
    3ae0:	c2 02 60 0c 	ld  [ %o1 + 0xc ], %g1
    3ae4:	85 2b 00 04 	sll  %o4, %g4, %g2
    3ae8:	8b 33 40 06 	srl  %o5, %g6, %g5
    3aec:	86 80 ff fc 	addcc  %g3, -4, %g3
    3af0:	84 10 80 05 	or  %g2, %g5, %g2
    3af4:	92 02 60 10 	add  %o1, 0x10, %o1
    3af8:	c4 22 20 0c 	st  %g2, [ %o0 + 0xc ]
    3afc:	90 02 20 10 	add  %o0, 0x10, %o0
    3b00:	32 bf ff ea 	bne,a   3aa8 <__GI_memcpy+0x4c8>
    3b04:	d6 02 40 00 	ld  [ %o1 ], %o3
    3b08:	85 2b 40 04 	sll  %o5, %g4, %g2
    3b0c:	8b 30 40 06 	srl  %g1, %g6, %g5
    3b10:	87 31 a0 03 	srl  %g6, 3, %g3
    3b14:	84 10 80 05 	or  %g2, %g5, %g2
    3b18:	92 22 40 03 	sub  %o1, %g3, %o1
    3b1c:	80 8a a0 02 	btst  2, %o2
    3b20:	c4 22 00 00 	st  %g2, [ %o0 ]
    3b24:	02 80 00 08 	be  3b44 <__GI_memcpy+0x564>
    3b28:	80 8a a0 01 	btst  1, %o2
    3b2c:	c4 0a 40 00 	ldub  [ %o1 ], %g2
    3b30:	92 02 60 02 	add  %o1, 2, %o1
    3b34:	c4 2a 20 04 	stb  %g2, [ %o0 + 4 ]
    3b38:	90 02 20 02 	add  %o0, 2, %o0
    3b3c:	c4 0a 7f ff 	ldub  [ %o1 + -1 ], %g2
    3b40:	c4 2a 20 03 	stb  %g2, [ %o0 + 3 ]
    3b44:	02 80 00 04 	be  3b54 <__GI_memcpy+0x574>
    3b48:	01 00 00 00 	nop 
    3b4c:	c4 0a 40 00 	ldub  [ %o1 ], %g2
    3b50:	c4 2a 20 04 	stb  %g2, [ %o0 + 4 ]
    3b54:	81 c3 e0 08 	retl 
    3b58:	d0 03 a0 40 	ld  [ %sp + 0x40 ], %o0
    3b5c:	80 8a 60 03 	btst  3, %o1
    3b60:	02 80 00 11 	be  3ba4 <__GI_memcpy+0x5c4>
    3b64:	80 8a 60 01 	btst  1, %o1
    3b68:	02 80 00 08 	be  3b88 <__GI_memcpy+0x5a8>
    3b6c:	80 8a 60 02 	btst  2, %o1
    3b70:	c4 0a 40 00 	ldub  [ %o1 ], %g2
    3b74:	92 02 60 01 	inc  %o1
    3b78:	c4 2a 00 00 	stb  %g2, [ %o0 ]
    3b7c:	94 22 a0 01 	dec  %o2
    3b80:	12 80 00 09 	bne  3ba4 <__GI_memcpy+0x5c4>
    3b84:	90 02 20 01 	inc  %o0
    3b88:	c4 12 40 00 	lduh  [ %o1 ], %g2
    3b8c:	92 02 60 02 	add  %o1, 2, %o1
    3b90:	87 30 a0 08 	srl  %g2, 8, %g3
    3b94:	94 22 a0 02 	sub  %o2, 2, %o2
    3b98:	c6 2a 00 00 	stb  %g3, [ %o0 ]
    3b9c:	90 02 20 02 	add  %o0, 2, %o0
    3ba0:	c4 2a 3f ff 	stb  %g2, [ %o0 + -1 ]
    3ba4:	80 8a 60 04 	btst  4, %o1
    3ba8:	12 80 00 0d 	bne  3bdc <__GI_memcpy+0x5fc>
    3bac:	80 a3 60 01 	cmp  %o5, 1
    3bb0:	d8 02 40 00 	ld  [ %o1 ], %o4
    3bb4:	85 33 20 18 	srl  %o4, 0x18, %g2
    3bb8:	c4 2a 00 00 	stb  %g2, [ %o0 ]
    3bbc:	87 33 20 10 	srl  %o4, 0x10, %g3
    3bc0:	c6 2a 20 01 	stb  %g3, [ %o0 + 1 ]
    3bc4:	85 33 20 08 	srl  %o4, 8, %g2
    3bc8:	c4 2a 20 02 	stb  %g2, [ %o0 + 2 ]
    3bcc:	94 22 a0 04 	sub  %o2, 4, %o2
    3bd0:	d8 2a 20 03 	stb  %o4, [ %o0 + 3 ]
    3bd4:	92 02 60 04 	add  %o1, 4, %o1
    3bd8:	90 02 20 04 	add  %o0, 4, %o0
    3bdc:	02 80 00 da 	be  3f44 <__GI_memcpy+0x964>
    3be0:	80 a3 60 02 	cmp  %o5, 2
    3be4:	02 80 00 6e 	be  3d9c <__GI_memcpy+0x7bc>
    3be8:	94 22 a0 04 	sub  %o2, 4, %o2
    3bec:	c4 02 40 00 	ld  [ %o1 ], %g2
    3bf0:	92 02 60 04 	add  %o1, 4, %o1
    3bf4:	87 30 a0 18 	srl  %g2, 0x18, %g3
    3bf8:	8a 0a 20 07 	and  %o0, 7, %g5
    3bfc:	c6 2a 00 00 	stb  %g3, [ %o0 ]
    3c00:	80 a1 60 07 	cmp  %g5, 7
    3c04:	83 28 a0 08 	sll  %g2, 8, %g1
    3c08:	90 02 20 04 	add  %o0, 4, %o0
    3c0c:	02 80 01 3b 	be  40f8 <__GI_memcpy+0xb18>
    3c10:	96 0a bf c0 	and  %o2, -64, %o3
    3c14:	d8 02 3f f9 	ld  [ %o0 + -7 ], %o4
    3c18:	c4 1a 60 00 	ldd  [ %o1 ], %g2
    3c1c:	c8 1a 60 08 	ldd  [ %o1 + 8 ], %g4
    3c20:	9b 30 a0 18 	srl  %g2, 0x18, %o5
    3c24:	8d 30 e0 18 	srl  %g3, 0x18, %g6
    3c28:	85 28 a0 08 	sll  %g2, 8, %g2
    3c2c:	9a 13 40 01 	or  %o5, %g1, %o5
    3c30:	83 28 e0 08 	sll  %g3, 8, %g1
    3c34:	84 11 80 02 	or  %g6, %g2, %g2
    3c38:	87 31 20 18 	srl  %g4, 0x18, %g3
    3c3c:	8d 31 60 18 	srl  %g5, 0x18, %g6
    3c40:	89 29 20 08 	sll  %g4, 8, %g4
    3c44:	86 10 c0 01 	or  %g3, %g1, %g3
    3c48:	d8 3a 3f f9 	std  %o4, [ %o0 + -7 ]
    3c4c:	c4 3a 20 01 	std  %g2, [ %o0 + 1 ]
    3c50:	83 29 60 08 	sll  %g5, 8, %g1
    3c54:	98 11 80 04 	or  %g6, %g4, %o4
    3c58:	c4 1a 60 10 	ldd  [ %o1 + 0x10 ], %g2
    3c5c:	c8 1a 60 18 	ldd  [ %o1 + 0x18 ], %g4
    3c60:	9b 30 a0 18 	srl  %g2, 0x18, %o5
    3c64:	8d 30 e0 18 	srl  %g3, 0x18, %g6
    3c68:	85 28 a0 08 	sll  %g2, 8, %g2
    3c6c:	9a 13 40 01 	or  %o5, %g1, %o5
    3c70:	83 28 e0 08 	sll  %g3, 8, %g1
    3c74:	84 11 80 02 	or  %g6, %g2, %g2
    3c78:	87 31 20 18 	srl  %g4, 0x18, %g3
    3c7c:	8d 31 60 18 	srl  %g5, 0x18, %g6
    3c80:	89 29 20 08 	sll  %g4, 8, %g4
    3c84:	86 10 c0 01 	or  %g3, %g1, %g3
    3c88:	d8 3a 20 09 	std  %o4, [ %o0 + 9 ]
    3c8c:	c4 3a 20 11 	std  %g2, [ %o0 + 0x11 ]
    3c90:	83 29 60 08 	sll  %g5, 8, %g1
    3c94:	98 11 80 04 	or  %g6, %g4, %o4
    3c98:	c4 1a 60 20 	ldd  [ %o1 + 0x20 ], %g2
    3c9c:	c8 1a 60 28 	ldd  [ %o1 + 0x28 ], %g4
    3ca0:	9b 30 a0 18 	srl  %g2, 0x18, %o5
    3ca4:	8d 30 e0 18 	srl  %g3, 0x18, %g6
    3ca8:	85 28 a0 08 	sll  %g2, 8, %g2
    3cac:	9a 13 40 01 	or  %o5, %g1, %o5
    3cb0:	83 28 e0 08 	sll  %g3, 8, %g1
    3cb4:	84 11 80 02 	or  %g6, %g2, %g2
    3cb8:	87 31 20 18 	srl  %g4, 0x18, %g3
    3cbc:	8d 31 60 18 	srl  %g5, 0x18, %g6
    3cc0:	89 29 20 08 	sll  %g4, 8, %g4
    3cc4:	86 10 c0 01 	or  %g3, %g1, %g3
    3cc8:	d8 3a 20 19 	std  %o4, [ %o0 + 0x19 ]
    3ccc:	c4 3a 20 21 	std  %g2, [ %o0 + 0x21 ]
    3cd0:	83 29 60 08 	sll  %g5, 8, %g1
    3cd4:	98 11 80 04 	or  %g6, %g4, %o4
    3cd8:	c4 1a 60 30 	ldd  [ %o1 + 0x30 ], %g2
    3cdc:	c8 1a 60 38 	ldd  [ %o1 + 0x38 ], %g4
    3ce0:	9b 30 a0 18 	srl  %g2, 0x18, %o5
    3ce4:	8d 30 e0 18 	srl  %g3, 0x18, %g6
    3ce8:	85 28 a0 08 	sll  %g2, 8, %g2
    3cec:	9a 13 40 01 	or  %o5, %g1, %o5
    3cf0:	83 28 e0 08 	sll  %g3, 8, %g1
    3cf4:	84 11 80 02 	or  %g6, %g2, %g2
    3cf8:	87 31 20 18 	srl  %g4, 0x18, %g3
    3cfc:	8d 31 60 18 	srl  %g5, 0x18, %g6
    3d00:	89 29 20 08 	sll  %g4, 8, %g4
    3d04:	86 10 c0 01 	or  %g3, %g1, %g3
    3d08:	d8 3a 20 29 	std  %o4, [ %o0 + 0x29 ]
    3d0c:	c4 3a 20 31 	std  %g2, [ %o0 + 0x31 ]
    3d10:	83 29 60 08 	sll  %g5, 8, %g1
    3d14:	98 11 80 04 	or  %g6, %g4, %o4
    3d18:	96 a2 e0 40 	subcc  %o3, 0x40, %o3
    3d1c:	92 02 60 40 	add  %o1, 0x40, %o1
    3d20:	12 bf ff be 	bne  3c18 <__GI_memcpy+0x638>
    3d24:	90 02 20 40 	add  %o0, 0x40, %o0
    3d28:	96 8a a0 30 	andcc  %o2, 0x30, %o3
    3d2c:	22 80 00 17 	be,a   3d88 <__GI_memcpy+0x7a8>
    3d30:	85 30 60 10 	srl  %g1, 0x10, %g2
    3d34:	c4 1a 60 00 	ldd  [ %o1 ], %g2
    3d38:	c8 1a 60 08 	ldd  [ %o1 + 8 ], %g4
    3d3c:	9b 30 a0 18 	srl  %g2, 0x18, %o5
    3d40:	8d 30 e0 18 	srl  %g3, 0x18, %g6
    3d44:	85 28 a0 08 	sll  %g2, 8, %g2
    3d48:	9a 13 40 01 	or  %o5, %g1, %o5
    3d4c:	83 28 e0 08 	sll  %g3, 8, %g1
    3d50:	84 11 80 02 	or  %g6, %g2, %g2
    3d54:	87 31 20 18 	srl  %g4, 0x18, %g3
    3d58:	8d 31 60 18 	srl  %g5, 0x18, %g6
    3d5c:	89 29 20 08 	sll  %g4, 8, %g4
    3d60:	86 10 c0 01 	or  %g3, %g1, %g3
    3d64:	d8 3a 3f f9 	std  %o4, [ %o0 + -7 ]
    3d68:	c4 3a 20 01 	std  %g2, [ %o0 + 1 ]
    3d6c:	83 29 60 08 	sll  %g5, 8, %g1
    3d70:	98 11 80 04 	or  %g6, %g4, %o4
    3d74:	96 a2 e0 10 	subcc  %o3, 0x10, %o3
    3d78:	92 02 60 10 	add  %o1, 0x10, %o1
    3d7c:	12 bf ff ee 	bne  3d34 <__GI_memcpy+0x754>
    3d80:	90 02 20 10 	add  %o0, 0x10, %o0
    3d84:	85 30 60 10 	srl  %g1, 0x10, %g2
    3d88:	d8 22 3f f9 	st  %o4, [ %o0 + -7 ]
    3d8c:	c4 32 3f fd 	sth  %g2, [ %o0 + -3 ]
    3d90:	89 30 60 08 	srl  %g1, 8, %g4
    3d94:	10 80 01 f5 	b  4568 <__GI_memcpy+0xf88>
    3d98:	c8 2a 3f ff 	stb  %g4, [ %o0 + -1 ]
    3d9c:	c4 02 40 00 	ld  [ %o1 ], %g2
    3da0:	92 02 60 04 	add  %o1, 4, %o1
    3da4:	87 30 a0 10 	srl  %g2, 0x10, %g3
    3da8:	8a 0a 20 07 	and  %o0, 7, %g5
    3dac:	c6 32 00 00 	sth  %g3, [ %o0 ]
    3db0:	80 a1 60 06 	cmp  %g5, 6
    3db4:	83 28 a0 10 	sll  %g2, 0x10, %g1
    3db8:	90 02 20 04 	add  %o0, 4, %o0
    3dbc:	02 80 01 8e 	be  43f4 <__GI_memcpy+0xe14>
    3dc0:	96 0a bf c0 	and  %o2, -64, %o3
    3dc4:	d8 02 3f fa 	ld  [ %o0 + -6 ], %o4
    3dc8:	c4 1a 60 00 	ldd  [ %o1 ], %g2
    3dcc:	c8 1a 60 08 	ldd  [ %o1 + 8 ], %g4
    3dd0:	9b 30 a0 10 	srl  %g2, 0x10, %o5
    3dd4:	8d 30 e0 10 	srl  %g3, 0x10, %g6
    3dd8:	85 28 a0 10 	sll  %g2, 0x10, %g2
    3ddc:	9a 13 40 01 	or  %o5, %g1, %o5
    3de0:	83 28 e0 10 	sll  %g3, 0x10, %g1
    3de4:	84 11 80 02 	or  %g6, %g2, %g2
    3de8:	87 31 20 10 	srl  %g4, 0x10, %g3
    3dec:	8d 31 60 10 	srl  %g5, 0x10, %g6
    3df0:	89 29 20 10 	sll  %g4, 0x10, %g4
    3df4:	86 10 c0 01 	or  %g3, %g1, %g3
    3df8:	d8 3a 3f fa 	std  %o4, [ %o0 + -6 ]
    3dfc:	c4 3a 20 02 	std  %g2, [ %o0 + 2 ]
    3e00:	83 29 60 10 	sll  %g5, 0x10, %g1
    3e04:	98 11 80 04 	or  %g6, %g4, %o4
    3e08:	c4 1a 60 10 	ldd  [ %o1 + 0x10 ], %g2
    3e0c:	c8 1a 60 18 	ldd  [ %o1 + 0x18 ], %g4
    3e10:	9b 30 a0 10 	srl  %g2, 0x10, %o5
    3e14:	8d 30 e0 10 	srl  %g3, 0x10, %g6
    3e18:	85 28 a0 10 	sll  %g2, 0x10, %g2
    3e1c:	9a 13 40 01 	or  %o5, %g1, %o5
    3e20:	83 28 e0 10 	sll  %g3, 0x10, %g1
    3e24:	84 11 80 02 	or  %g6, %g2, %g2
    3e28:	87 31 20 10 	srl  %g4, 0x10, %g3
    3e2c:	8d 31 60 10 	srl  %g5, 0x10, %g6
    3e30:	89 29 20 10 	sll  %g4, 0x10, %g4
    3e34:	86 10 c0 01 	or  %g3, %g1, %g3
    3e38:	d8 3a 20 0a 	std  %o4, [ %o0 + 0xa ]
    3e3c:	c4 3a 20 12 	std  %g2, [ %o0 + 0x12 ]
    3e40:	83 29 60 10 	sll  %g5, 0x10, %g1
    3e44:	98 11 80 04 	or  %g6, %g4, %o4
    3e48:	c4 1a 60 20 	ldd  [ %o1 + 0x20 ], %g2
    3e4c:	c8 1a 60 28 	ldd  [ %o1 + 0x28 ], %g4
    3e50:	9b 30 a0 10 	srl  %g2, 0x10, %o5
    3e54:	8d 30 e0 10 	srl  %g3, 0x10, %g6
    3e58:	85 28 a0 10 	sll  %g2, 0x10, %g2
    3e5c:	9a 13 40 01 	or  %o5, %g1, %o5
    3e60:	83 28 e0 10 	sll  %g3, 0x10, %g1
    3e64:	84 11 80 02 	or  %g6, %g2, %g2
    3e68:	87 31 20 10 	srl  %g4, 0x10, %g3
    3e6c:	8d 31 60 10 	srl  %g5, 0x10, %g6
    3e70:	89 29 20 10 	sll  %g4, 0x10, %g4
    3e74:	86 10 c0 01 	or  %g3, %g1, %g3
    3e78:	d8 3a 20 1a 	std  %o4, [ %o0 + 0x1a ]
    3e7c:	c4 3a 20 22 	std  %g2, [ %o0 + 0x22 ]
    3e80:	83 29 60 10 	sll  %g5, 0x10, %g1
    3e84:	98 11 80 04 	or  %g6, %g4, %o4
    3e88:	c4 1a 60 30 	ldd  [ %o1 + 0x30 ], %g2
    3e8c:	c8 1a 60 38 	ldd  [ %o1 + 0x38 ], %g4
    3e90:	9b 30 a0 10 	srl  %g2, 0x10, %o5
    3e94:	8d 30 e0 10 	srl  %g3, 0x10, %g6
    3e98:	85 28 a0 10 	sll  %g2, 0x10, %g2
    3e9c:	9a 13 40 01 	or  %o5, %g1, %o5
    3ea0:	83 28 e0 10 	sll  %g3, 0x10, %g1
    3ea4:	84 11 80 02 	or  %g6, %g2, %g2
    3ea8:	87 31 20 10 	srl  %g4, 0x10, %g3
    3eac:	8d 31 60 10 	srl  %g5, 0x10, %g6
    3eb0:	89 29 20 10 	sll  %g4, 0x10, %g4
    3eb4:	86 10 c0 01 	or  %g3, %g1, %g3
    3eb8:	d8 3a 20 2a 	std  %o4, [ %o0 + 0x2a ]
    3ebc:	c4 3a 20 32 	std  %g2, [ %o0 + 0x32 ]
    3ec0:	83 29 60 10 	sll  %g5, 0x10, %g1
    3ec4:	98 11 80 04 	or  %g6, %g4, %o4
    3ec8:	96 a2 e0 40 	subcc  %o3, 0x40, %o3
    3ecc:	92 02 60 40 	add  %o1, 0x40, %o1
    3ed0:	12 bf ff be 	bne  3dc8 <__GI_memcpy+0x7e8>
    3ed4:	90 02 20 40 	add  %o0, 0x40, %o0
    3ed8:	96 8a a0 30 	andcc  %o2, 0x30, %o3
    3edc:	22 80 00 17 	be,a   3f38 <__GI_memcpy+0x958>
    3ee0:	85 30 60 10 	srl  %g1, 0x10, %g2
    3ee4:	c4 1a 60 00 	ldd  [ %o1 ], %g2
    3ee8:	c8 1a 60 08 	ldd  [ %o1 + 8 ], %g4
    3eec:	9b 30 a0 10 	srl  %g2, 0x10, %o5
    3ef0:	8d 30 e0 10 	srl  %g3, 0x10, %g6
    3ef4:	85 28 a0 10 	sll  %g2, 0x10, %g2
    3ef8:	9a 13 40 01 	or  %o5, %g1, %o5
    3efc:	83 28 e0 10 	sll  %g3, 0x10, %g1
    3f00:	84 11 80 02 	or  %g6, %g2, %g2
    3f04:	87 31 20 10 	srl  %g4, 0x10, %g3
    3f08:	8d 31 60 10 	srl  %g5, 0x10, %g6
    3f0c:	89 29 20 10 	sll  %g4, 0x10, %g4
    3f10:	86 10 c0 01 	or  %g3, %g1, %g3
    3f14:	d8 3a 3f fa 	std  %o4, [ %o0 + -6 ]
    3f18:	c4 3a 20 02 	std  %g2, [ %o0 + 2 ]
    3f1c:	83 29 60 10 	sll  %g5, 0x10, %g1
    3f20:	98 11 80 04 	or  %g6, %g4, %o4
    3f24:	96 a2 e0 10 	subcc  %o3, 0x10, %o3
    3f28:	92 02 60 10 	add  %o1, 0x10, %o1
    3f2c:	12 bf ff ee 	bne  3ee4 <__GI_memcpy+0x904>
    3f30:	90 02 20 10 	add  %o0, 0x10, %o0
    3f34:	85 30 60 10 	srl  %g1, 0x10, %g2
    3f38:	d8 22 3f fa 	st  %o4, [ %o0 + -6 ]
    3f3c:	10 80 01 8b 	b  4568 <__GI_memcpy+0xf88>
    3f40:	c4 32 3f fe 	sth  %g2, [ %o0 + -2 ]
    3f44:	c4 02 40 00 	ld  [ %o1 ], %g2
    3f48:	94 22 a0 04 	sub  %o2, 4, %o2
    3f4c:	87 30 a0 18 	srl  %g2, 0x18, %g3
    3f50:	8a 0a 20 07 	and  %o0, 7, %g5
    3f54:	c6 2a 00 00 	stb  %g3, [ %o0 ]
    3f58:	80 a1 60 05 	cmp  %g5, 5
    3f5c:	89 30 a0 08 	srl  %g2, 8, %g4
    3f60:	83 28 a0 18 	sll  %g2, 0x18, %g1
    3f64:	c8 32 20 01 	sth  %g4, [ %o0 + 1 ]
    3f68:	92 02 60 04 	add  %o1, 4, %o1
    3f6c:	02 80 00 c3 	be  4278 <__GI_memcpy+0xc98>
    3f70:	96 0a bf c0 	and  %o2, -64, %o3
    3f74:	d8 02 3f ff 	ld  [ %o0 + -1 ], %o4
    3f78:	90 02 20 04 	add  %o0, 4, %o0
    3f7c:	c4 1a 60 00 	ldd  [ %o1 ], %g2
    3f80:	c8 1a 60 08 	ldd  [ %o1 + 8 ], %g4
    3f84:	9b 30 a0 08 	srl  %g2, 8, %o5
    3f88:	8d 30 e0 08 	srl  %g3, 8, %g6
    3f8c:	85 28 a0 18 	sll  %g2, 0x18, %g2
    3f90:	9a 13 40 01 	or  %o5, %g1, %o5
    3f94:	83 28 e0 18 	sll  %g3, 0x18, %g1
    3f98:	84 11 80 02 	or  %g6, %g2, %g2
    3f9c:	87 31 20 08 	srl  %g4, 8, %g3
    3fa0:	8d 31 60 08 	srl  %g5, 8, %g6
    3fa4:	89 29 20 18 	sll  %g4, 0x18, %g4
    3fa8:	86 10 c0 01 	or  %g3, %g1, %g3
    3fac:	d8 3a 3f fb 	std  %o4, [ %o0 + -5 ]
    3fb0:	c4 3a 20 03 	std  %g2, [ %o0 + 3 ]
    3fb4:	83 29 60 18 	sll  %g5, 0x18, %g1
    3fb8:	98 11 80 04 	or  %g6, %g4, %o4
    3fbc:	c4 1a 60 10 	ldd  [ %o1 + 0x10 ], %g2
    3fc0:	c8 1a 60 18 	ldd  [ %o1 + 0x18 ], %g4
    3fc4:	9b 30 a0 08 	srl  %g2, 8, %o5
    3fc8:	8d 30 e0 08 	srl  %g3, 8, %g6
    3fcc:	85 28 a0 18 	sll  %g2, 0x18, %g2
    3fd0:	9a 13 40 01 	or  %o5, %g1, %o5
    3fd4:	83 28 e0 18 	sll  %g3, 0x18, %g1
    3fd8:	84 11 80 02 	or  %g6, %g2, %g2
    3fdc:	87 31 20 08 	srl  %g4, 8, %g3
    3fe0:	8d 31 60 08 	srl  %g5, 8, %g6
    3fe4:	89 29 20 18 	sll  %g4, 0x18, %g4
    3fe8:	86 10 c0 01 	or  %g3, %g1, %g3
    3fec:	d8 3a 20 0b 	std  %o4, [ %o0 + 0xb ]
    3ff0:	c4 3a 20 13 	std  %g2, [ %o0 + 0x13 ]
    3ff4:	83 29 60 18 	sll  %g5, 0x18, %g1
    3ff8:	98 11 80 04 	or  %g6, %g4, %o4
    3ffc:	c4 1a 60 20 	ldd  [ %o1 + 0x20 ], %g2
    4000:	c8 1a 60 28 	ldd  [ %o1 + 0x28 ], %g4
    4004:	9b 30 a0 08 	srl  %g2, 8, %o5
    4008:	8d 30 e0 08 	srl  %g3, 8, %g6
    400c:	85 28 a0 18 	sll  %g2, 0x18, %g2
    4010:	9a 13 40 01 	or  %o5, %g1, %o5
    4014:	83 28 e0 18 	sll  %g3, 0x18, %g1
    4018:	84 11 80 02 	or  %g6, %g2, %g2
    401c:	87 31 20 08 	srl  %g4, 8, %g3
    4020:	8d 31 60 08 	srl  %g5, 8, %g6
    4024:	89 29 20 18 	sll  %g4, 0x18, %g4
    4028:	86 10 c0 01 	or  %g3, %g1, %g3
    402c:	d8 3a 20 1b 	std  %o4, [ %o0 + 0x1b ]
    4030:	c4 3a 20 23 	std  %g2, [ %o0 + 0x23 ]
    4034:	83 29 60 18 	sll  %g5, 0x18, %g1
    4038:	98 11 80 04 	or  %g6, %g4, %o4
    403c:	c4 1a 60 30 	ldd  [ %o1 + 0x30 ], %g2
    4040:	c8 1a 60 38 	ldd  [ %o1 + 0x38 ], %g4
    4044:	9b 30 a0 08 	srl  %g2, 8, %o5
    4048:	8d 30 e0 08 	srl  %g3, 8, %g6
    404c:	85 28 a0 18 	sll  %g2, 0x18, %g2
    4050:	9a 13 40 01 	or  %o5, %g1, %o5
    4054:	83 28 e0 18 	sll  %g3, 0x18, %g1
    4058:	84 11 80 02 	or  %g6, %g2, %g2
    405c:	87 31 20 08 	srl  %g4, 8, %g3
    4060:	8d 31 60 08 	srl  %g5, 8, %g6
    4064:	89 29 20 18 	sll  %g4, 0x18, %g4
    4068:	86 10 c0 01 	or  %g3, %g1, %g3
    406c:	d8 3a 20 2b 	std  %o4, [ %o0 + 0x2b ]
    4070:	c4 3a 20 33 	std  %g2, [ %o0 + 0x33 ]
    4074:	83 29 60 18 	sll  %g5, 0x18, %g1
    4078:	98 11 80 04 	or  %g6, %g4, %o4
    407c:	96 a2 e0 40 	subcc  %o3, 0x40, %o3
    4080:	92 02 60 40 	add  %o1, 0x40, %o1
    4084:	12 bf ff be 	bne  3f7c <__GI_memcpy+0x99c>
    4088:	90 02 20 40 	add  %o0, 0x40, %o0
    408c:	96 8a a0 30 	andcc  %o2, 0x30, %o3
    4090:	22 80 00 17 	be,a   40ec <__GI_memcpy+0xb0c>
    4094:	85 30 60 18 	srl  %g1, 0x18, %g2
    4098:	c4 1a 60 00 	ldd  [ %o1 ], %g2
    409c:	c8 1a 60 08 	ldd  [ %o1 + 8 ], %g4
    40a0:	9b 30 a0 08 	srl  %g2, 8, %o5
    40a4:	8d 30 e0 08 	srl  %g3, 8, %g6
    40a8:	85 28 a0 18 	sll  %g2, 0x18, %g2
    40ac:	9a 13 40 01 	or  %o5, %g1, %o5
    40b0:	83 28 e0 18 	sll  %g3, 0x18, %g1
    40b4:	84 11 80 02 	or  %g6, %g2, %g2
    40b8:	87 31 20 08 	srl  %g4, 8, %g3
    40bc:	8d 31 60 08 	srl  %g5, 8, %g6
    40c0:	89 29 20 18 	sll  %g4, 0x18, %g4
    40c4:	86 10 c0 01 	or  %g3, %g1, %g3
    40c8:	d8 3a 3f fb 	std  %o4, [ %o0 + -5 ]
    40cc:	c4 3a 20 03 	std  %g2, [ %o0 + 3 ]
    40d0:	83 29 60 18 	sll  %g5, 0x18, %g1
    40d4:	98 11 80 04 	or  %g6, %g4, %o4
    40d8:	96 a2 e0 10 	subcc  %o3, 0x10, %o3
    40dc:	92 02 60 10 	add  %o1, 0x10, %o1
    40e0:	12 bf ff ee 	bne  4098 <__GI_memcpy+0xab8>
    40e4:	90 02 20 10 	add  %o0, 0x10, %o0
    40e8:	85 30 60 18 	srl  %g1, 0x18, %g2
    40ec:	d8 22 3f fb 	st  %o4, [ %o0 + -5 ]
    40f0:	10 80 01 1e 	b  4568 <__GI_memcpy+0xf88>
    40f4:	c4 2a 3f ff 	stb  %g2, [ %o0 + -1 ]
    40f8:	c4 1a 60 00 	ldd  [ %o1 ], %g2
    40fc:	c8 1a 60 08 	ldd  [ %o1 + 8 ], %g4
    4100:	99 30 a0 18 	srl  %g2, 0x18, %o4
    4104:	9b 30 e0 18 	srl  %g3, 0x18, %o5
    4108:	8d 28 a0 08 	sll  %g2, 8, %g6
    410c:	84 13 00 01 	or  %o4, %g1, %g2
    4110:	83 28 e0 08 	sll  %g3, 8, %g1
    4114:	86 13 40 06 	or  %o5, %g6, %g3
    4118:	99 31 20 18 	srl  %g4, 0x18, %o4
    411c:	9b 31 60 18 	srl  %g5, 0x18, %o5
    4120:	8d 29 20 08 	sll  %g4, 8, %g6
    4124:	88 13 00 01 	or  %o4, %g1, %g4
    4128:	83 29 60 08 	sll  %g5, 8, %g1
    412c:	8a 13 40 06 	or  %o5, %g6, %g5
    4130:	c4 3a 3f fd 	std  %g2, [ %o0 + -3 ]
    4134:	c8 3a 20 05 	std  %g4, [ %o0 + 5 ]
    4138:	c4 1a 60 10 	ldd  [ %o1 + 0x10 ], %g2
    413c:	c8 1a 60 18 	ldd  [ %o1 + 0x18 ], %g4
    4140:	99 30 a0 18 	srl  %g2, 0x18, %o4
    4144:	9b 30 e0 18 	srl  %g3, 0x18, %o5
    4148:	8d 28 a0 08 	sll  %g2, 8, %g6
    414c:	84 13 00 01 	or  %o4, %g1, %g2
    4150:	83 28 e0 08 	sll  %g3, 8, %g1
    4154:	86 13 40 06 	or  %o5, %g6, %g3
    4158:	99 31 20 18 	srl  %g4, 0x18, %o4
    415c:	9b 31 60 18 	srl  %g5, 0x18, %o5
    4160:	8d 29 20 08 	sll  %g4, 8, %g6
    4164:	88 13 00 01 	or  %o4, %g1, %g4
    4168:	83 29 60 08 	sll  %g5, 8, %g1
    416c:	8a 13 40 06 	or  %o5, %g6, %g5
    4170:	c4 3a 20 0d 	std  %g2, [ %o0 + 0xd ]
    4174:	c8 3a 20 15 	std  %g4, [ %o0 + 0x15 ]
    4178:	c4 1a 60 20 	ldd  [ %o1 + 0x20 ], %g2
    417c:	c8 1a 60 28 	ldd  [ %o1 + 0x28 ], %g4
    4180:	99 30 a0 18 	srl  %g2, 0x18, %o4
    4184:	9b 30 e0 18 	srl  %g3, 0x18, %o5
    4188:	8d 28 a0 08 	sll  %g2, 8, %g6
    418c:	84 13 00 01 	or  %o4, %g1, %g2
    4190:	83 28 e0 08 	sll  %g3, 8, %g1
    4194:	86 13 40 06 	or  %o5, %g6, %g3
    4198:	99 31 20 18 	srl  %g4, 0x18, %o4
    419c:	9b 31 60 18 	srl  %g5, 0x18, %o5
    41a0:	8d 29 20 08 	sll  %g4, 8, %g6
    41a4:	88 13 00 01 	or  %o4, %g1, %g4
    41a8:	83 29 60 08 	sll  %g5, 8, %g1
    41ac:	8a 13 40 06 	or  %o5, %g6, %g5
    41b0:	c4 3a 20 1d 	std  %g2, [ %o0 + 0x1d ]
    41b4:	c8 3a 20 25 	std  %g4, [ %o0 + 0x25 ]
    41b8:	c4 1a 60 30 	ldd  [ %o1 + 0x30 ], %g2
    41bc:	c8 1a 60 38 	ldd  [ %o1 + 0x38 ], %g4
    41c0:	99 30 a0 18 	srl  %g2, 0x18, %o4
    41c4:	9b 30 e0 18 	srl  %g3, 0x18, %o5
    41c8:	8d 28 a0 08 	sll  %g2, 8, %g6
    41cc:	84 13 00 01 	or  %o4, %g1, %g2
    41d0:	83 28 e0 08 	sll  %g3, 8, %g1
    41d4:	86 13 40 06 	or  %o5, %g6, %g3
    41d8:	99 31 20 18 	srl  %g4, 0x18, %o4
    41dc:	9b 31 60 18 	srl  %g5, 0x18, %o5
    41e0:	8d 29 20 08 	sll  %g4, 8, %g6
    41e4:	88 13 00 01 	or  %o4, %g1, %g4
    41e8:	83 29 60 08 	sll  %g5, 8, %g1
    41ec:	8a 13 40 06 	or  %o5, %g6, %g5
    41f0:	c4 3a 20 2d 	std  %g2, [ %o0 + 0x2d ]
    41f4:	c8 3a 20 35 	std  %g4, [ %o0 + 0x35 ]
    41f8:	96 a2 e0 40 	subcc  %o3, 0x40, %o3
    41fc:	92 02 60 40 	add  %o1, 0x40, %o1
    4200:	12 bf ff be 	bne  40f8 <__GI_memcpy+0xb18>
    4204:	90 02 20 40 	add  %o0, 0x40, %o0
    4208:	96 8a a0 30 	andcc  %o2, 0x30, %o3
    420c:	22 80 00 17 	be,a   4268 <__GI_memcpy+0xc88>
    4210:	85 30 60 10 	srl  %g1, 0x10, %g2
    4214:	c4 1a 60 00 	ldd  [ %o1 ], %g2
    4218:	c8 1a 60 08 	ldd  [ %o1 + 8 ], %g4
    421c:	99 30 a0 18 	srl  %g2, 0x18, %o4
    4220:	9b 30 e0 18 	srl  %g3, 0x18, %o5
    4224:	8d 28 a0 08 	sll  %g2, 8, %g6
    4228:	84 13 00 01 	or  %o4, %g1, %g2
    422c:	83 28 e0 08 	sll  %g3, 8, %g1
    4230:	86 13 40 06 	or  %o5, %g6, %g3
    4234:	99 31 20 18 	srl  %g4, 0x18, %o4
    4238:	9b 31 60 18 	srl  %g5, 0x18, %o5
    423c:	8d 29 20 08 	sll  %g4, 8, %g6
    4240:	88 13 00 01 	or  %o4, %g1, %g4
    4244:	83 29 60 08 	sll  %g5, 8, %g1
    4248:	8a 13 40 06 	or  %o5, %g6, %g5
    424c:	c4 3a 3f fd 	std  %g2, [ %o0 + -3 ]
    4250:	c8 3a 20 05 	std  %g4, [ %o0 + 5 ]
    4254:	96 a2 e0 10 	subcc  %o3, 0x10, %o3
    4258:	92 02 60 10 	add  %o1, 0x10, %o1
    425c:	12 bf ff ee 	bne  4214 <__GI_memcpy+0xc34>
    4260:	90 02 20 10 	add  %o0, 0x10, %o0
    4264:	85 30 60 10 	srl  %g1, 0x10, %g2
    4268:	c4 32 3f fd 	sth  %g2, [ %o0 + -3 ]
    426c:	89 30 60 08 	srl  %g1, 8, %g4
    4270:	10 80 00 be 	b  4568 <__GI_memcpy+0xf88>
    4274:	c8 2a 3f ff 	stb  %g4, [ %o0 + -1 ]
    4278:	c4 1a 60 00 	ldd  [ %o1 ], %g2
    427c:	c8 1a 60 08 	ldd  [ %o1 + 8 ], %g4
    4280:	99 30 a0 08 	srl  %g2, 8, %o4
    4284:	9b 30 e0 08 	srl  %g3, 8, %o5
    4288:	8d 28 a0 18 	sll  %g2, 0x18, %g6
    428c:	84 13 00 01 	or  %o4, %g1, %g2
    4290:	83 28 e0 18 	sll  %g3, 0x18, %g1
    4294:	86 13 40 06 	or  %o5, %g6, %g3
    4298:	99 31 20 08 	srl  %g4, 8, %o4
    429c:	9b 31 60 08 	srl  %g5, 8, %o5
    42a0:	8d 29 20 18 	sll  %g4, 0x18, %g6
    42a4:	88 13 00 01 	or  %o4, %g1, %g4
    42a8:	83 29 60 18 	sll  %g5, 0x18, %g1
    42ac:	8a 13 40 06 	or  %o5, %g6, %g5
    42b0:	c4 3a 20 03 	std  %g2, [ %o0 + 3 ]
    42b4:	c8 3a 20 0b 	std  %g4, [ %o0 + 0xb ]
    42b8:	c4 1a 60 10 	ldd  [ %o1 + 0x10 ], %g2
    42bc:	c8 1a 60 18 	ldd  [ %o1 + 0x18 ], %g4
    42c0:	99 30 a0 08 	srl  %g2, 8, %o4
    42c4:	9b 30 e0 08 	srl  %g3, 8, %o5
    42c8:	8d 28 a0 18 	sll  %g2, 0x18, %g6
    42cc:	84 13 00 01 	or  %o4, %g1, %g2
    42d0:	83 28 e0 18 	sll  %g3, 0x18, %g1
    42d4:	86 13 40 06 	or  %o5, %g6, %g3
    42d8:	99 31 20 08 	srl  %g4, 8, %o4
    42dc:	9b 31 60 08 	srl  %g5, 8, %o5
    42e0:	8d 29 20 18 	sll  %g4, 0x18, %g6
    42e4:	88 13 00 01 	or  %o4, %g1, %g4
    42e8:	83 29 60 18 	sll  %g5, 0x18, %g1
    42ec:	8a 13 40 06 	or  %o5, %g6, %g5
    42f0:	c4 3a 20 13 	std  %g2, [ %o0 + 0x13 ]
    42f4:	c8 3a 20 1b 	std  %g4, [ %o0 + 0x1b ]
    42f8:	c4 1a 60 20 	ldd  [ %o1 + 0x20 ], %g2
    42fc:	c8 1a 60 28 	ldd  [ %o1 + 0x28 ], %g4
    4300:	99 30 a0 08 	srl  %g2, 8, %o4
    4304:	9b 30 e0 08 	srl  %g3, 8, %o5
    4308:	8d 28 a0 18 	sll  %g2, 0x18, %g6
    430c:	84 13 00 01 	or  %o4, %g1, %g2
    4310:	83 28 e0 18 	sll  %g3, 0x18, %g1
    4314:	86 13 40 06 	or  %o5, %g6, %g3
    4318:	99 31 20 08 	srl  %g4, 8, %o4
    431c:	9b 31 60 08 	srl  %g5, 8, %o5
    4320:	8d 29 20 18 	sll  %g4, 0x18, %g6
    4324:	88 13 00 01 	or  %o4, %g1, %g4
    4328:	83 29 60 18 	sll  %g5, 0x18, %g1
    432c:	8a 13 40 06 	or  %o5, %g6, %g5
    4330:	c4 3a 20 23 	std  %g2, [ %o0 + 0x23 ]
    4334:	c8 3a 20 2b 	std  %g4, [ %o0 + 0x2b ]
    4338:	c4 1a 60 30 	ldd  [ %o1 + 0x30 ], %g2
    433c:	c8 1a 60 38 	ldd  [ %o1 + 0x38 ], %g4
    4340:	99 30 a0 08 	srl  %g2, 8, %o4
    4344:	9b 30 e0 08 	srl  %g3, 8, %o5
    4348:	8d 28 a0 18 	sll  %g2, 0x18, %g6
    434c:	84 13 00 01 	or  %o4, %g1, %g2
    4350:	83 28 e0 18 	sll  %g3, 0x18, %g1
    4354:	86 13 40 06 	or  %o5, %g6, %g3
    4358:	99 31 20 08 	srl  %g4, 8, %o4
    435c:	9b 31 60 08 	srl  %g5, 8, %o5
    4360:	8d 29 20 18 	sll  %g4, 0x18, %g6
    4364:	88 13 00 01 	or  %o4, %g1, %g4
    4368:	83 29 60 18 	sll  %g5, 0x18, %g1
    436c:	8a 13 40 06 	or  %o5, %g6, %g5
    4370:	c4 3a 20 33 	std  %g2, [ %o0 + 0x33 ]
    4374:	c8 3a 20 3b 	std  %g4, [ %o0 + 0x3b ]
    4378:	96 a2 e0 40 	subcc  %o3, 0x40, %o3
    437c:	92 02 60 40 	add  %o1, 0x40, %o1
    4380:	12 bf ff be 	bne  4278 <__GI_memcpy+0xc98>
    4384:	90 02 20 40 	add  %o0, 0x40, %o0
    4388:	96 8a a0 30 	andcc  %o2, 0x30, %o3
    438c:	22 80 00 17 	be,a   43e8 <__GI_memcpy+0xe08>
    4390:	85 30 60 18 	srl  %g1, 0x18, %g2
    4394:	c4 1a 60 00 	ldd  [ %o1 ], %g2
    4398:	c8 1a 60 08 	ldd  [ %o1 + 8 ], %g4
    439c:	99 30 a0 08 	srl  %g2, 8, %o4
    43a0:	9b 30 e0 08 	srl  %g3, 8, %o5
    43a4:	8d 28 a0 18 	sll  %g2, 0x18, %g6
    43a8:	84 13 00 01 	or  %o4, %g1, %g2
    43ac:	83 28 e0 18 	sll  %g3, 0x18, %g1
    43b0:	86 13 40 06 	or  %o5, %g6, %g3
    43b4:	99 31 20 08 	srl  %g4, 8, %o4
    43b8:	9b 31 60 08 	srl  %g5, 8, %o5
    43bc:	8d 29 20 18 	sll  %g4, 0x18, %g6
    43c0:	88 13 00 01 	or  %o4, %g1, %g4
    43c4:	83 29 60 18 	sll  %g5, 0x18, %g1
    43c8:	8a 13 40 06 	or  %o5, %g6, %g5
    43cc:	c4 3a 20 03 	std  %g2, [ %o0 + 3 ]
    43d0:	c8 3a 20 0b 	std  %g4, [ %o0 + 0xb ]
    43d4:	96 a2 e0 10 	subcc  %o3, 0x10, %o3
    43d8:	92 02 60 10 	add  %o1, 0x10, %o1
    43dc:	12 bf ff ee 	bne  4394 <__GI_memcpy+0xdb4>
    43e0:	90 02 20 10 	add  %o0, 0x10, %o0
    43e4:	85 30 60 18 	srl  %g1, 0x18, %g2
    43e8:	c4 2a 20 03 	stb  %g2, [ %o0 + 3 ]
    43ec:	10 80 00 5f 	b  4568 <__GI_memcpy+0xf88>
    43f0:	90 02 20 04 	add  %o0, 4, %o0
    43f4:	c4 1a 60 00 	ldd  [ %o1 ], %g2
    43f8:	c8 1a 60 08 	ldd  [ %o1 + 8 ], %g4
    43fc:	99 30 a0 10 	srl  %g2, 0x10, %o4
    4400:	9b 30 e0 10 	srl  %g3, 0x10, %o5
    4404:	8d 28 a0 10 	sll  %g2, 0x10, %g6
    4408:	84 13 00 01 	or  %o4, %g1, %g2
    440c:	83 28 e0 10 	sll  %g3, 0x10, %g1
    4410:	86 13 40 06 	or  %o5, %g6, %g3
    4414:	99 31 20 10 	srl  %g4, 0x10, %o4
    4418:	9b 31 60 10 	srl  %g5, 0x10, %o5
    441c:	8d 29 20 10 	sll  %g4, 0x10, %g6
    4420:	88 13 00 01 	or  %o4, %g1, %g4
    4424:	83 29 60 10 	sll  %g5, 0x10, %g1
    4428:	8a 13 40 06 	or  %o5, %g6, %g5
    442c:	c4 3a 3f fe 	std  %g2, [ %o0 + -2 ]
    4430:	c8 3a 20 06 	std  %g4, [ %o0 + 6 ]
    4434:	c4 1a 60 10 	ldd  [ %o1 + 0x10 ], %g2
    4438:	c8 1a 60 18 	ldd  [ %o1 + 0x18 ], %g4
    443c:	99 30 a0 10 	srl  %g2, 0x10, %o4
    4440:	9b 30 e0 10 	srl  %g3, 0x10, %o5
    4444:	8d 28 a0 10 	sll  %g2, 0x10, %g6
    4448:	84 13 00 01 	or  %o4, %g1, %g2
    444c:	83 28 e0 10 	sll  %g3, 0x10, %g1
    4450:	86 13 40 06 	or  %o5, %g6, %g3
    4454:	99 31 20 10 	srl  %g4, 0x10, %o4
    4458:	9b 31 60 10 	srl  %g5, 0x10, %o5
    445c:	8d 29 20 10 	sll  %g4, 0x10, %g6
    4460:	88 13 00 01 	or  %o4, %g1, %g4
    4464:	83 29 60 10 	sll  %g5, 0x10, %g1
    4468:	8a 13 40 06 	or  %o5, %g6, %g5
    446c:	c4 3a 20 0e 	std  %g2, [ %o0 + 0xe ]
    4470:	c8 3a 20 16 	std  %g4, [ %o0 + 0x16 ]
    4474:	c4 1a 60 20 	ldd  [ %o1 + 0x20 ], %g2
    4478:	c8 1a 60 28 	ldd  [ %o1 + 0x28 ], %g4
    447c:	99 30 a0 10 	srl  %g2, 0x10, %o4
    4480:	9b 30 e0 10 	srl  %g3, 0x10, %o5
    4484:	8d 28 a0 10 	sll  %g2, 0x10, %g6
    4488:	84 13 00 01 	or  %o4, %g1, %g2
    448c:	83 28 e0 10 	sll  %g3, 0x10, %g1
    4490:	86 13 40 06 	or  %o5, %g6, %g3
    4494:	99 31 20 10 	srl  %g4, 0x10, %o4
    4498:	9b 31 60 10 	srl  %g5, 0x10, %o5
    449c:	8d 29 20 10 	sll  %g4, 0x10, %g6
    44a0:	88 13 00 01 	or  %o4, %g1, %g4
    44a4:	83 29 60 10 	sll  %g5, 0x10, %g1
    44a8:	8a 13 40 06 	or  %o5, %g6, %g5
    44ac:	c4 3a 20 1e 	std  %g2, [ %o0 + 0x1e ]
    44b0:	c8 3a 20 26 	std  %g4, [ %o0 + 0x26 ]
    44b4:	c4 1a 60 30 	ldd  [ %o1 + 0x30 ], %g2
    44b8:	c8 1a 60 38 	ldd  [ %o1 + 0x38 ], %g4
    44bc:	99 30 a0 10 	srl  %g2, 0x10, %o4
    44c0:	9b 30 e0 10 	srl  %g3, 0x10, %o5
    44c4:	8d 28 a0 10 	sll  %g2, 0x10, %g6
    44c8:	84 13 00 01 	or  %o4, %g1, %g2
    44cc:	83 28 e0 10 	sll  %g3, 0x10, %g1
    44d0:	86 13 40 06 	or  %o5, %g6, %g3
    44d4:	99 31 20 10 	srl  %g4, 0x10, %o4
    44d8:	9b 31 60 10 	srl  %g5, 0x10, %o5
    44dc:	8d 29 20 10 	sll  %g4, 0x10, %g6
    44e0:	88 13 00 01 	or  %o4, %g1, %g4
    44e4:	83 29 60 10 	sll  %g5, 0x10, %g1
    44e8:	8a 13 40 06 	or  %o5, %g6, %g5
    44ec:	c4 3a 20 2e 	std  %g2, [ %o0 + 0x2e ]
    44f0:	c8 3a 20 36 	std  %g4, [ %o0 + 0x36 ]
    44f4:	96 a2 e0 40 	subcc  %o3, 0x40, %o3
    44f8:	92 02 60 40 	add  %o1, 0x40, %o1
    44fc:	12 bf ff be 	bne  43f4 <__GI_memcpy+0xe14>
    4500:	90 02 20 40 	add  %o0, 0x40, %o0
    4504:	96 8a a0 30 	andcc  %o2, 0x30, %o3
    4508:	22 80 00 17 	be,a   4564 <__GI_memcpy+0xf84>
    450c:	85 30 60 10 	srl  %g1, 0x10, %g2
    4510:	c4 1a 60 00 	ldd  [ %o1 ], %g2
    4514:	c8 1a 60 08 	ldd  [ %o1 + 8 ], %g4
    4518:	99 30 a0 10 	srl  %g2, 0x10, %o4
    451c:	9b 30 e0 10 	srl  %g3, 0x10, %o5
    4520:	8d 28 a0 10 	sll  %g2, 0x10, %g6
    4524:	84 13 00 01 	or  %o4, %g1, %g2
    4528:	83 28 e0 10 	sll  %g3, 0x10, %g1
    452c:	86 13 40 06 	or  %o5, %g6, %g3
    4530:	99 31 20 10 	srl  %g4, 0x10, %o4
    4534:	9b 31 60 10 	srl  %g5, 0x10, %o5
    4538:	8d 29 20 10 	sll  %g4, 0x10, %g6
    453c:	88 13 00 01 	or  %o4, %g1, %g4
    4540:	83 29 60 10 	sll  %g5, 0x10, %g1
    4544:	8a 13 40 06 	or  %o5, %g6, %g5
    4548:	c4 3a 3f fe 	std  %g2, [ %o0 + -2 ]
    454c:	c8 3a 20 06 	std  %g4, [ %o0 + 6 ]
    4550:	96 a2 e0 10 	subcc  %o3, 0x10, %o3
    4554:	92 02 60 10 	add  %o1, 0x10, %o1
    4558:	12 bf ff ee 	bne  4510 <__GI_memcpy+0xf30>
    455c:	90 02 20 10 	add  %o0, 0x10, %o0
    4560:	85 30 60 10 	srl  %g1, 0x10, %g2
    4564:	c4 32 3f fe 	sth  %g2, [ %o0 + -2 ]
    4568:	96 0a a0 0e 	and  %o2, 0xe, %o3
    456c:	84 10 00 0f 	mov  %o7, %g2
    4570:	99 2a e0 03 	sll  %o3, 3, %o4
    4574:	90 02 00 0b 	add  %o0, %o3, %o0
    4578:	40 00 00 33 	call  4644 <__GI_memcpy+0x1064>
    457c:	92 02 40 0b 	add  %o1, %o3, %o1
    4580:	9e 10 00 02 	mov  %g2, %o7
    4584:	81 c3 60 84 	jmp  %o5 + 0x84
    4588:	80 8a a0 01 	btst  1, %o2
    458c:	c4 0a 7f f2 	ldub  [ %o1 + -14 ], %g2
    4590:	c6 0a 7f f3 	ldub  [ %o1 + -13 ], %g3
    4594:	c4 2a 3f f2 	stb  %g2, [ %o0 + -14 ]
    4598:	c6 2a 3f f3 	stb  %g3, [ %o0 + -13 ]
    459c:	c4 0a 7f f4 	ldub  [ %o1 + -12 ], %g2
    45a0:	c6 0a 7f f5 	ldub  [ %o1 + -11 ], %g3
    45a4:	c4 2a 3f f4 	stb  %g2, [ %o0 + -12 ]
    45a8:	c6 2a 3f f5 	stb  %g3, [ %o0 + -11 ]
    45ac:	c4 0a 7f f6 	ldub  [ %o1 + -10 ], %g2
    45b0:	c6 0a 7f f7 	ldub  [ %o1 + -9 ], %g3
    45b4:	c4 2a 3f f6 	stb  %g2, [ %o0 + -10 ]
    45b8:	c6 2a 3f f7 	stb  %g3, [ %o0 + -9 ]
    45bc:	c4 0a 7f f8 	ldub  [ %o1 + -8 ], %g2
    45c0:	c6 0a 7f f9 	ldub  [ %o1 + -7 ], %g3
    45c4:	c4 2a 3f f8 	stb  %g2, [ %o0 + -8 ]
    45c8:	c6 2a 3f f9 	stb  %g3, [ %o0 + -7 ]
    45cc:	c4 0a 7f fa 	ldub  [ %o1 + -6 ], %g2
    45d0:	c6 0a 7f fb 	ldub  [ %o1 + -5 ], %g3
    45d4:	c4 2a 3f fa 	stb  %g2, [ %o0 + -6 ]
    45d8:	c6 2a 3f fb 	stb  %g3, [ %o0 + -5 ]
    45dc:	c4 0a 7f fc 	ldub  [ %o1 + -4 ], %g2
    45e0:	c6 0a 7f fd 	ldub  [ %o1 + -3 ], %g3
    45e4:	c4 2a 3f fc 	stb  %g2, [ %o0 + -4 ]
    45e8:	c6 2a 3f fd 	stb  %g3, [ %o0 + -3 ]
    45ec:	c4 0a 7f fe 	ldub  [ %o1 + -2 ], %g2
    45f0:	c6 0a 7f ff 	ldub  [ %o1 + -1 ], %g3
    45f4:	c4 2a 3f fe 	stb  %g2, [ %o0 + -2 ]
    45f8:	c6 2a 3f ff 	stb  %g3, [ %o0 + -1 ]
    45fc:	02 80 00 04 	be  460c <__GI_memcpy+0x102c>
    4600:	01 00 00 00 	nop 
    4604:	c4 0a 40 00 	ldub  [ %o1 ], %g2
    4608:	c4 2a 00 00 	stb  %g2, [ %o0 ]
    460c:	81 c3 e0 08 	retl 
    4610:	d0 03 a0 40 	ld  [ %sp + 0x40 ], %o0
    4614:	12 bf ff d5 	bne  4568 <__GI_memcpy+0xf88>
    4618:	80 8a a0 08 	btst  8, %o2
    461c:	02 80 00 08 	be  463c <__GI_memcpy+0x105c>
    4620:	80 8a a0 04 	btst  4, %o2
    4624:	c4 02 60 00 	ld  [ %o1 ], %g2
    4628:	c6 02 60 04 	ld  [ %o1 + 4 ], %g3
    462c:	92 02 60 08 	add  %o1, 8, %o1
    4630:	c4 22 20 00 	st  %g2, [ %o0 ]
    4634:	c6 22 20 04 	st  %g3, [ %o0 + 4 ]
    4638:	90 02 20 08 	add  %o0, 8, %o0
    463c:	10 bf fc 6d 	b  37f0 <__GI_memcpy+0x210>
    4640:	82 10 00 0a 	mov  %o2, %g1
    4644:	81 c3 e0 08 	retl 
    4648:	9a 23 c0 0c 	sub  %o7, %o4, %o5
    464c:	81 c3 e0 08 	retl 
    4650:	9a 23 c0 06 	sub  %o7, %g6, %o5

00004654 <generic_vectored_isr>:
    4654:	a9 50 00 00 	rd  %wim, %l4
    4658:	a9 35 00 10 	srl  %l4, %l0, %l4
    465c:	80 a5 20 01 	cmp  %l4, 1
    4660:	12 80 00 12 	bne  46a8 <continue_with_valid_T>
    4664:	01 00 00 00 	nop 

00004668 <handle_invalid_T>:
    4668:	81 e0 00 00 	save 
    466c:	e0 3b a0 00 	std  %l0, [ %sp ]
    4670:	e4 3b a0 08 	std  %l2, [ %sp + 8 ]
    4674:	e8 3b a0 10 	std  %l4, [ %sp + 0x10 ]
    4678:	ec 3b a0 18 	std  %l6, [ %sp + 0x18 ]
    467c:	f0 3b a0 20 	std  %i0, [ %sp + 0x20 ]
    4680:	f4 3b a0 28 	std  %i2, [ %sp + 0x28 ]
    4684:	f8 3b a0 30 	std  %i4, [ %sp + 0x30 ]
    4688:	fc 3b a0 38 	std  %fp, [ %sp + 0x38 ]
    468c:	a7 50 00 00 	rd  %wim, %l3
    4690:	a9 2c e0 07 	sll  %l3, 7, %l4
    4694:	a7 34 e0 01 	srl  %l3, 1, %l3
    4698:	a6 14 c0 14 	or  %l3, %l4, %l3
    469c:	a6 0c e0 ff 	and  %l3, 0xff, %l3
    46a0:	81 90 00 13 	mov  %l3, %wim
    46a4:	81 e8 00 00 	restore 

000046a8 <continue_with_valid_T>:
    46a8:	ae 10 00 0e 	mov  %sp, %l7
    46ac:	80 a3 a0 00 	cmp  %sp, 0
    46b0:	22 80 00 03 	be,a   46bc <continue_with_stack>
    46b4:	9c 27 a0 60 	sub  %fp, 0x60, %sp
    46b8:	9c 23 a0 60 	sub  %sp, 0x60, %sp

000046bc <continue_with_stack>:
    46bc:	e0 23 80 00 	st  %l0, [ %sp ]
    46c0:	c2 23 a0 04 	st  %g1, [ %sp + 4 ]
    46c4:	c4 3b a0 08 	std  %g2, [ %sp + 8 ]
    46c8:	c8 3b a0 10 	std  %g4, [ %sp + 0x10 ]
    46cc:	cc 3b a0 18 	std  %g6, [ %sp + 0x18 ]
    46d0:	f0 3b a0 20 	std  %i0, [ %sp + 0x20 ]
    46d4:	f4 3b a0 28 	std  %i2, [ %sp + 0x28 ]
    46d8:	f8 3b a0 30 	std  %i4, [ %sp + 0x30 ]
    46dc:	fc 3b a0 38 	std  %fp, [ %sp + 0x38 ]
    46e0:	e2 23 a0 40 	st  %l1, [ %sp + 0x40 ]
    46e4:	e4 23 a0 44 	st  %l2, [ %sp + 0x44 ]
    46e8:	ee 23 a0 48 	st  %l7, [ %sp + 0x48 ]
    46ec:	af 40 00 00 	rd  %y, %l7
    46f0:	ee 23 a0 4c 	st  %l7, [ %sp + 0x4c ]
    46f4:	9c 23 a0 60 	sub  %sp, 0x60, %sp
    46f8:	ae 14 20 20 	or  %l0, 0x20, %l7
    46fc:	ae 15 ef 00 	or  %l7, 0xf00, %l7
    4700:	81 88 00 17 	mov  %l7, %psr
    4704:	91 58 00 00 	rd  %tbr, %o0
    4708:	7f ff f5 b6 	call  1de0 <ajit_generic_interrupt_handler>
    470c:	01 00 00 00 	nop 
    4710:	81 e8 00 00 	restore 
    4714:	81 e0 00 00 	save 

00004718 <recover_and_leave>:
    4718:	9c 03 a0 60 	add  %sp, 0x60, %sp
    471c:	ee 03 80 00 	ld  [ %sp ], %l7
    4720:	81 88 00 17 	mov  %l7, %psr
    4724:	c2 03 a0 04 	ld  [ %sp + 4 ], %g1
    4728:	c4 1b a0 08 	ldd  [ %sp + 8 ], %g2
    472c:	c8 1b a0 10 	ldd  [ %sp + 0x10 ], %g4
    4730:	cc 1b a0 18 	ldd  [ %sp + 0x18 ], %g6
    4734:	f0 1b a0 20 	ldd  [ %sp + 0x20 ], %i0
    4738:	f4 1b a0 28 	ldd  [ %sp + 0x28 ], %i2
    473c:	f8 1b a0 30 	ldd  [ %sp + 0x30 ], %i4
    4740:	fc 1b a0 38 	ldd  [ %sp + 0x38 ], %fp
    4744:	e2 03 a0 40 	ld  [ %sp + 0x40 ], %l1
    4748:	e4 03 a0 44 	ld  [ %sp + 0x44 ], %l2
    474c:	ec 03 a0 48 	ld  [ %sp + 0x48 ], %l6
    4750:	ee 03 a0 4c 	ld  [ %sp + 0x4c ], %l7
    4754:	9c 10 00 16 	mov  %l6, %sp
    4758:	81 80 00 17 	mov  %l7, %y

0000475c <jmpl_and_return>:
    475c:	81 c4 40 00 	jmp  %l1
    4760:	81 cc 80 00 	rett  %l2
    4764:	01 00 00 00 	nop 

00004768 <generic_vectored_sw_trap>:
    4768:	a9 50 00 00 	rd  %wim, %l4
    476c:	a9 35 00 10 	srl  %l4, %l0, %l4
    4770:	80 a5 20 01 	cmp  %l4, 1
    4774:	12 80 00 12 	bne  47bc <continue_with_valid_T>
    4778:	01 00 00 00 	nop 

0000477c <handle_invalid_T>:
    477c:	81 e0 00 00 	save 
    4780:	e0 3b a0 00 	std  %l0, [ %sp ]
    4784:	e4 3b a0 08 	std  %l2, [ %sp + 8 ]
    4788:	e8 3b a0 10 	std  %l4, [ %sp + 0x10 ]
    478c:	ec 3b a0 18 	std  %l6, [ %sp + 0x18 ]
    4790:	f0 3b a0 20 	std  %i0, [ %sp + 0x20 ]
    4794:	f4 3b a0 28 	std  %i2, [ %sp + 0x28 ]
    4798:	f8 3b a0 30 	std  %i4, [ %sp + 0x30 ]
    479c:	fc 3b a0 38 	std  %fp, [ %sp + 0x38 ]
    47a0:	a7 50 00 00 	rd  %wim, %l3
    47a4:	a9 2c e0 07 	sll  %l3, 7, %l4
    47a8:	a7 34 e0 01 	srl  %l3, 1, %l3
    47ac:	a6 14 c0 14 	or  %l3, %l4, %l3
    47b0:	a6 0c e0 ff 	and  %l3, 0xff, %l3
    47b4:	81 90 00 13 	mov  %l3, %wim
    47b8:	81 e8 00 00 	restore 

000047bc <continue_with_valid_T>:
    47bc:	ae 10 00 0e 	mov  %sp, %l7
    47c0:	80 a3 a0 00 	cmp  %sp, 0
    47c4:	22 80 00 03 	be,a   47d0 <continue_with_stack>
    47c8:	9c 27 a0 60 	sub  %fp, 0x60, %sp
    47cc:	9c 23 a0 60 	sub  %sp, 0x60, %sp

000047d0 <continue_with_stack>:
    47d0:	e0 23 80 00 	st  %l0, [ %sp ]
    47d4:	c2 23 a0 04 	st  %g1, [ %sp + 4 ]
    47d8:	c4 3b a0 08 	std  %g2, [ %sp + 8 ]
    47dc:	c8 3b a0 10 	std  %g4, [ %sp + 0x10 ]
    47e0:	cc 3b a0 18 	std  %g6, [ %sp + 0x18 ]
    47e4:	f0 3b a0 20 	std  %i0, [ %sp + 0x20 ]
    47e8:	f4 3b a0 28 	std  %i2, [ %sp + 0x28 ]
    47ec:	f8 3b a0 30 	std  %i4, [ %sp + 0x30 ]
    47f0:	fc 3b a0 38 	std  %fp, [ %sp + 0x38 ]
    47f4:	e2 23 a0 40 	st  %l1, [ %sp + 0x40 ]
    47f8:	e4 23 a0 44 	st  %l2, [ %sp + 0x44 ]
    47fc:	ee 23 a0 48 	st  %l7, [ %sp + 0x48 ]
    4800:	af 40 00 00 	rd  %y, %l7
    4804:	ee 23 a0 4c 	st  %l7, [ %sp + 0x4c ]
    4808:	9c 23 a0 60 	sub  %sp, 0x60, %sp
    480c:	ae 14 20 20 	or  %l0, 0x20, %l7
    4810:	ae 15 ef 00 	or  %l7, 0xf00, %l7
    4814:	81 88 00 17 	mov  %l7, %psr
    4818:	91 58 00 00 	rd  %tbr, %o0
    481c:	81 e8 00 00 	restore 
    4820:	90 10 00 18 	mov  %i0, %o0
    4824:	92 10 00 19 	mov  %i1, %o1
    4828:	94 10 00 1a 	mov  %i2, %o2
    482c:	81 e0 00 00 	save 
    4830:	92 10 00 18 	mov  %i0, %o1
    4834:	94 10 00 19 	mov  %i1, %o2
    4838:	96 10 00 1a 	mov  %i2, %o3
    483c:	7f ff ef c6 	call  754 <ajit_generic_sw_trap_handler>
    4840:	01 00 00 00 	nop 
    4844:	81 e8 00 00 	restore 
    4848:	81 e0 00 00 	save 

0000484c <recover_and_leave>:
    484c:	9c 03 a0 60 	add  %sp, 0x60, %sp
    4850:	ee 03 80 00 	ld  [ %sp ], %l7
    4854:	81 88 00 17 	mov  %l7, %psr
    4858:	c2 03 a0 04 	ld  [ %sp + 4 ], %g1
    485c:	c4 1b a0 08 	ldd  [ %sp + 8 ], %g2
    4860:	c8 1b a0 10 	ldd  [ %sp + 0x10 ], %g4
    4864:	cc 1b a0 18 	ldd  [ %sp + 0x18 ], %g6
    4868:	f0 1b a0 20 	ldd  [ %sp + 0x20 ], %i0
    486c:	f4 1b a0 28 	ldd  [ %sp + 0x28 ], %i2
    4870:	f8 1b a0 30 	ldd  [ %sp + 0x30 ], %i4
    4874:	fc 1b a0 38 	ldd  [ %sp + 0x38 ], %fp
    4878:	e2 03 a0 40 	ld  [ %sp + 0x40 ], %l1
    487c:	e4 03 a0 44 	ld  [ %sp + 0x44 ], %l2
    4880:	ec 03 a0 48 	ld  [ %sp + 0x48 ], %l6
    4884:	ee 03 a0 4c 	ld  [ %sp + 0x4c ], %l7
    4888:	9c 10 00 16 	mov  %l6, %sp
    488c:	81 80 00 17 	mov  %l7, %y

00004890 <jmpl_and_return>:
    4890:	81 c4 80 00 	jmp  %l2
    4894:	81 cc a0 04 	rett  %l2 + 4
    4898:	01 00 00 00 	nop 
    489c:	00 00 00 00 	unimp  0

000048a0 <generic_read_asr>:
    48a0:	81 e8 00 00 	restore 
    48a4:	80 a2 20 1f 	cmp  %o0, 0x1f
    48a8:	02 80 00 62 	be  4a30 <read_31>
    48ac:	01 00 00 00 	nop 
    48b0:	80 a2 20 1e 	cmp  %o0, 0x1e
    48b4:	02 80 00 62 	be  4a3c <read_30>
    48b8:	01 00 00 00 	nop 
    48bc:	80 a2 20 1d 	cmp  %o0, 0x1d
    48c0:	02 80 00 62 	be  4a48 <read_29>
    48c4:	01 00 00 00 	nop 
    48c8:	80 a2 20 1c 	cmp  %o0, 0x1c
    48cc:	02 80 00 62 	be  4a54 <read_28>
    48d0:	01 00 00 00 	nop 
    48d4:	80 a2 20 1b 	cmp  %o0, 0x1b
    48d8:	02 80 00 62 	be  4a60 <read_27>
    48dc:	01 00 00 00 	nop 
    48e0:	80 a2 20 1a 	cmp  %o0, 0x1a
    48e4:	02 80 00 62 	be  4a6c <read_26>
    48e8:	01 00 00 00 	nop 
    48ec:	80 a2 20 19 	cmp  %o0, 0x19
    48f0:	02 80 00 62 	be  4a78 <read_25>
    48f4:	01 00 00 00 	nop 
    48f8:	80 a2 20 18 	cmp  %o0, 0x18
    48fc:	02 80 00 62 	be  4a84 <read_24>
    4900:	01 00 00 00 	nop 
    4904:	80 a2 20 17 	cmp  %o0, 0x17
    4908:	02 80 00 62 	be  4a90 <read_23>
    490c:	01 00 00 00 	nop 
    4910:	80 a2 20 16 	cmp  %o0, 0x16
    4914:	02 80 00 62 	be  4a9c <read_22>
    4918:	01 00 00 00 	nop 
    491c:	80 a2 20 15 	cmp  %o0, 0x15
    4920:	02 80 00 62 	be  4aa8 <read_21>
    4924:	01 00 00 00 	nop 
    4928:	80 a2 20 14 	cmp  %o0, 0x14
    492c:	02 80 00 62 	be  4ab4 <read_20>
    4930:	01 00 00 00 	nop 
    4934:	80 a2 20 13 	cmp  %o0, 0x13
    4938:	02 80 00 62 	be  4ac0 <read_19>
    493c:	01 00 00 00 	nop 
    4940:	80 a2 20 12 	cmp  %o0, 0x12
    4944:	02 80 00 62 	be  4acc <read_18>
    4948:	01 00 00 00 	nop 
    494c:	80 a2 20 11 	cmp  %o0, 0x11
    4950:	02 80 00 62 	be  4ad8 <read_17>
    4954:	01 00 00 00 	nop 
    4958:	80 a2 20 10 	cmp  %o0, 0x10
    495c:	02 80 00 62 	be  4ae4 <read_16>
    4960:	01 00 00 00 	nop 
    4964:	80 a2 20 0f 	cmp  %o0, 0xf
    4968:	02 80 00 62 	be  4af0 <read_15>
    496c:	01 00 00 00 	nop 
    4970:	80 a2 20 0e 	cmp  %o0, 0xe
    4974:	02 80 00 62 	be  4afc <read_14>
    4978:	01 00 00 00 	nop 
    497c:	80 a2 20 0d 	cmp  %o0, 0xd
    4980:	02 80 00 62 	be  4b08 <read_13>
    4984:	01 00 00 00 	nop 
    4988:	80 a2 20 0c 	cmp  %o0, 0xc
    498c:	02 80 00 62 	be  4b14 <read_12>
    4990:	01 00 00 00 	nop 
    4994:	80 a2 20 0b 	cmp  %o0, 0xb
    4998:	02 80 00 62 	be  4b20 <read_11>
    499c:	01 00 00 00 	nop 
    49a0:	80 a2 20 0a 	cmp  %o0, 0xa
    49a4:	02 80 00 62 	be  4b2c <read_10>
    49a8:	01 00 00 00 	nop 
    49ac:	80 a2 20 09 	cmp  %o0, 9
    49b0:	02 80 00 62 	be  4b38 <read_9>
    49b4:	01 00 00 00 	nop 
    49b8:	80 a2 20 08 	cmp  %o0, 8
    49bc:	02 80 00 62 	be  4b44 <read_8>
    49c0:	01 00 00 00 	nop 
    49c4:	80 a2 20 07 	cmp  %o0, 7
    49c8:	02 80 00 62 	be  4b50 <read_7>
    49cc:	01 00 00 00 	nop 
    49d0:	80 a2 20 06 	cmp  %o0, 6
    49d4:	02 80 00 62 	be  4b5c <read_6>
    49d8:	01 00 00 00 	nop 
    49dc:	80 a2 20 05 	cmp  %o0, 5
    49e0:	02 80 00 62 	be  4b68 <read_5>
    49e4:	01 00 00 00 	nop 
    49e8:	80 a2 20 04 	cmp  %o0, 4
    49ec:	02 80 00 62 	be  4b74 <read_4>
    49f0:	01 00 00 00 	nop 
    49f4:	80 a2 20 03 	cmp  %o0, 3
    49f8:	02 80 00 62 	be  4b80 <read_3>
    49fc:	01 00 00 00 	nop 
    4a00:	80 a2 20 02 	cmp  %o0, 2
    4a04:	02 80 00 62 	be  4b8c <read_2>
    4a08:	01 00 00 00 	nop 
    4a0c:	80 a2 20 01 	cmp  %o0, 1
    4a10:	02 80 00 62 	be  4b98 <read_1>
    4a14:	01 00 00 00 	nop 
    4a18:	80 a2 20 00 	cmp  %o0, 0
    4a1c:	02 80 00 62 	be  4ba4 <read_0>
    4a20:	01 00 00 00 	nop 
    4a24:	90 10 00 00 	mov  %g0, %o0
    4a28:	10 80 00 62 	b  4bb0 <ret_block>
    4a2c:	01 00 00 00 	nop 

00004a30 <read_31>:
    4a30:	91 47 c0 00 	rd  %asr31, %o0
    4a34:	10 80 00 5f 	b  4bb0 <ret_block>
    4a38:	01 00 00 00 	nop 

00004a3c <read_30>:
    4a3c:	91 47 80 00 	rd  %asr30, %o0
    4a40:	10 80 00 5c 	b  4bb0 <ret_block>
    4a44:	01 00 00 00 	nop 

00004a48 <read_29>:
    4a48:	91 47 40 00 	rd  %asr29, %o0
    4a4c:	10 80 00 59 	b  4bb0 <ret_block>
    4a50:	01 00 00 00 	nop 

00004a54 <read_28>:
    4a54:	91 47 00 00 	rd  %asr28, %o0
    4a58:	10 80 00 56 	b  4bb0 <ret_block>
    4a5c:	01 00 00 00 	nop 

00004a60 <read_27>:
    4a60:	91 46 c0 00 	rd  %asr27, %o0
    4a64:	10 80 00 53 	b  4bb0 <ret_block>
    4a68:	01 00 00 00 	nop 

00004a6c <read_26>:
    4a6c:	91 46 80 00 	rd  %asr26, %o0
    4a70:	10 80 00 50 	b  4bb0 <ret_block>
    4a74:	01 00 00 00 	nop 

00004a78 <read_25>:
    4a78:	91 46 40 00 	rd  %asr25, %o0
    4a7c:	10 80 00 4d 	b  4bb0 <ret_block>
    4a80:	01 00 00 00 	nop 

00004a84 <read_24>:
    4a84:	91 46 00 00 	rd  %asr24, %o0
    4a88:	10 80 00 4a 	b  4bb0 <ret_block>
    4a8c:	01 00 00 00 	nop 

00004a90 <read_23>:
    4a90:	91 45 c0 00 	rd  %asr23, %o0
    4a94:	10 80 00 47 	b  4bb0 <ret_block>
    4a98:	01 00 00 00 	nop 

00004a9c <read_22>:
    4a9c:	91 45 80 00 	rd  %asr22, %o0
    4aa0:	10 80 00 44 	b  4bb0 <ret_block>
    4aa4:	01 00 00 00 	nop 

00004aa8 <read_21>:
    4aa8:	91 45 40 00 	rd  %asr21, %o0
    4aac:	10 80 00 41 	b  4bb0 <ret_block>
    4ab0:	01 00 00 00 	nop 

00004ab4 <read_20>:
    4ab4:	91 45 00 00 	rd  %asr20, %o0
    4ab8:	10 80 00 3e 	b  4bb0 <ret_block>
    4abc:	01 00 00 00 	nop 

00004ac0 <read_19>:
    4ac0:	91 44 c0 00 	rd  %asr19, %o0
    4ac4:	10 80 00 3b 	b  4bb0 <ret_block>
    4ac8:	01 00 00 00 	nop 

00004acc <read_18>:
    4acc:	91 44 80 00 	rd  %asr18, %o0
    4ad0:	10 80 00 38 	b  4bb0 <ret_block>
    4ad4:	01 00 00 00 	nop 

00004ad8 <read_17>:
    4ad8:	91 44 40 00 	rd  %asr17, %o0
    4adc:	10 80 00 35 	b  4bb0 <ret_block>
    4ae0:	01 00 00 00 	nop 

00004ae4 <read_16>:
    4ae4:	91 44 00 00 	rd  %asr16, %o0
    4ae8:	10 80 00 32 	b  4bb0 <ret_block>
    4aec:	01 00 00 00 	nop 

00004af0 <read_15>:
    4af0:	91 43 c0 00 	rd  %asr15, %o0
    4af4:	10 80 00 2f 	b  4bb0 <ret_block>
    4af8:	01 00 00 00 	nop 

00004afc <read_14>:
    4afc:	91 43 80 00 	rd  %asr14, %o0
    4b00:	10 80 00 2c 	b  4bb0 <ret_block>
    4b04:	01 00 00 00 	nop 

00004b08 <read_13>:
    4b08:	91 43 40 00 	rd  %asr13, %o0
    4b0c:	10 80 00 29 	b  4bb0 <ret_block>
    4b10:	01 00 00 00 	nop 

00004b14 <read_12>:
    4b14:	91 43 00 00 	rd  %asr12, %o0
    4b18:	10 80 00 26 	b  4bb0 <ret_block>
    4b1c:	01 00 00 00 	nop 

00004b20 <read_11>:
    4b20:	91 42 c0 00 	rd  %asr11, %o0
    4b24:	10 80 00 23 	b  4bb0 <ret_block>
    4b28:	01 00 00 00 	nop 

00004b2c <read_10>:
    4b2c:	91 42 80 00 	rd  %asr10, %o0
    4b30:	10 80 00 20 	b  4bb0 <ret_block>
    4b34:	01 00 00 00 	nop 

00004b38 <read_9>:
    4b38:	91 42 40 00 	rd  %asr9, %o0
    4b3c:	10 80 00 1d 	b  4bb0 <ret_block>
    4b40:	01 00 00 00 	nop 

00004b44 <read_8>:
    4b44:	91 42 00 00 	rd  %asr8, %o0
    4b48:	10 80 00 1a 	b  4bb0 <ret_block>
    4b4c:	01 00 00 00 	nop 

00004b50 <read_7>:
    4b50:	91 41 c0 00 	rd  %asr7, %o0
    4b54:	10 80 00 17 	b  4bb0 <ret_block>
    4b58:	01 00 00 00 	nop 

00004b5c <read_6>:
    4b5c:	91 41 80 00 	rd  %asr6, %o0
    4b60:	10 80 00 14 	b  4bb0 <ret_block>
    4b64:	01 00 00 00 	nop 

00004b68 <read_5>:
    4b68:	91 41 40 00 	rd  %asr5, %o0
    4b6c:	10 80 00 11 	b  4bb0 <ret_block>
    4b70:	01 00 00 00 	nop 

00004b74 <read_4>:
    4b74:	91 41 00 00 	rd  %asr4, %o0
    4b78:	10 80 00 0e 	b  4bb0 <ret_block>
    4b7c:	01 00 00 00 	nop 

00004b80 <read_3>:
    4b80:	91 40 c0 00 	rd  %asr3, %o0
    4b84:	10 80 00 0b 	b  4bb0 <ret_block>
    4b88:	01 00 00 00 	nop 

00004b8c <read_2>:
    4b8c:	91 40 80 00 	rd  %asr2, %o0
    4b90:	10 80 00 08 	b  4bb0 <ret_block>
    4b94:	01 00 00 00 	nop 

00004b98 <read_1>:
    4b98:	91 40 40 00 	rd  %asr1, %o0
    4b9c:	10 80 00 05 	b  4bb0 <ret_block>
    4ba0:	01 00 00 00 	nop 

00004ba4 <read_0>:
    4ba4:	91 40 00 00 	rd  %y, %o0
    4ba8:	10 80 00 02 	b  4bb0 <ret_block>
    4bac:	01 00 00 00 	nop 

00004bb0 <ret_block>:
    4bb0:	81 e0 00 00 	save 
    4bb4:	81 c4 80 00 	jmp  %l2
    4bb8:	81 cc a0 04 	rett  %l2 + 4
    4bbc:	01 00 00 00 	nop 

00004bc0 <ajit_sys_read_asr>:
    4bc0:	91 d0 20 10 	ta  0x10
    4bc4:	01 00 00 00 	nop 
    4bc8:	81 c3 e0 08 	retl 
    4bcc:	01 00 00 00 	nop 
	...

00004c00 <page_table_setup>:
    4c00:	03 00 00 17 	sethi  %hi(0x5c00), %g1
    4c04:	82 10 60 00 	mov  %g1, %g1	! 5c00 <PAGE_TABLE_BASE>
    4c08:	88 10 28 00 	mov  0x800, %g4
    4c0c:	88 00 40 04 	add  %g1, %g4, %g4
    4c10:	89 31 20 04 	srl  %g4, 4, %g4
    4c14:	88 11 20 01 	or  %g4, 1, %g4
    4c18:	8a 10 2c 00 	mov  0xc00, %g5
    4c1c:	86 01 40 01 	add  %g5, %g1, %g3
    4c20:	c8 20 c0 00 	st  %g4, [ %g3 ]
    4c24:	88 10 21 00 	mov  0x100, %g4
    4c28:	88 00 40 04 	add  %g1, %g4, %g4
    4c2c:	89 31 20 04 	srl  %g4, 4, %g4
    4c30:	88 11 20 01 	or  %g4, 1, %g4
    4c34:	8a 10 28 00 	mov  0x800, %g5
    4c38:	86 01 40 01 	add  %g5, %g1, %g3
    4c3c:	c8 20 c0 00 	st  %g4, [ %g3 ]
    4c40:	88 10 20 00 	clr  %g4
    4c44:	88 00 40 04 	add  %g1, %g4, %g4
    4c48:	89 31 20 04 	srl  %g4, 4, %g4
    4c4c:	88 11 20 01 	or  %g4, 1, %g4
    4c50:	8a 10 21 00 	mov  0x100, %g5
    4c54:	86 01 40 01 	add  %g5, %g1, %g3
    4c58:	c8 20 c0 00 	st  %g4, [ %g3 ]
    4c5c:	84 10 20 8a 	mov  0x8a, %g2
    4c60:	8a 10 20 00 	clr  %g5
    4c64:	86 01 40 01 	add  %g5, %g1, %g3
    4c68:	c4 20 c0 00 	st  %g2, [ %g3 ]
    4c6c:	84 10 21 8a 	mov  0x18a, %g2
    4c70:	8a 10 20 04 	mov  4, %g5
    4c74:	86 01 40 01 	add  %g5, %g1, %g3
    4c78:	c4 20 c0 00 	st  %g2, [ %g3 ]
    4c7c:	84 10 22 8a 	mov  0x28a, %g2
    4c80:	8a 10 20 08 	mov  8, %g5
    4c84:	86 01 40 01 	add  %g5, %g1, %g3
    4c88:	c4 20 c0 00 	st  %g2, [ %g3 ]
    4c8c:	84 10 23 8a 	mov  0x38a, %g2
    4c90:	8a 10 20 0c 	mov  0xc, %g5
    4c94:	86 01 40 01 	add  %g5, %g1, %g3
    4c98:	c4 20 c0 00 	st  %g2, [ %g3 ]
    4c9c:	84 10 24 8a 	mov  0x48a, %g2
    4ca0:	8a 10 20 10 	mov  0x10, %g5
    4ca4:	86 01 40 01 	add  %g5, %g1, %g3
    4ca8:	c4 20 c0 00 	st  %g2, [ %g3 ]
    4cac:	84 10 25 8a 	mov  0x58a, %g2
    4cb0:	8a 10 20 14 	mov  0x14, %g5
    4cb4:	86 01 40 01 	add  %g5, %g1, %g3
    4cb8:	c4 20 c0 00 	st  %g2, [ %g3 ]
    4cbc:	84 10 26 8a 	mov  0x68a, %g2
    4cc0:	8a 10 20 18 	mov  0x18, %g5
    4cc4:	86 01 40 01 	add  %g5, %g1, %g3
    4cc8:	c4 20 c0 00 	st  %g2, [ %g3 ]
    4ccc:	84 10 27 8a 	mov  0x78a, %g2
    4cd0:	8a 10 20 1c 	mov  0x1c, %g5
    4cd4:	86 01 40 01 	add  %g5, %g1, %g3
    4cd8:	c4 20 c0 00 	st  %g2, [ %g3 ]
    4cdc:	84 10 28 8a 	mov  0x88a, %g2
    4ce0:	8a 10 20 20 	mov  0x20, %g5
    4ce4:	86 01 40 01 	add  %g5, %g1, %g3
    4ce8:	c4 20 c0 00 	st  %g2, [ %g3 ]
    4cec:	84 10 29 8a 	mov  0x98a, %g2
    4cf0:	8a 10 20 24 	mov  0x24, %g5
    4cf4:	86 01 40 01 	add  %g5, %g1, %g3
    4cf8:	c4 20 c0 00 	st  %g2, [ %g3 ]
    4cfc:	84 10 2a 8e 	mov  0xa8e, %g2
    4d00:	8a 10 20 28 	mov  0x28, %g5
    4d04:	86 01 40 01 	add  %g5, %g1, %g3
    4d08:	c4 20 c0 00 	st  %g2, [ %g3 ]
    4d0c:	84 10 2b 8e 	mov  0xb8e, %g2
    4d10:	8a 10 20 2c 	mov  0x2c, %g5
    4d14:	86 01 40 01 	add  %g5, %g1, %g3
    4d18:	c4 20 c0 00 	st  %g2, [ %g3 ]
    4d1c:	84 10 2c 8e 	mov  0xc8e, %g2
    4d20:	8a 10 20 30 	mov  0x30, %g5
    4d24:	86 01 40 01 	add  %g5, %g1, %g3
    4d28:	c4 20 c0 00 	st  %g2, [ %g3 ]
    4d2c:	84 10 2d 0e 	mov  0xd0e, %g2
    4d30:	8a 10 20 34 	mov  0x34, %g5
    4d34:	86 01 40 01 	add  %g5, %g1, %g3
    4d38:	c4 20 c0 00 	st  %g2, [ %g3 ]
    4d3c:	05 00 00 80 	sethi  %hi(0x20000), %g2
    4d40:	84 10 a0 16 	or  %g2, 0x16, %g2	! 20016 <ajit_global_interrupt_handlers+0x14d6e>
    4d44:	8a 10 21 20 	mov  0x120, %g5
    4d48:	86 01 40 01 	add  %g5, %g1, %g3
    4d4c:	c4 20 c0 00 	st  %g2, [ %g3 ]
    4d50:	05 00 00 90 	sethi  %hi(0x24000), %g2
    4d54:	84 10 a0 16 	or  %g2, 0x16, %g2	! 24016 <ajit_global_interrupt_handlers+0x18d6e>
    4d58:	8a 10 21 24 	mov  0x124, %g5
    4d5c:	86 01 40 01 	add  %g5, %g1, %g3
    4d60:	c4 20 c0 00 	st  %g2, [ %g3 ]
    4d64:	05 00 00 a0 	sethi  %hi(0x28000), %g2
    4d68:	84 10 a0 16 	or  %g2, 0x16, %g2	! 28016 <ajit_global_interrupt_handlers+0x1cd6e>
    4d6c:	8a 10 21 28 	mov  0x128, %g5
    4d70:	86 01 40 01 	add  %g5, %g1, %g3
    4d74:	c4 20 c0 00 	st  %g2, [ %g3 ]
    4d78:	05 00 00 b0 	sethi  %hi(0x2c000), %g2
    4d7c:	84 10 a0 16 	or  %g2, 0x16, %g2	! 2c016 <ajit_global_interrupt_handlers+0x20d6e>
    4d80:	8a 10 21 2c 	mov  0x12c, %g5
    4d84:	86 01 40 01 	add  %g5, %g1, %g3
    4d88:	c4 20 c0 00 	st  %g2, [ %g3 ]
    4d8c:	05 00 00 c0 	sethi  %hi(0x30000), %g2
    4d90:	84 10 a0 16 	or  %g2, 0x16, %g2	! 30016 <ajit_global_interrupt_handlers+0x24d6e>
    4d94:	8a 10 21 30 	mov  0x130, %g5
    4d98:	86 01 40 01 	add  %g5, %g1, %g3
    4d9c:	c4 20 c0 00 	st  %g2, [ %g3 ]
    4da0:	05 00 00 d0 	sethi  %hi(0x34000), %g2
    4da4:	84 10 a0 16 	or  %g2, 0x16, %g2	! 34016 <ajit_global_interrupt_handlers+0x28d6e>
    4da8:	8a 10 21 34 	mov  0x134, %g5
    4dac:	86 01 40 01 	add  %g5, %g1, %g3
    4db0:	c4 20 c0 00 	st  %g2, [ %g3 ]
    4db4:	05 00 00 e0 	sethi  %hi(0x38000), %g2
    4db8:	84 10 a0 16 	or  %g2, 0x16, %g2	! 38016 <ajit_global_interrupt_handlers+0x2cd6e>
    4dbc:	8a 10 21 38 	mov  0x138, %g5
    4dc0:	86 01 40 01 	add  %g5, %g1, %g3
    4dc4:	c4 20 c0 00 	st  %g2, [ %g3 ]
    4dc8:	05 00 00 f0 	sethi  %hi(0x3c000), %g2
    4dcc:	84 10 a0 16 	or  %g2, 0x16, %g2	! 3c016 <ajit_global_interrupt_handlers+0x30d6e>
    4dd0:	8a 10 21 3c 	mov  0x13c, %g5
    4dd4:	86 01 40 01 	add  %g5, %g1, %g3
    4dd8:	c4 20 c0 00 	st  %g2, [ %g3 ]
    4ddc:	05 00 04 00 	sethi  %hi(0x100000), %g2
    4de0:	84 10 a0 8e 	or  %g2, 0x8e, %g2	! 10008e <ajit_global_interrupt_handlers+0xf4de6>
    4de4:	8a 10 28 04 	mov  0x804, %g5
    4de8:	86 01 40 01 	add  %g5, %g1, %g3
    4dec:	c4 20 c0 00 	st  %g2, [ %g3 ]
    4df0:	05 00 08 00 	sethi  %hi(0x200000), %g2
    4df4:	84 10 a0 8e 	or  %g2, 0x8e, %g2	! 20008e <ajit_global_interrupt_handlers+0x1f4de6>
    4df8:	8a 10 28 08 	mov  0x808, %g5
    4dfc:	86 01 40 01 	add  %g5, %g1, %g3
    4e00:	c4 20 c0 00 	st  %g2, [ %g3 ]
    4e04:	05 00 0c 00 	sethi  %hi(0x300000), %g2
    4e08:	84 10 a0 8e 	or  %g2, 0x8e, %g2	! 30008e <ajit_global_interrupt_handlers+0x2f4de6>
    4e0c:	8a 10 28 0c 	mov  0x80c, %g5
    4e10:	86 01 40 01 	add  %g5, %g1, %g3
    4e14:	c4 20 c0 00 	st  %g2, [ %g3 ]
    4e18:	05 00 10 00 	sethi  %hi(0x400000), %g2
    4e1c:	84 10 a0 8e 	or  %g2, 0x8e, %g2	! 40008e <ajit_global_interrupt_handlers+0x3f4de6>
    4e20:	8a 10 28 10 	mov  0x810, %g5
    4e24:	86 01 40 01 	add  %g5, %g1, %g3
    4e28:	c4 20 c0 00 	st  %g2, [ %g3 ]
    4e2c:	05 00 14 00 	sethi  %hi(0x500000), %g2
    4e30:	84 10 a0 8e 	or  %g2, 0x8e, %g2	! 50008e <ajit_global_interrupt_handlers+0x4f4de6>
    4e34:	8a 10 28 14 	mov  0x814, %g5
    4e38:	86 01 40 01 	add  %g5, %g1, %g3
    4e3c:	c4 20 c0 00 	st  %g2, [ %g3 ]
    4e40:	05 00 18 00 	sethi  %hi(0x600000), %g2
    4e44:	84 10 a0 8e 	or  %g2, 0x8e, %g2	! 60008e <ajit_global_interrupt_handlers+0x5f4de6>
    4e48:	8a 10 28 18 	mov  0x818, %g5
    4e4c:	86 01 40 01 	add  %g5, %g1, %g3
    4e50:	c4 20 c0 00 	st  %g2, [ %g3 ]
    4e54:	05 00 1c 00 	sethi  %hi(0x700000), %g2
    4e58:	84 10 a0 8e 	or  %g2, 0x8e, %g2	! 70008e <ajit_global_interrupt_handlers+0x6f4de6>
    4e5c:	8a 10 28 1c 	mov  0x81c, %g5
    4e60:	86 01 40 01 	add  %g5, %g1, %g3
    4e64:	c4 20 c0 00 	st  %g2, [ %g3 ]
    4e68:	05 00 20 00 	sethi  %hi(0x800000), %g2
    4e6c:	84 10 a0 8e 	or  %g2, 0x8e, %g2	! 80008e <ajit_global_interrupt_handlers+0x7f4de6>
    4e70:	8a 10 28 20 	mov  0x820, %g5
    4e74:	86 01 40 01 	add  %g5, %g1, %g3
    4e78:	c4 20 c0 00 	st  %g2, [ %g3 ]
    4e7c:	05 00 24 00 	sethi  %hi(0x900000), %g2
    4e80:	84 10 a0 8e 	or  %g2, 0x8e, %g2	! 90008e <ajit_global_interrupt_handlers+0x8f4de6>
    4e84:	8a 10 28 24 	mov  0x824, %g5
    4e88:	86 01 40 01 	add  %g5, %g1, %g3
    4e8c:	c4 20 c0 00 	st  %g2, [ %g3 ]
    4e90:	05 00 28 00 	sethi  %hi(0xa00000), %g2
    4e94:	84 10 a0 8e 	or  %g2, 0x8e, %g2	! a0008e <ajit_global_interrupt_handlers+0x9f4de6>
    4e98:	8a 10 28 28 	mov  0x828, %g5
    4e9c:	86 01 40 01 	add  %g5, %g1, %g3
    4ea0:	c4 20 c0 00 	st  %g2, [ %g3 ]
    4ea4:	05 00 2c 00 	sethi  %hi(0xb00000), %g2
    4ea8:	84 10 a0 8e 	or  %g2, 0x8e, %g2	! b0008e <ajit_global_interrupt_handlers+0xaf4de6>
    4eac:	8a 10 28 2c 	mov  0x82c, %g5
    4eb0:	86 01 40 01 	add  %g5, %g1, %g3
    4eb4:	c4 20 c0 00 	st  %g2, [ %g3 ]
    4eb8:	05 00 30 00 	sethi  %hi(0xc00000), %g2
    4ebc:	84 10 a0 8e 	or  %g2, 0x8e, %g2	! c0008e <ajit_global_interrupt_handlers+0xbf4de6>
    4ec0:	8a 10 28 30 	mov  0x830, %g5
    4ec4:	86 01 40 01 	add  %g5, %g1, %g3
    4ec8:	c4 20 c0 00 	st  %g2, [ %g3 ]
    4ecc:	05 00 34 00 	sethi  %hi(0xd00000), %g2
    4ed0:	84 10 a0 8e 	or  %g2, 0x8e, %g2	! d0008e <ajit_global_interrupt_handlers+0xcf4de6>
    4ed4:	8a 10 28 34 	mov  0x834, %g5
    4ed8:	86 01 40 01 	add  %g5, %g1, %g3
    4edc:	c4 20 c0 00 	st  %g2, [ %g3 ]
    4ee0:	05 00 38 00 	sethi  %hi(0xe00000), %g2
    4ee4:	84 10 a0 8e 	or  %g2, 0x8e, %g2	! e0008e <ajit_global_interrupt_handlers+0xdf4de6>
    4ee8:	8a 10 28 38 	mov  0x838, %g5
    4eec:	86 01 40 01 	add  %g5, %g1, %g3
    4ef0:	c4 20 c0 00 	st  %g2, [ %g3 ]
    4ef4:	05 00 3c 00 	sethi  %hi(0xf00000), %g2
    4ef8:	84 10 a0 8e 	or  %g2, 0x8e, %g2	! f0008e <ajit_global_interrupt_handlers+0xef4de6>
    4efc:	8a 10 28 3c 	mov  0x83c, %g5
    4f00:	86 01 40 01 	add  %g5, %g1, %g3
    4f04:	c4 20 c0 00 	st  %g2, [ %g3 ]
    4f08:	05 00 40 00 	sethi  %hi(0x1000000), %g2
    4f0c:	84 10 a0 8e 	or  %g2, 0x8e, %g2	! 100008e <ajit_global_interrupt_handlers+0xff4de6>
    4f10:	8a 10 28 40 	mov  0x840, %g5
    4f14:	86 01 40 01 	add  %g5, %g1, %g3
    4f18:	c4 20 c0 00 	st  %g2, [ %g3 ]
    4f1c:	05 00 44 00 	sethi  %hi(0x1100000), %g2
    4f20:	84 10 a0 8e 	or  %g2, 0x8e, %g2	! 110008e <ajit_global_interrupt_handlers+0x10f4de6>
    4f24:	8a 10 28 44 	mov  0x844, %g5
    4f28:	86 01 40 01 	add  %g5, %g1, %g3
    4f2c:	c4 20 c0 00 	st  %g2, [ %g3 ]
    4f30:	05 00 48 00 	sethi  %hi(0x1200000), %g2
    4f34:	84 10 a0 8e 	or  %g2, 0x8e, %g2	! 120008e <ajit_global_interrupt_handlers+0x11f4de6>
    4f38:	8a 10 28 48 	mov  0x848, %g5
    4f3c:	86 01 40 01 	add  %g5, %g1, %g3
    4f40:	c4 20 c0 00 	st  %g2, [ %g3 ]
    4f44:	05 00 4c 00 	sethi  %hi(0x1300000), %g2
    4f48:	84 10 a0 8e 	or  %g2, 0x8e, %g2	! 130008e <ajit_global_interrupt_handlers+0x12f4de6>
    4f4c:	8a 10 28 4c 	mov  0x84c, %g5
    4f50:	86 01 40 01 	add  %g5, %g1, %g3
    4f54:	c4 20 c0 00 	st  %g2, [ %g3 ]
    4f58:	05 00 50 00 	sethi  %hi(0x1400000), %g2
    4f5c:	84 10 a0 8e 	or  %g2, 0x8e, %g2	! 140008e <ajit_global_interrupt_handlers+0x13f4de6>
    4f60:	8a 10 28 50 	mov  0x850, %g5
    4f64:	86 01 40 01 	add  %g5, %g1, %g3
    4f68:	c4 20 c0 00 	st  %g2, [ %g3 ]
    4f6c:	05 00 54 00 	sethi  %hi(0x1500000), %g2
    4f70:	84 10 a0 8e 	or  %g2, 0x8e, %g2	! 150008e <ajit_global_interrupt_handlers+0x14f4de6>
    4f74:	8a 10 28 54 	mov  0x854, %g5
    4f78:	86 01 40 01 	add  %g5, %g1, %g3
    4f7c:	c4 20 c0 00 	st  %g2, [ %g3 ]
    4f80:	05 00 58 00 	sethi  %hi(0x1600000), %g2
    4f84:	84 10 a0 8e 	or  %g2, 0x8e, %g2	! 160008e <ajit_global_interrupt_handlers+0x15f4de6>
    4f88:	8a 10 28 58 	mov  0x858, %g5
    4f8c:	86 01 40 01 	add  %g5, %g1, %g3
    4f90:	c4 20 c0 00 	st  %g2, [ %g3 ]
    4f94:	05 00 5c 00 	sethi  %hi(0x1700000), %g2
    4f98:	84 10 a0 8e 	or  %g2, 0x8e, %g2	! 170008e <ajit_global_interrupt_handlers+0x16f4de6>
    4f9c:	8a 10 28 5c 	mov  0x85c, %g5
    4fa0:	86 01 40 01 	add  %g5, %g1, %g3
    4fa4:	c4 20 c0 00 	st  %g2, [ %g3 ]
    4fa8:	05 00 60 00 	sethi  %hi(0x1800000), %g2
    4fac:	84 10 a0 8e 	or  %g2, 0x8e, %g2	! 180008e <ajit_global_interrupt_handlers+0x17f4de6>
    4fb0:	8a 10 28 60 	mov  0x860, %g5
    4fb4:	86 01 40 01 	add  %g5, %g1, %g3
    4fb8:	c4 20 c0 00 	st  %g2, [ %g3 ]
    4fbc:	05 00 64 00 	sethi  %hi(0x1900000), %g2
    4fc0:	84 10 a0 8e 	or  %g2, 0x8e, %g2	! 190008e <ajit_global_interrupt_handlers+0x18f4de6>
    4fc4:	8a 10 28 64 	mov  0x864, %g5
    4fc8:	86 01 40 01 	add  %g5, %g1, %g3
    4fcc:	c4 20 c0 00 	st  %g2, [ %g3 ]
    4fd0:	05 00 68 00 	sethi  %hi(0x1a00000), %g2
    4fd4:	84 10 a0 8e 	or  %g2, 0x8e, %g2	! 1a0008e <ajit_global_interrupt_handlers+0x19f4de6>
    4fd8:	8a 10 28 68 	mov  0x868, %g5
    4fdc:	86 01 40 01 	add  %g5, %g1, %g3
    4fe0:	c4 20 c0 00 	st  %g2, [ %g3 ]
    4fe4:	05 00 6c 00 	sethi  %hi(0x1b00000), %g2
    4fe8:	84 10 a0 8e 	or  %g2, 0x8e, %g2	! 1b0008e <ajit_global_interrupt_handlers+0x1af4de6>
    4fec:	8a 10 28 6c 	mov  0x86c, %g5
    4ff0:	86 01 40 01 	add  %g5, %g1, %g3
    4ff4:	c4 20 c0 00 	st  %g2, [ %g3 ]
    4ff8:	05 00 70 00 	sethi  %hi(0x1c00000), %g2
    4ffc:	84 10 a0 8e 	or  %g2, 0x8e, %g2	! 1c0008e <ajit_global_interrupt_handlers+0x1bf4de6>
    5000:	8a 10 28 70 	mov  0x870, %g5
    5004:	86 01 40 01 	add  %g5, %g1, %g3
    5008:	c4 20 c0 00 	st  %g2, [ %g3 ]
    500c:	05 00 74 00 	sethi  %hi(0x1d00000), %g2
    5010:	84 10 a0 8e 	or  %g2, 0x8e, %g2	! 1d0008e <ajit_global_interrupt_handlers+0x1cf4de6>
    5014:	8a 10 28 74 	mov  0x874, %g5
    5018:	86 01 40 01 	add  %g5, %g1, %g3
    501c:	c4 20 c0 00 	st  %g2, [ %g3 ]
    5020:	05 00 78 00 	sethi  %hi(0x1e00000), %g2
    5024:	84 10 a0 8e 	or  %g2, 0x8e, %g2	! 1e0008e <ajit_global_interrupt_handlers+0x1df4de6>
    5028:	8a 10 28 78 	mov  0x878, %g5
    502c:	86 01 40 01 	add  %g5, %g1, %g3
    5030:	c4 20 c0 00 	st  %g2, [ %g3 ]
    5034:	05 00 7c 00 	sethi  %hi(0x1f00000), %g2
    5038:	84 10 a0 8e 	or  %g2, 0x8e, %g2	! 1f0008e <ajit_global_interrupt_handlers+0x1ef4de6>
    503c:	8a 10 28 7c 	mov  0x87c, %g5
    5040:	86 01 40 01 	add  %g5, %g1, %g3
    5044:	c4 20 c0 00 	st  %g2, [ %g3 ]
    5048:	88 10 23 00 	mov  0x300, %g4
    504c:	88 00 40 04 	add  %g1, %g4, %g4
    5050:	89 31 20 04 	srl  %g4, 4, %g4
    5054:	88 11 20 01 	or  %g4, 1, %g4
    5058:	8a 10 28 80 	mov  0x880, %g5
    505c:	86 01 40 01 	add  %g5, %g1, %g3
    5060:	c8 20 c0 00 	st  %g4, [ %g3 ]
    5064:	05 00 80 00 	sethi  %hi(0x2000000), %g2
    5068:	84 10 a0 8e 	or  %g2, 0x8e, %g2	! 200008e <ajit_global_interrupt_handlers+0x1ff4de6>
    506c:	8a 10 23 00 	mov  0x300, %g5
    5070:	86 01 40 01 	add  %g5, %g1, %g3
    5074:	c4 20 c0 00 	st  %g2, [ %g3 ]
    5078:	05 00 80 10 	sethi  %hi(0x2004000), %g2
    507c:	84 10 a0 8e 	or  %g2, 0x8e, %g2	! 200408e <ajit_global_interrupt_handlers+0x1ff8de6>
    5080:	8a 10 23 04 	mov  0x304, %g5
    5084:	86 01 40 01 	add  %g5, %g1, %g3
    5088:	c4 20 c0 00 	st  %g2, [ %g3 ]
    508c:	05 00 80 20 	sethi  %hi(0x2008000), %g2
    5090:	84 10 a0 8e 	or  %g2, 0x8e, %g2	! 200808e <ajit_global_interrupt_handlers+0x1ffcde6>
    5094:	8a 10 23 08 	mov  0x308, %g5
    5098:	86 01 40 01 	add  %g5, %g1, %g3
    509c:	c4 20 c0 00 	st  %g2, [ %g3 ]
    50a0:	05 00 80 30 	sethi  %hi(0x200c000), %g2
    50a4:	84 10 a0 8e 	or  %g2, 0x8e, %g2	! 200c08e <ajit_global_interrupt_handlers+0x2000de6>
    50a8:	8a 10 23 0c 	mov  0x30c, %g5
    50ac:	86 01 40 01 	add  %g5, %g1, %g3
    50b0:	c4 20 c0 00 	st  %g2, [ %g3 ]
    50b4:	05 00 80 40 	sethi  %hi(0x2010000), %g2
    50b8:	84 10 a0 8e 	or  %g2, 0x8e, %g2	! 201008e <ajit_global_interrupt_handlers+0x2004de6>
    50bc:	8a 10 23 10 	mov  0x310, %g5
    50c0:	86 01 40 01 	add  %g5, %g1, %g3
    50c4:	c4 20 c0 00 	st  %g2, [ %g3 ]
    50c8:	05 00 80 50 	sethi  %hi(0x2014000), %g2
    50cc:	84 10 a0 8e 	or  %g2, 0x8e, %g2	! 201408e <ajit_global_interrupt_handlers+0x2008de6>
    50d0:	8a 10 23 14 	mov  0x314, %g5
    50d4:	86 01 40 01 	add  %g5, %g1, %g3
    50d8:	c4 20 c0 00 	st  %g2, [ %g3 ]
    50dc:	05 00 80 60 	sethi  %hi(0x2018000), %g2
    50e0:	84 10 a0 8e 	or  %g2, 0x8e, %g2	! 201808e <ajit_global_interrupt_handlers+0x200cde6>
    50e4:	8a 10 23 18 	mov  0x318, %g5
    50e8:	86 01 40 01 	add  %g5, %g1, %g3
    50ec:	c4 20 c0 00 	st  %g2, [ %g3 ]
    50f0:	05 00 80 70 	sethi  %hi(0x201c000), %g2
    50f4:	84 10 a0 8e 	or  %g2, 0x8e, %g2	! 201c08e <ajit_global_interrupt_handlers+0x2010de6>
    50f8:	8a 10 23 1c 	mov  0x31c, %g5
    50fc:	86 01 40 01 	add  %g5, %g1, %g3
    5100:	c4 20 c0 00 	st  %g2, [ %g3 ]
    5104:	05 00 80 80 	sethi  %hi(0x2020000), %g2
    5108:	84 10 a0 8e 	or  %g2, 0x8e, %g2	! 202008e <ajit_global_interrupt_handlers+0x2014de6>
    510c:	8a 10 23 20 	mov  0x320, %g5
    5110:	86 01 40 01 	add  %g5, %g1, %g3
    5114:	c4 20 c0 00 	st  %g2, [ %g3 ]
    5118:	05 00 80 90 	sethi  %hi(0x2024000), %g2
    511c:	84 10 a0 8e 	or  %g2, 0x8e, %g2	! 202408e <ajit_global_interrupt_handlers+0x2018de6>
    5120:	8a 10 23 24 	mov  0x324, %g5
    5124:	86 01 40 01 	add  %g5, %g1, %g3
    5128:	c4 20 c0 00 	st  %g2, [ %g3 ]
    512c:	05 00 80 a0 	sethi  %hi(0x2028000), %g2
    5130:	84 10 a0 8e 	or  %g2, 0x8e, %g2	! 202808e <ajit_global_interrupt_handlers+0x201cde6>
    5134:	8a 10 23 28 	mov  0x328, %g5
    5138:	86 01 40 01 	add  %g5, %g1, %g3
    513c:	c4 20 c0 00 	st  %g2, [ %g3 ]
    5140:	05 00 80 b0 	sethi  %hi(0x202c000), %g2
    5144:	84 10 a0 8e 	or  %g2, 0x8e, %g2	! 202c08e <ajit_global_interrupt_handlers+0x2020de6>
    5148:	8a 10 23 2c 	mov  0x32c, %g5
    514c:	86 01 40 01 	add  %g5, %g1, %g3
    5150:	c4 20 c0 00 	st  %g2, [ %g3 ]
    5154:	05 00 80 c0 	sethi  %hi(0x2030000), %g2
    5158:	84 10 a0 8e 	or  %g2, 0x8e, %g2	! 203008e <ajit_global_interrupt_handlers+0x2024de6>
    515c:	8a 10 23 30 	mov  0x330, %g5
    5160:	86 01 40 01 	add  %g5, %g1, %g3
    5164:	c4 20 c0 00 	st  %g2, [ %g3 ]
    5168:	05 00 80 d0 	sethi  %hi(0x2034000), %g2
    516c:	84 10 a0 8e 	or  %g2, 0x8e, %g2	! 203408e <ajit_global_interrupt_handlers+0x2028de6>
    5170:	8a 10 23 34 	mov  0x334, %g5
    5174:	86 01 40 01 	add  %g5, %g1, %g3
    5178:	c4 20 c0 00 	st  %g2, [ %g3 ]
    517c:	05 00 80 e0 	sethi  %hi(0x2038000), %g2
    5180:	84 10 a0 8e 	or  %g2, 0x8e, %g2	! 203808e <ajit_global_interrupt_handlers+0x202cde6>
    5184:	8a 10 23 38 	mov  0x338, %g5
    5188:	86 01 40 01 	add  %g5, %g1, %g3
    518c:	c4 20 c0 00 	st  %g2, [ %g3 ]
    5190:	05 00 80 f0 	sethi  %hi(0x203c000), %g2
    5194:	84 10 a0 8e 	or  %g2, 0x8e, %g2	! 203c08e <ajit_global_interrupt_handlers+0x2030de6>
    5198:	8a 10 23 3c 	mov  0x33c, %g5
    519c:	86 01 40 01 	add  %g5, %g1, %g3
    51a0:	c4 20 c0 00 	st  %g2, [ %g3 ]
    51a4:	88 10 22 00 	mov  0x200, %g4
    51a8:	88 00 40 04 	add  %g1, %g4, %g4
    51ac:	89 31 20 04 	srl  %g4, 4, %g4
    51b0:	88 11 20 01 	or  %g4, 1, %g4
    51b4:	8a 10 23 40 	mov  0x340, %g5
    51b8:	86 01 40 01 	add  %g5, %g1, %g3
    51bc:	c8 20 c0 00 	st  %g4, [ %g3 ]
    51c0:	05 00 81 00 	sethi  %hi(0x2040000), %g2
    51c4:	84 10 a0 92 	or  %g2, 0x92, %g2	! 2040092 <ajit_global_interrupt_handlers+0x2034dea>
    51c8:	8a 10 22 00 	mov  0x200, %g5
    51cc:	86 01 40 01 	add  %g5, %g1, %g3
    51d0:	c4 20 c0 00 	st  %g2, [ %g3 ]
    51d4:	05 00 84 00 	sethi  %hi(0x2100000), %g2
    51d8:	84 10 a0 8e 	or  %g2, 0x8e, %g2	! 210008e <ajit_global_interrupt_handlers+0x20f4de6>
    51dc:	8a 10 28 84 	mov  0x884, %g5
    51e0:	86 01 40 01 	add  %g5, %g1, %g3
    51e4:	c4 20 c0 00 	st  %g2, [ %g3 ]
    51e8:	05 00 88 00 	sethi  %hi(0x2200000), %g2
    51ec:	84 10 a0 8e 	or  %g2, 0x8e, %g2	! 220008e <ajit_global_interrupt_handlers+0x21f4de6>
    51f0:	8a 10 28 88 	mov  0x888, %g5
    51f4:	86 01 40 01 	add  %g5, %g1, %g3
    51f8:	c4 20 c0 00 	st  %g2, [ %g3 ]
    51fc:	05 00 8c 00 	sethi  %hi(0x2300000), %g2
    5200:	84 10 a0 8e 	or  %g2, 0x8e, %g2	! 230008e <ajit_global_interrupt_handlers+0x22f4de6>
    5204:	8a 10 28 8c 	mov  0x88c, %g5
    5208:	86 01 40 01 	add  %g5, %g1, %g3
    520c:	c4 20 c0 00 	st  %g2, [ %g3 ]
    5210:	05 00 90 00 	sethi  %hi(0x2400000), %g2
    5214:	84 10 a0 8e 	or  %g2, 0x8e, %g2	! 240008e <ajit_global_interrupt_handlers+0x23f4de6>
    5218:	8a 10 28 90 	mov  0x890, %g5
    521c:	86 01 40 01 	add  %g5, %g1, %g3
    5220:	c4 20 c0 00 	st  %g2, [ %g3 ]
    5224:	05 00 94 00 	sethi  %hi(0x2500000), %g2
    5228:	84 10 a0 8e 	or  %g2, 0x8e, %g2	! 250008e <ajit_global_interrupt_handlers+0x24f4de6>
    522c:	8a 10 28 94 	mov  0x894, %g5
    5230:	86 01 40 01 	add  %g5, %g1, %g3
    5234:	c4 20 c0 00 	st  %g2, [ %g3 ]
    5238:	05 00 98 00 	sethi  %hi(0x2600000), %g2
    523c:	84 10 a0 8e 	or  %g2, 0x8e, %g2	! 260008e <ajit_global_interrupt_handlers+0x25f4de6>
    5240:	8a 10 28 98 	mov  0x898, %g5
    5244:	86 01 40 01 	add  %g5, %g1, %g3
    5248:	c4 20 c0 00 	st  %g2, [ %g3 ]
    524c:	05 00 9c 00 	sethi  %hi(0x2700000), %g2
    5250:	84 10 a0 8e 	or  %g2, 0x8e, %g2	! 270008e <ajit_global_interrupt_handlers+0x26f4de6>
    5254:	8a 10 28 9c 	mov  0x89c, %g5
    5258:	86 01 40 01 	add  %g5, %g1, %g3
    525c:	c4 20 c0 00 	st  %g2, [ %g3 ]
    5260:	05 00 a0 00 	sethi  %hi(0x2800000), %g2
    5264:	84 10 a0 8e 	or  %g2, 0x8e, %g2	! 280008e <ajit_global_interrupt_handlers+0x27f4de6>
    5268:	8a 10 28 a0 	mov  0x8a0, %g5
    526c:	86 01 40 01 	add  %g5, %g1, %g3
    5270:	c4 20 c0 00 	st  %g2, [ %g3 ]
    5274:	05 00 a4 00 	sethi  %hi(0x2900000), %g2
    5278:	84 10 a0 8e 	or  %g2, 0x8e, %g2	! 290008e <ajit_global_interrupt_handlers+0x28f4de6>
    527c:	8a 10 28 a4 	mov  0x8a4, %g5
    5280:	86 01 40 01 	add  %g5, %g1, %g3
    5284:	c4 20 c0 00 	st  %g2, [ %g3 ]
    5288:	05 00 a8 00 	sethi  %hi(0x2a00000), %g2
    528c:	84 10 a0 8e 	or  %g2, 0x8e, %g2	! 2a0008e <ajit_global_interrupt_handlers+0x29f4de6>
    5290:	8a 10 28 a8 	mov  0x8a8, %g5
    5294:	86 01 40 01 	add  %g5, %g1, %g3
    5298:	c4 20 c0 00 	st  %g2, [ %g3 ]
    529c:	05 00 ac 00 	sethi  %hi(0x2b00000), %g2
    52a0:	84 10 a0 8e 	or  %g2, 0x8e, %g2	! 2b0008e <ajit_global_interrupt_handlers+0x2af4de6>
    52a4:	8a 10 28 ac 	mov  0x8ac, %g5
    52a8:	86 01 40 01 	add  %g5, %g1, %g3
    52ac:	c4 20 c0 00 	st  %g2, [ %g3 ]
    52b0:	05 00 b0 00 	sethi  %hi(0x2c00000), %g2
    52b4:	84 10 a0 8e 	or  %g2, 0x8e, %g2	! 2c0008e <ajit_global_interrupt_handlers+0x2bf4de6>
    52b8:	8a 10 28 b0 	mov  0x8b0, %g5
    52bc:	86 01 40 01 	add  %g5, %g1, %g3
    52c0:	c4 20 c0 00 	st  %g2, [ %g3 ]
    52c4:	05 00 b4 00 	sethi  %hi(0x2d00000), %g2
    52c8:	84 10 a0 8e 	or  %g2, 0x8e, %g2	! 2d0008e <ajit_global_interrupt_handlers+0x2cf4de6>
    52cc:	8a 10 28 b4 	mov  0x8b4, %g5
    52d0:	86 01 40 01 	add  %g5, %g1, %g3
    52d4:	c4 20 c0 00 	st  %g2, [ %g3 ]
    52d8:	05 00 b8 00 	sethi  %hi(0x2e00000), %g2
    52dc:	84 10 a0 8e 	or  %g2, 0x8e, %g2	! 2e0008e <ajit_global_interrupt_handlers+0x2df4de6>
    52e0:	8a 10 28 b8 	mov  0x8b8, %g5
    52e4:	86 01 40 01 	add  %g5, %g1, %g3
    52e8:	c4 20 c0 00 	st  %g2, [ %g3 ]
    52ec:	05 00 bc 00 	sethi  %hi(0x2f00000), %g2
    52f0:	84 10 a0 8e 	or  %g2, 0x8e, %g2	! 2f0008e <ajit_global_interrupt_handlers+0x2ef4de6>
    52f4:	8a 10 28 bc 	mov  0x8bc, %g5
    52f8:	86 01 40 01 	add  %g5, %g1, %g3
    52fc:	c4 20 c0 00 	st  %g2, [ %g3 ]
    5300:	05 00 c0 00 	sethi  %hi(0x3000000), %g2
    5304:	84 10 a0 8e 	or  %g2, 0x8e, %g2	! 300008e <ajit_global_interrupt_handlers+0x2ff4de6>
    5308:	8a 10 28 c0 	mov  0x8c0, %g5
    530c:	86 01 40 01 	add  %g5, %g1, %g3
    5310:	c4 20 c0 00 	st  %g2, [ %g3 ]
    5314:	05 00 c4 00 	sethi  %hi(0x3100000), %g2
    5318:	84 10 a0 8e 	or  %g2, 0x8e, %g2	! 310008e <ajit_global_interrupt_handlers+0x30f4de6>
    531c:	8a 10 28 c4 	mov  0x8c4, %g5
    5320:	86 01 40 01 	add  %g5, %g1, %g3
    5324:	c4 20 c0 00 	st  %g2, [ %g3 ]
    5328:	05 00 c8 00 	sethi  %hi(0x3200000), %g2
    532c:	84 10 a0 8e 	or  %g2, 0x8e, %g2	! 320008e <ajit_global_interrupt_handlers+0x31f4de6>
    5330:	8a 10 28 c8 	mov  0x8c8, %g5
    5334:	86 01 40 01 	add  %g5, %g1, %g3
    5338:	c4 20 c0 00 	st  %g2, [ %g3 ]
    533c:	05 00 cc 00 	sethi  %hi(0x3300000), %g2
    5340:	84 10 a0 8e 	or  %g2, 0x8e, %g2	! 330008e <ajit_global_interrupt_handlers+0x32f4de6>
    5344:	8a 10 28 cc 	mov  0x8cc, %g5
    5348:	86 01 40 01 	add  %g5, %g1, %g3
    534c:	c4 20 c0 00 	st  %g2, [ %g3 ]
    5350:	05 00 d0 00 	sethi  %hi(0x3400000), %g2
    5354:	84 10 a0 8e 	or  %g2, 0x8e, %g2	! 340008e <ajit_global_interrupt_handlers+0x33f4de6>
    5358:	8a 10 28 d0 	mov  0x8d0, %g5
    535c:	86 01 40 01 	add  %g5, %g1, %g3
    5360:	c4 20 c0 00 	st  %g2, [ %g3 ]
    5364:	05 00 d4 00 	sethi  %hi(0x3500000), %g2
    5368:	84 10 a0 8e 	or  %g2, 0x8e, %g2	! 350008e <ajit_global_interrupt_handlers+0x34f4de6>
    536c:	8a 10 28 d4 	mov  0x8d4, %g5
    5370:	86 01 40 01 	add  %g5, %g1, %g3
    5374:	c4 20 c0 00 	st  %g2, [ %g3 ]
    5378:	05 00 d8 00 	sethi  %hi(0x3600000), %g2
    537c:	84 10 a0 8e 	or  %g2, 0x8e, %g2	! 360008e <ajit_global_interrupt_handlers+0x35f4de6>
    5380:	8a 10 28 d8 	mov  0x8d8, %g5
    5384:	86 01 40 01 	add  %g5, %g1, %g3
    5388:	c4 20 c0 00 	st  %g2, [ %g3 ]
    538c:	05 00 dc 00 	sethi  %hi(0x3700000), %g2
    5390:	84 10 a0 8e 	or  %g2, 0x8e, %g2	! 370008e <ajit_global_interrupt_handlers+0x36f4de6>
    5394:	8a 10 28 dc 	mov  0x8dc, %g5
    5398:	86 01 40 01 	add  %g5, %g1, %g3
    539c:	c4 20 c0 00 	st  %g2, [ %g3 ]
    53a0:	05 00 e0 00 	sethi  %hi(0x3800000), %g2
    53a4:	84 10 a0 8e 	or  %g2, 0x8e, %g2	! 380008e <ajit_global_interrupt_handlers+0x37f4de6>
    53a8:	8a 10 28 e0 	mov  0x8e0, %g5
    53ac:	86 01 40 01 	add  %g5, %g1, %g3
    53b0:	c4 20 c0 00 	st  %g2, [ %g3 ]
    53b4:	05 00 e4 00 	sethi  %hi(0x3900000), %g2
    53b8:	84 10 a0 8e 	or  %g2, 0x8e, %g2	! 390008e <ajit_global_interrupt_handlers+0x38f4de6>
    53bc:	8a 10 28 e4 	mov  0x8e4, %g5
    53c0:	86 01 40 01 	add  %g5, %g1, %g3
    53c4:	c4 20 c0 00 	st  %g2, [ %g3 ]
    53c8:	05 00 e8 00 	sethi  %hi(0x3a00000), %g2
    53cc:	84 10 a0 8e 	or  %g2, 0x8e, %g2	! 3a0008e <ajit_global_interrupt_handlers+0x39f4de6>
    53d0:	8a 10 28 e8 	mov  0x8e8, %g5
    53d4:	86 01 40 01 	add  %g5, %g1, %g3
    53d8:	c4 20 c0 00 	st  %g2, [ %g3 ]
    53dc:	05 00 ec 00 	sethi  %hi(0x3b00000), %g2
    53e0:	84 10 a0 8e 	or  %g2, 0x8e, %g2	! 3b0008e <ajit_global_interrupt_handlers+0x3af4de6>
    53e4:	8a 10 28 ec 	mov  0x8ec, %g5
    53e8:	86 01 40 01 	add  %g5, %g1, %g3
    53ec:	c4 20 c0 00 	st  %g2, [ %g3 ]
    53f0:	05 00 f0 00 	sethi  %hi(0x3c00000), %g2
    53f4:	84 10 a0 8e 	or  %g2, 0x8e, %g2	! 3c0008e <ajit_global_interrupt_handlers+0x3bf4de6>
    53f8:	8a 10 28 f0 	mov  0x8f0, %g5
    53fc:	86 01 40 01 	add  %g5, %g1, %g3
    5400:	c4 20 c0 00 	st  %g2, [ %g3 ]
    5404:	05 00 f4 00 	sethi  %hi(0x3d00000), %g2
    5408:	84 10 a0 8e 	or  %g2, 0x8e, %g2	! 3d0008e <ajit_global_interrupt_handlers+0x3cf4de6>
    540c:	8a 10 28 f4 	mov  0x8f4, %g5
    5410:	86 01 40 01 	add  %g5, %g1, %g3
    5414:	c4 20 c0 00 	st  %g2, [ %g3 ]
    5418:	05 00 f8 00 	sethi  %hi(0x3e00000), %g2
    541c:	84 10 a0 8e 	or  %g2, 0x8e, %g2	! 3e0008e <ajit_global_interrupt_handlers+0x3df4de6>
    5420:	8a 10 28 f8 	mov  0x8f8, %g5
    5424:	86 01 40 01 	add  %g5, %g1, %g3
    5428:	c4 20 c0 00 	st  %g2, [ %g3 ]
    542c:	05 00 fc 00 	sethi  %hi(0x3f00000), %g2
    5430:	84 10 a0 8e 	or  %g2, 0x8e, %g2	! 3f0008e <ajit_global_interrupt_handlers+0x3ef4de6>
    5434:	8a 10 28 fc 	mov  0x8fc, %g5
    5438:	86 01 40 01 	add  %g5, %g1, %g3
    543c:	c4 20 c0 00 	st  %g2, [ %g3 ]
    5440:	05 01 00 00 	sethi  %hi(0x4000000), %g2
    5444:	84 10 a0 8e 	or  %g2, 0x8e, %g2	! 400008e <ajit_global_interrupt_handlers+0x3ff4de6>
    5448:	8a 10 29 00 	mov  0x900, %g5
    544c:	86 01 40 01 	add  %g5, %g1, %g3
    5450:	c4 20 c0 00 	st  %g2, [ %g3 ]
    5454:	05 01 04 00 	sethi  %hi(0x4100000), %g2
    5458:	84 10 a0 8e 	or  %g2, 0x8e, %g2	! 410008e <ajit_global_interrupt_handlers+0x40f4de6>
    545c:	8a 10 29 04 	mov  0x904, %g5
    5460:	86 01 40 01 	add  %g5, %g1, %g3
    5464:	c4 20 c0 00 	st  %g2, [ %g3 ]
    5468:	05 01 08 00 	sethi  %hi(0x4200000), %g2
    546c:	84 10 a0 8e 	or  %g2, 0x8e, %g2	! 420008e <ajit_global_interrupt_handlers+0x41f4de6>
    5470:	8a 10 29 08 	mov  0x908, %g5
    5474:	86 01 40 01 	add  %g5, %g1, %g3
    5478:	c4 20 c0 00 	st  %g2, [ %g3 ]
    547c:	05 01 0c 00 	sethi  %hi(0x4300000), %g2
    5480:	84 10 a0 8e 	or  %g2, 0x8e, %g2	! 430008e <ajit_global_interrupt_handlers+0x42f4de6>
    5484:	8a 10 29 0c 	mov  0x90c, %g5
    5488:	86 01 40 01 	add  %g5, %g1, %g3
    548c:	c4 20 c0 00 	st  %g2, [ %g3 ]
    5490:	05 01 10 00 	sethi  %hi(0x4400000), %g2
    5494:	84 10 a0 8e 	or  %g2, 0x8e, %g2	! 440008e <ajit_global_interrupt_handlers+0x43f4de6>
    5498:	8a 10 29 10 	mov  0x910, %g5
    549c:	86 01 40 01 	add  %g5, %g1, %g3
    54a0:	c4 20 c0 00 	st  %g2, [ %g3 ]
    54a4:	05 01 14 00 	sethi  %hi(0x4500000), %g2
    54a8:	84 10 a0 8e 	or  %g2, 0x8e, %g2	! 450008e <ajit_global_interrupt_handlers+0x44f4de6>
    54ac:	8a 10 29 14 	mov  0x914, %g5
    54b0:	86 01 40 01 	add  %g5, %g1, %g3
    54b4:	c4 20 c0 00 	st  %g2, [ %g3 ]
    54b8:	05 01 18 00 	sethi  %hi(0x4600000), %g2
    54bc:	84 10 a0 8e 	or  %g2, 0x8e, %g2	! 460008e <ajit_global_interrupt_handlers+0x45f4de6>
    54c0:	8a 10 29 18 	mov  0x918, %g5
    54c4:	86 01 40 01 	add  %g5, %g1, %g3
    54c8:	c4 20 c0 00 	st  %g2, [ %g3 ]
    54cc:	05 01 1c 00 	sethi  %hi(0x4700000), %g2
    54d0:	84 10 a0 8e 	or  %g2, 0x8e, %g2	! 470008e <ajit_global_interrupt_handlers+0x46f4de6>
    54d4:	8a 10 29 1c 	mov  0x91c, %g5
    54d8:	86 01 40 01 	add  %g5, %g1, %g3
    54dc:	c4 20 c0 00 	st  %g2, [ %g3 ]
    54e0:	05 01 20 00 	sethi  %hi(0x4800000), %g2
    54e4:	84 10 a0 8e 	or  %g2, 0x8e, %g2	! 480008e <ajit_global_interrupt_handlers+0x47f4de6>
    54e8:	8a 10 29 20 	mov  0x920, %g5
    54ec:	86 01 40 01 	add  %g5, %g1, %g3
    54f0:	c4 20 c0 00 	st  %g2, [ %g3 ]
    54f4:	05 01 24 00 	sethi  %hi(0x4900000), %g2
    54f8:	84 10 a0 8e 	or  %g2, 0x8e, %g2	! 490008e <ajit_global_interrupt_handlers+0x48f4de6>
    54fc:	8a 10 29 24 	mov  0x924, %g5
    5500:	86 01 40 01 	add  %g5, %g1, %g3
    5504:	c4 20 c0 00 	st  %g2, [ %g3 ]
    5508:	05 01 28 00 	sethi  %hi(0x4a00000), %g2
    550c:	84 10 a0 8e 	or  %g2, 0x8e, %g2	! 4a0008e <ajit_global_interrupt_handlers+0x49f4de6>
    5510:	8a 10 29 28 	mov  0x928, %g5
    5514:	86 01 40 01 	add  %g5, %g1, %g3
    5518:	c4 20 c0 00 	st  %g2, [ %g3 ]
    551c:	05 01 2c 00 	sethi  %hi(0x4b00000), %g2
    5520:	84 10 a0 8e 	or  %g2, 0x8e, %g2	! 4b0008e <ajit_global_interrupt_handlers+0x4af4de6>
    5524:	8a 10 29 2c 	mov  0x92c, %g5
    5528:	86 01 40 01 	add  %g5, %g1, %g3
    552c:	c4 20 c0 00 	st  %g2, [ %g3 ]
    5530:	05 01 30 00 	sethi  %hi(0x4c00000), %g2
    5534:	84 10 a0 8e 	or  %g2, 0x8e, %g2	! 4c0008e <ajit_global_interrupt_handlers+0x4bf4de6>
    5538:	8a 10 29 30 	mov  0x930, %g5
    553c:	86 01 40 01 	add  %g5, %g1, %g3
    5540:	c4 20 c0 00 	st  %g2, [ %g3 ]
    5544:	05 01 34 00 	sethi  %hi(0x4d00000), %g2
    5548:	84 10 a0 8e 	or  %g2, 0x8e, %g2	! 4d0008e <ajit_global_interrupt_handlers+0x4cf4de6>
    554c:	8a 10 29 34 	mov  0x934, %g5
    5550:	86 01 40 01 	add  %g5, %g1, %g3
    5554:	c4 20 c0 00 	st  %g2, [ %g3 ]
    5558:	05 01 38 00 	sethi  %hi(0x4e00000), %g2
    555c:	84 10 a0 8e 	or  %g2, 0x8e, %g2	! 4e0008e <ajit_global_interrupt_handlers+0x4df4de6>
    5560:	8a 10 29 38 	mov  0x938, %g5
    5564:	86 01 40 01 	add  %g5, %g1, %g3
    5568:	c4 20 c0 00 	st  %g2, [ %g3 ]
    556c:	05 01 3c 00 	sethi  %hi(0x4f00000), %g2
    5570:	84 10 a0 8e 	or  %g2, 0x8e, %g2	! 4f0008e <ajit_global_interrupt_handlers+0x4ef4de6>
    5574:	8a 10 29 3c 	mov  0x93c, %g5
    5578:	86 01 40 01 	add  %g5, %g1, %g3
    557c:	c4 20 c0 00 	st  %g2, [ %g3 ]
    5580:	05 01 40 00 	sethi  %hi(0x5000000), %g2
    5584:	84 10 a0 8e 	or  %g2, 0x8e, %g2	! 500008e <ajit_global_interrupt_handlers+0x4ff4de6>
    5588:	8a 10 29 40 	mov  0x940, %g5
    558c:	86 01 40 01 	add  %g5, %g1, %g3
    5590:	c4 20 c0 00 	st  %g2, [ %g3 ]
    5594:	05 01 44 00 	sethi  %hi(0x5100000), %g2
    5598:	84 10 a0 8e 	or  %g2, 0x8e, %g2	! 510008e <ajit_global_interrupt_handlers+0x50f4de6>
    559c:	8a 10 29 44 	mov  0x944, %g5
    55a0:	86 01 40 01 	add  %g5, %g1, %g3
    55a4:	c4 20 c0 00 	st  %g2, [ %g3 ]
    55a8:	05 01 48 00 	sethi  %hi(0x5200000), %g2
    55ac:	84 10 a0 8e 	or  %g2, 0x8e, %g2	! 520008e <ajit_global_interrupt_handlers+0x51f4de6>
    55b0:	8a 10 29 48 	mov  0x948, %g5
    55b4:	86 01 40 01 	add  %g5, %g1, %g3
    55b8:	c4 20 c0 00 	st  %g2, [ %g3 ]
    55bc:	05 01 4c 00 	sethi  %hi(0x5300000), %g2
    55c0:	84 10 a0 8e 	or  %g2, 0x8e, %g2	! 530008e <ajit_global_interrupt_handlers+0x52f4de6>
    55c4:	8a 10 29 4c 	mov  0x94c, %g5
    55c8:	86 01 40 01 	add  %g5, %g1, %g3
    55cc:	c4 20 c0 00 	st  %g2, [ %g3 ]
    55d0:	05 01 50 00 	sethi  %hi(0x5400000), %g2
    55d4:	84 10 a0 8e 	or  %g2, 0x8e, %g2	! 540008e <ajit_global_interrupt_handlers+0x53f4de6>
    55d8:	8a 10 29 50 	mov  0x950, %g5
    55dc:	86 01 40 01 	add  %g5, %g1, %g3
    55e0:	c4 20 c0 00 	st  %g2, [ %g3 ]
    55e4:	05 01 54 00 	sethi  %hi(0x5500000), %g2
    55e8:	84 10 a0 8e 	or  %g2, 0x8e, %g2	! 550008e <ajit_global_interrupt_handlers+0x54f4de6>
    55ec:	8a 10 29 54 	mov  0x954, %g5
    55f0:	86 01 40 01 	add  %g5, %g1, %g3
    55f4:	c4 20 c0 00 	st  %g2, [ %g3 ]
    55f8:	05 01 58 00 	sethi  %hi(0x5600000), %g2
    55fc:	84 10 a0 8e 	or  %g2, 0x8e, %g2	! 560008e <ajit_global_interrupt_handlers+0x55f4de6>
    5600:	8a 10 29 58 	mov  0x958, %g5
    5604:	86 01 40 01 	add  %g5, %g1, %g3
    5608:	c4 20 c0 00 	st  %g2, [ %g3 ]
    560c:	05 01 5c 00 	sethi  %hi(0x5700000), %g2
    5610:	84 10 a0 8e 	or  %g2, 0x8e, %g2	! 570008e <ajit_global_interrupt_handlers+0x56f4de6>
    5614:	8a 10 29 5c 	mov  0x95c, %g5
    5618:	86 01 40 01 	add  %g5, %g1, %g3
    561c:	c4 20 c0 00 	st  %g2, [ %g3 ]
    5620:	05 01 60 00 	sethi  %hi(0x5800000), %g2
    5624:	84 10 a0 8e 	or  %g2, 0x8e, %g2	! 580008e <ajit_global_interrupt_handlers+0x57f4de6>
    5628:	8a 10 29 60 	mov  0x960, %g5
    562c:	86 01 40 01 	add  %g5, %g1, %g3
    5630:	c4 20 c0 00 	st  %g2, [ %g3 ]
    5634:	05 01 64 00 	sethi  %hi(0x5900000), %g2
    5638:	84 10 a0 8e 	or  %g2, 0x8e, %g2	! 590008e <ajit_global_interrupt_handlers+0x58f4de6>
    563c:	8a 10 29 64 	mov  0x964, %g5
    5640:	86 01 40 01 	add  %g5, %g1, %g3
    5644:	c4 20 c0 00 	st  %g2, [ %g3 ]
    5648:	05 01 68 00 	sethi  %hi(0x5a00000), %g2
    564c:	84 10 a0 8e 	or  %g2, 0x8e, %g2	! 5a0008e <ajit_global_interrupt_handlers+0x59f4de6>
    5650:	8a 10 29 68 	mov  0x968, %g5
    5654:	86 01 40 01 	add  %g5, %g1, %g3
    5658:	c4 20 c0 00 	st  %g2, [ %g3 ]
    565c:	05 01 6c 00 	sethi  %hi(0x5b00000), %g2
    5660:	84 10 a0 8e 	or  %g2, 0x8e, %g2	! 5b0008e <ajit_global_interrupt_handlers+0x5af4de6>
    5664:	8a 10 29 6c 	mov  0x96c, %g5
    5668:	86 01 40 01 	add  %g5, %g1, %g3
    566c:	c4 20 c0 00 	st  %g2, [ %g3 ]
    5670:	05 01 70 00 	sethi  %hi(0x5c00000), %g2
    5674:	84 10 a0 8e 	or  %g2, 0x8e, %g2	! 5c0008e <ajit_global_interrupt_handlers+0x5bf4de6>
    5678:	8a 10 29 70 	mov  0x970, %g5
    567c:	86 01 40 01 	add  %g5, %g1, %g3
    5680:	c4 20 c0 00 	st  %g2, [ %g3 ]
    5684:	05 01 74 00 	sethi  %hi(0x5d00000), %g2
    5688:	84 10 a0 8e 	or  %g2, 0x8e, %g2	! 5d0008e <ajit_global_interrupt_handlers+0x5cf4de6>
    568c:	8a 10 29 74 	mov  0x974, %g5
    5690:	86 01 40 01 	add  %g5, %g1, %g3
    5694:	c4 20 c0 00 	st  %g2, [ %g3 ]
    5698:	05 01 78 00 	sethi  %hi(0x5e00000), %g2
    569c:	84 10 a0 8e 	or  %g2, 0x8e, %g2	! 5e0008e <ajit_global_interrupt_handlers+0x5df4de6>
    56a0:	8a 10 29 78 	mov  0x978, %g5
    56a4:	86 01 40 01 	add  %g5, %g1, %g3
    56a8:	c4 20 c0 00 	st  %g2, [ %g3 ]
    56ac:	05 01 7c 00 	sethi  %hi(0x5f00000), %g2
    56b0:	84 10 a0 8e 	or  %g2, 0x8e, %g2	! 5f0008e <ajit_global_interrupt_handlers+0x5ef4de6>
    56b4:	8a 10 29 7c 	mov  0x97c, %g5
    56b8:	86 01 40 01 	add  %g5, %g1, %g3
    56bc:	c4 20 c0 00 	st  %g2, [ %g3 ]
    56c0:	05 01 80 00 	sethi  %hi(0x6000000), %g2
    56c4:	84 10 a0 8e 	or  %g2, 0x8e, %g2	! 600008e <ajit_global_interrupt_handlers+0x5ff4de6>
    56c8:	8a 10 29 80 	mov  0x980, %g5
    56cc:	86 01 40 01 	add  %g5, %g1, %g3
    56d0:	c4 20 c0 00 	st  %g2, [ %g3 ]
    56d4:	88 10 25 00 	mov  0x500, %g4
    56d8:	88 00 40 04 	add  %g1, %g4, %g4
    56dc:	89 31 20 04 	srl  %g4, 4, %g4
    56e0:	88 11 20 01 	or  %g4, 1, %g4
    56e4:	8a 10 29 84 	mov  0x984, %g5
    56e8:	86 01 40 01 	add  %g5, %g1, %g3
    56ec:	c8 20 c0 00 	st  %g4, [ %g3 ]
    56f0:	88 10 24 00 	mov  0x400, %g4
    56f4:	88 00 40 04 	add  %g1, %g4, %g4
    56f8:	89 31 20 04 	srl  %g4, 4, %g4
    56fc:	88 11 20 01 	or  %g4, 1, %g4
    5700:	8a 10 25 00 	mov  0x500, %g5
    5704:	86 01 40 01 	add  %g5, %g1, %g3
    5708:	c8 20 c0 00 	st  %g4, [ %g3 ]
    570c:	05 01 84 00 	sethi  %hi(0x6100000), %g2
    5710:	84 10 a0 92 	or  %g2, 0x92, %g2	! 6100092 <ajit_global_interrupt_handlers+0x60f4dea>
