
.//main.elf:     file format elf32-sparc


Disassembly of section .text:

00000000 <_start>:
       0:	40 00 00 9a 	call  268 <clear_stack_pointers>
       4:	01 00 00 00 	nop 

00000008 <CORTOS_SET_PSR>:
       8:	21 00 00 04 	sethi  %hi(0x1000), %l0
       c:	a0 14 20 e0 	or  %l0, 0xe0, %l0	! 10e0 <ee_vsprintf+0x3f4>
      10:	81 88 00 10 	mov  %l0, %psr

00000014 <COROTS_WIMSET>:
      14:	a0 10 20 01 	mov  1, %l0
      18:	81 94 20 00 	mov  %l0, %wim
      1c:	21 00 00 20 	sethi  %hi(0x8000), %l0
      20:	a0 14 20 00 	mov  %l0, %l0	! 8000 <trap_table_base>
      24:	81 9c 20 00 	mov  %l0, %tbr

00000028 <CORTOS_READ_CORE_THREAD_ID>:
      28:	a3 47 40 00 	rd  %asr29, %l1

0000002c <CORTOS_SETUP_THREADS>:
      2c:	25 14 14 80 	sethi  %hi(0x50520000), %l2
      30:	80 a4 40 12 	cmp  %l1, %l2
      34:	12 80 00 89 	bne  258 <CORTOS_HALT_ERROR>
      38:	01 00 00 00 	nop 
      3c:	1d 00 00 bf 	sethi  %hi(0x2fc00), %sp
      40:	9c 13 a3 a0 	or  %sp, 0x3a0, %sp	! 2ffa0 <ajit_global_interrupt_handlers+0x20cf8>
      44:	bc 10 00 00 	mov  %g0, %fp
      48:	05 00 00 39 	sethi  %hi(0xe400), %g2
      4c:	84 10 a2 28 	or  %g2, 0x228, %g2	! e628 <INIT_BY_00_DONE>
      50:	c4 00 80 00 	ld  [ %g2 ], %g2
      54:	86 10 20 00 	clr  %g3
      58:	c6 20 80 00 	st  %g3, [ %g2 ]
      5c:	05 00 00 39 	sethi  %hi(0xe400), %g2
      60:	84 10 a2 24 	or  %g2, 0x224, %g2	! e624 <PT_FLAG>
      64:	c4 00 80 00 	ld  [ %g2 ], %g2
      68:	86 10 20 00 	clr  %g3
      6c:	c6 20 80 00 	st  %g3, [ %g2 ]
      70:	40 00 00 53 	call  1bc <__cortos_init_region_to_zero>
      74:	01 00 00 00 	nop 
      78:	40 00 17 e2 	call  6000 <page_table_setup>
      7c:	01 00 00 00 	nop 
      80:	2d 00 00 39 	sethi  %hi(0xe400), %l6
      84:	ac 15 a2 24 	or  %l6, 0x224, %l6	! e624 <PT_FLAG>
      88:	ec 05 80 00 	ld  [ %l6 ], %l6
      8c:	ae 10 20 01 	mov  1, %l7
      90:	ee 25 80 00 	st  %l7, [ %l6 ]
      94:	40 00 19 df 	call  6810 <set_context_table_pointer>
      98:	01 00 00 00 	nop 
      9c:	90 10 20 01 	mov  1, %o0	! 1 <_start+0x1>
      a0:	d0 a0 00 80 	sta  %o0, [ %g0 ] #ASI_N
      a4:	40 00 00 a4 	call  334 <cortos_init_locks>
      a8:	01 00 00 00 	nop 
      ac:	40 00 07 d0 	call  1fec <__cortos_bpool>
      b0:	01 00 00 00 	nop 
      b4:	40 00 07 f3 	call  2080 <__cortos_bpool_ncram>
      b8:	01 00 00 00 	nop 
      bc:	40 00 02 08 	call  8dc <cortos_init_hw_traps>
      c0:	01 00 00 00 	nop 
      c4:	40 00 02 09 	call  8e8 <cortos_init_sw_traps>
      c8:	01 00 00 00 	nop 
      cc:	40 00 01 2c 	call  57c <__cortos_enable_serial>
      d0:	01 00 00 00 	nop 
      d4:	40 00 00 e5 	call  468 <cortos_init_printing>
      d8:	01 00 00 00 	nop 
      dc:	40 00 01 c2 	call  7e4 <cortos_init_logging>
      e0:	01 00 00 00 	nop 
      e4:	05 00 00 39 	sethi  %hi(0xe400), %g2
      e8:	84 10 a2 28 	or  %g2, 0x228, %g2	! e628 <INIT_BY_00_DONE>
      ec:	c4 00 80 00 	ld  [ %g2 ], %g2
      f0:	86 10 20 01 	mov  1, %g3
      f4:	c6 20 80 00 	st  %g3, [ %g2 ]
      f8:	a3 47 40 00 	rd  %asr29, %l1
      fc:	10 80 00 15 	b  150 <CORTOS_START_THREADS>
     100:	01 00 00 00 	nop 

00000104 <AFTER_PTABLE_SETUP>:
     104:	2d 00 00 39 	sethi  %hi(0xe400), %l6
     108:	ac 15 a2 24 	or  %l6, 0x224, %l6	! e624 <PT_FLAG>
     10c:	ec 05 80 00 	ld  [ %l6 ], %l6
     110:	ee 05 80 00 	ld  [ %l6 ], %l7
     114:	b0 10 20 01 	mov  1, %i0
     118:	80 a6 00 17 	cmp  %i0, %l7
     11c:	12 bf ff fa 	bne  104 <AFTER_PTABLE_SETUP>
     120:	01 00 00 00 	nop 
     124:	40 00 19 bb 	call  6810 <set_context_table_pointer>
     128:	01 00 00 00 	nop 
     12c:	90 10 20 01 	mov  1, %o0	! 1 <_start+0x1>
     130:	d0 a0 00 80 	sta  %o0, [ %g0 ] #ASI_N
     134:	10 80 00 07 	b  150 <CORTOS_START_THREADS>
     138:	01 00 00 00 	nop 

0000013c <WAIT_UNTIL_MMU_IS_ENABLED>:
     13c:	90 10 20 01 	mov  1, %o0	! 1 <_start+0x1>
     140:	d0 80 00 80 	lda  [ %g0 ] #ASI_N, %o0
     144:	90 8a 20 01 	andcc  %o0, 1, %o0
     148:	02 bf ff fd 	be  13c <WAIT_UNTIL_MMU_IS_ENABLED>
     14c:	01 00 00 00 	nop 

00000150 <CORTOS_START_THREADS>:
     150:	25 14 14 80 	sethi  %hi(0x50520000), %l2
     154:	80 a4 40 12 	cmp  %l1, %l2
     158:	12 80 00 40 	bne  258 <CORTOS_HALT_ERROR>
     15c:	01 00 00 00 	nop 
     160:	40 00 23 a8 	call  9000 <main>
     164:	01 00 00 00 	nop 

00000168 <START_THREAD_0_0_LOOP>:
     168:	10 80 00 3e 	b  260 <CORTOS_HALT_OKAY>
     16c:	01 00 00 00 	nop 

00000170 <__cortos_clear_stack_pointers>:
     170:	81 90 00 00 	mov  %g0, %wim
     174:	9c 10 00 00 	mov  %g0, %sp
     178:	81 e0 00 00 	save 
     17c:	9c 10 00 00 	mov  %g0, %sp
     180:	81 e0 00 00 	save 
     184:	9c 10 00 00 	mov  %g0, %sp
     188:	81 e0 00 00 	save 
     18c:	9c 10 00 00 	mov  %g0, %sp
     190:	81 e0 00 00 	save 
     194:	9c 10 00 00 	mov  %g0, %sp
     198:	81 e0 00 00 	save 
     19c:	9c 10 00 00 	mov  %g0, %sp
     1a0:	81 e0 00 00 	save 
     1a4:	9c 10 00 00 	mov  %g0, %sp
     1a8:	81 e0 00 00 	save 
     1ac:	9c 10 00 00 	mov  %g0, %sp
     1b0:	81 e0 00 00 	save 
     1b4:	81 c3 e0 08 	retl 
     1b8:	01 00 00 00 	nop 

000001bc <__cortos_init_region_to_zero>:
     1bc:	21 00 00 3c 	sethi  %hi(0xf000), %l0
     1c0:	a0 14 20 00 	mov  %l0, %l0	! f000 <printingLockAddr>
     1c4:	25 00 00 40 	sethi  %hi(0x10000), %l2
     1c8:	a4 14 a0 00 	mov  %l2, %l2	! 10000 <ajit_global_interrupt_handlers+0xd58>
     1cc:	a4 24 a0 04 	sub  %l2, 4, %l2

000001d0 <_cortos_zero_init_area_BssSection>:
     1d0:	c0 2c 00 00 	clrb  [ %l0 ]
     1d4:	80 a4 00 12 	cmp  %l0, %l2
     1d8:	12 bf ff fe 	bne  1d0 <_cortos_zero_init_area_BssSection>
     1dc:	a0 04 20 01 	inc  %l0
     1e0:	21 00 00 40 	sethi  %hi(0x10000), %l0
     1e4:	a0 14 20 00 	mov  %l0, %l0	! 10000 <ajit_global_interrupt_handlers+0xd58>
     1e8:	25 00 00 44 	sethi  %hi(0x11000), %l2
     1ec:	a4 14 a0 00 	mov  %l2, %l2	! 11000 <ajit_global_interrupt_handlers+0x1d58>
     1f0:	a4 24 a0 04 	sub  %l2, 4, %l2

000001f4 <_cortos_zero_init_area_CacheableLocks>:
     1f4:	c0 2c 00 00 	clrb  [ %l0 ]
     1f8:	80 a4 00 12 	cmp  %l0, %l2
     1fc:	12 bf ff fe 	bne  1f4 <_cortos_zero_init_area_CacheableLocks>
     200:	a0 04 20 01 	inc  %l0
     204:	21 00 00 44 	sethi  %hi(0x11000), %l0
     208:	a0 14 20 00 	mov  %l0, %l0	! 11000 <ajit_global_interrupt_handlers+0x1d58>
     20c:	25 00 00 48 	sethi  %hi(0x12000), %l2
     210:	a4 14 a0 00 	mov  %l2, %l2	! 12000 <ajit_global_interrupt_handlers+0x2d58>
     214:	a4 24 a0 04 	sub  %l2, 4, %l2

00000218 <_cortos_zero_init_area_NonCacheableLocks>:
     218:	c0 2c 00 00 	clrb  [ %l0 ]
     21c:	80 a4 00 12 	cmp  %l0, %l2
     220:	12 bf ff fe 	bne  218 <_cortos_zero_init_area_NonCacheableLocks>
     224:	a0 04 20 01 	inc  %l0
     228:	81 c3 e0 08 	retl 
     22c:	01 00 00 00 	nop 

00000230 <__cortos_wait_for_init_by_00>:
     230:	2d 00 00 39 	sethi  %hi(0xe400), %l6
     234:	ac 15 a2 28 	or  %l6, 0x228, %l6	! e628 <INIT_BY_00_DONE>
     238:	ec 05 80 00 	ld  [ %l6 ], %l6

0000023c <_CORTOS_WAIT_FOR_INIT_BY_00>:
     23c:	ee 05 80 00 	ld  [ %l6 ], %l7
     240:	b0 10 20 01 	mov  1, %i0
     244:	80 a6 00 17 	cmp  %i0, %l7
     248:	12 bf ff fd 	bne  23c <_CORTOS_WAIT_FOR_INIT_BY_00>
     24c:	01 00 00 00 	nop 
     250:	81 c3 e0 08 	retl 
     254:	01 00 00 00 	nop 

00000258 <CORTOS_HALT_ERROR>:
     258:	a1 80 20 01 	mov  1, %asr16
     25c:	91 d0 20 00 	ta  0

00000260 <CORTOS_HALT_OKAY>:
     260:	a1 80 20 00 	mov  %g0, %asr16
     264:	91 d0 20 00 	ta  0

00000268 <clear_stack_pointers>:
     268:	81 90 00 00 	mov  %g0, %wim
     26c:	9c 10 00 00 	mov  %g0, %sp
     270:	81 e0 00 00 	save 
     274:	9c 10 00 00 	mov  %g0, %sp
     278:	81 e0 00 00 	save 
     27c:	9c 10 00 00 	mov  %g0, %sp
     280:	81 e0 00 00 	save 
     284:	9c 10 00 00 	mov  %g0, %sp
     288:	81 e0 00 00 	save 
     28c:	9c 10 00 00 	mov  %g0, %sp
     290:	81 e0 00 00 	save 
     294:	9c 10 00 00 	mov  %g0, %sp
     298:	81 e0 00 00 	save 
     29c:	9c 10 00 00 	mov  %g0, %sp
     2a0:	81 e0 00 00 	save 
     2a4:	9c 10 00 00 	mov  %g0, %sp
     2a8:	81 e0 00 00 	save 
     2ac:	81 c3 e0 08 	retl 
     2b0:	01 00 00 00 	nop 

000002b4 <cortos_lock_acquire_buzy>:
     2b4:	9d e3 bf a0 	save  %sp, -96, %sp

000002b8 <wait_for_lock>:
     2b8:	e2 0e 00 00 	ldub  [ %i0 ], %l1
     2bc:	80 94 40 00 	tst  %l1
     2c0:	12 bf ff fe 	bne  2b8 <wait_for_lock>
     2c4:	01 00 00 00 	nop 

000002c8 <try_to_lock>:
     2c8:	e2 6e 00 00 	ldstub  [ %i0 ], %l1
     2cc:	80 94 40 00 	tst  %l1
     2d0:	02 80 00 03 	be  2dc <out>
     2d4:	01 00 00 00 	nop 
     2d8:	30 bf ff f8 	b,a   2b8 <wait_for_lock>

000002dc <out>:
     2dc:	b0 10 20 01 	mov  1, %i0	! 1 <_start+0x1>
     2e0:	81 e8 00 00 	restore 
     2e4:	81 c3 e0 08 	retl 
     2e8:	01 00 00 00 	nop 

000002ec <cortos_lock_acquire>:
     2ec:	9d e3 bf a0 	save  %sp, -96, %sp

000002f0 <try_to_lock_once>:
     2f0:	e2 6e 00 00 	ldstub  [ %i0 ], %l1
     2f4:	80 94 40 00 	tst  %l1
     2f8:	02 80 00 03 	be  304 <lock_acquired>
     2fc:	01 00 00 00 	nop 
     300:	30 80 00 03 	b,a   30c <lock_not_acquired>

00000304 <lock_acquired>:
     304:	10 80 00 03 	b  310 <exit_cortos_lock_acquire>
     308:	b0 10 20 01 	mov  1, %i0

0000030c <lock_not_acquired>:
     30c:	b0 10 00 00 	mov  %g0, %i0

00000310 <exit_cortos_lock_acquire>:
     310:	81 e8 00 00 	restore 
     314:	81 c3 e0 08 	retl 
     318:	01 00 00 00 	nop 

0000031c <cortos_lock_release>:
     31c:	9d e3 bf a0 	save  %sp, -96, %sp
     320:	81 43 c0 00 	stbar 
     324:	c0 2e 00 00 	clrb  [ %i0 ]
     328:	81 e8 00 00 	restore 
     32c:	81 c3 e0 08 	retl 
     330:	01 00 00 00 	nop 

00000334 <cortos_init_locks>:
     334:	84 10 20 01 	mov  1, %g2	! 1 <_start+0x1>
     338:	03 00 00 3c 	sethi  %hi(0xf000), %g1
     33c:	c4 28 60 68 	stb  %g2, [ %g1 + 0x68 ]	! f068 <allocatedLocksNc>
     340:	05 00 00 44 	sethi  %hi(0x11000), %g2
     344:	03 00 00 3c 	sethi  %hi(0xf000), %g1
     348:	81 c3 e0 08 	retl 
     34c:	c4 20 60 60 	st  %g2, [ %g1 + 0x60 ]	! f060 <cortos_reservedLockAddr>

00000350 <cortos_reserveLock>:
     350:	9d e3 bf a0 	save  %sp, -96, %sp
     354:	80 a6 20 00 	cmp  %i0, 0
     358:	22 80 00 1b 	be,a   3c4 <cortos_reserveLock+0x74>
     35c:	03 00 00 39 	sethi  %hi(0xe400), %g1
     360:	03 00 00 39 	sethi  %hi(0xe400), %g1
     364:	39 00 00 3c 	sethi  %hi(0xf000), %i4
     368:	f0 00 62 30 	ld  [ %g1 + 0x230 ], %i0
     36c:	b8 17 20 68 	or  %i4, 0x68, %i4
     370:	3b 00 00 3c 	sethi  %hi(0xf000), %i5
     374:	7f ff ff d0 	call  2b4 <cortos_lock_acquire_buzy>
     378:	d0 07 60 60 	ld  [ %i5 + 0x60 ], %o0	! f060 <cortos_reservedLockAddr>
     37c:	82 10 00 1c 	mov  %i4, %g1
     380:	10 80 00 06 	b  398 <cortos_reserveLock+0x48>
     384:	84 10 20 00 	clr  %g2
     388:	84 00 a0 01 	inc  %g2
     38c:	80 a0 a1 00 	cmp  %g2, 0x100
     390:	02 80 00 11 	be  3d4 <cortos_reserveLock+0x84>
     394:	82 00 60 01 	inc  %g1
     398:	c6 48 40 00 	ldsb  [ %g1 ], %g3
     39c:	80 a0 e0 00 	cmp  %g3, 0
     3a0:	12 bf ff fa 	bne  388 <cortos_reserveLock+0x38>
     3a4:	b8 10 00 02 	mov  %g2, %i4
     3a8:	86 10 20 01 	mov  1, %g3
     3ac:	d0 07 60 60 	ld  [ %i5 + 0x60 ], %o0
     3b0:	c6 28 40 00 	stb  %g3, [ %g1 ]
     3b4:	7f ff ff da 	call  31c <cortos_lock_release>
     3b8:	b0 06 00 1c 	add  %i0, %i4, %i0
     3bc:	81 c7 e0 08 	ret 
     3c0:	81 e8 00 00 	restore 
     3c4:	39 00 00 3c 	sethi  %hi(0xf000), %i4
     3c8:	f0 00 62 34 	ld  [ %g1 + 0x234 ], %i0
     3cc:	10 bf ff e9 	b  370 <cortos_reserveLock+0x20>
     3d0:	b8 17 21 68 	or  %i4, 0x168, %i4
     3d4:	b8 10 21 00 	mov  0x100, %i4
     3d8:	d0 07 60 60 	ld  [ %i5 + 0x60 ], %o0
     3dc:	7f ff ff d0 	call  31c <cortos_lock_release>
     3e0:	b0 06 00 1c 	add  %i0, %i4, %i0
     3e4:	81 c7 e0 08 	ret 
     3e8:	81 e8 00 00 	restore 

000003ec <cortos_freeLock>:
     3ec:	9d e3 bf a0 	save  %sp, -96, %sp
     3f0:	3b 00 00 39 	sethi  %hi(0xe400), %i5
     3f4:	c2 07 62 34 	ld  [ %i5 + 0x234 ], %g1	! e634 <lockStartAddr>
     3f8:	80 a0 40 18 	cmp  %g1, %i0
     3fc:	18 80 00 05 	bgu  410 <cortos_freeLock+0x24>
     400:	82 00 61 00 	add  %g1, 0x100, %g1
     404:	80 a6 00 01 	cmp  %i0, %g1
     408:	0a 80 00 0e 	bcs  440 <cortos_freeLock+0x54>
     40c:	39 00 00 3c 	sethi  %hi(0xf000), %i4
     410:	3b 00 00 3c 	sethi  %hi(0xf000), %i5
     414:	7f ff ff a8 	call  2b4 <cortos_lock_acquire_buzy>
     418:	d0 07 60 60 	ld  [ %i5 + 0x60 ], %o0	! f060 <cortos_reservedLockAddr>
     41c:	03 00 00 39 	sethi  %hi(0xe400), %g1
     420:	05 00 00 3c 	sethi  %hi(0xf000), %g2
     424:	c2 00 62 30 	ld  [ %g1 + 0x230 ], %g1
     428:	84 10 a0 68 	or  %g2, 0x68, %g2
     42c:	82 26 00 01 	sub  %i0, %g1, %g1
     430:	f0 07 60 60 	ld  [ %i5 + 0x60 ], %i0
     434:	c0 28 80 01 	clrb  [ %g2 + %g1 ]
     438:	7f ff ff b9 	call  31c <cortos_lock_release>
     43c:	81 e8 00 00 	restore 
     440:	7f ff ff 9d 	call  2b4 <cortos_lock_acquire_buzy>
     444:	d0 07 20 60 	ld  [ %i4 + 0x60 ], %o0
     448:	c2 07 62 34 	ld  [ %i5 + 0x234 ], %g1
     44c:	05 00 00 3c 	sethi  %hi(0xf000), %g2
     450:	82 26 00 01 	sub  %i0, %g1, %g1
     454:	84 10 a1 68 	or  %g2, 0x168, %g2
     458:	f0 07 20 60 	ld  [ %i4 + 0x60 ], %i0
     45c:	c0 28 80 01 	clrb  [ %g2 + %g1 ]
     460:	7f ff ff af 	call  31c <cortos_lock_release>
     464:	81 e8 00 00 	restore 

00000468 <cortos_init_printing>:
     468:	84 10 20 01 	mov  1, %g2
     46c:	03 00 00 3c 	sethi  %hi(0xf000), %g1
     470:	82 10 60 68 	or  %g1, 0x68, %g1	! f068 <allocatedLocksNc>
     474:	c4 28 60 05 	stb  %g2, [ %g1 + 5 ]
     478:	05 00 00 44 	sethi  %hi(0x11000), %g2
     47c:	03 00 00 3c 	sethi  %hi(0xf000), %g1
     480:	84 10 a0 05 	or  %g2, 5, %g2
     484:	81 c3 e0 08 	retl 
     488:	c4 20 60 00 	st  %g2, [ %g1 ]

0000048c <cortos_get_clock_time>:
     48c:	82 13 c0 00 	mov  %o7, %g1
     490:	40 00 08 6e 	call  2648 <__ajit_get_clock_time>
     494:	9e 10 40 00 	mov  %g1, %o7

00000498 <cortos_sleep>:
     498:	9d e3 bf a0 	save  %sp, -96, %sp
     49c:	f0 27 a0 44 	st  %i0, [ %fp + 0x44 ]
     4a0:	d0 07 a0 44 	ld  [ %fp + 0x44 ], %o0
     4a4:	40 00 08 73 	call  2670 <__ajit_sleep__>
     4a8:	01 00 00 00 	nop 
     4ac:	81 e8 00 00 	restore 
     4b0:	81 c3 e0 08 	retl 
     4b4:	01 00 00 00 	nop 

000004b8 <cortos_get_thread_id>:
     4b8:	9d e3 bf a0 	save  %sp, -96, %sp
     4bc:	a3 47 40 00 	rd  %asr29, %l1
     4c0:	82 10 00 11 	mov  %l1, %g1
     4c4:	b1 30 60 07 	srl  %g1, 7, %i0
     4c8:	b0 0e 21 fe 	and  %i0, 0x1fe, %i0
     4cc:	82 06 00 01 	add  %i0, %g1, %g1
     4d0:	b1 28 60 18 	sll  %g1, 0x18, %i0
     4d4:	b1 3e 20 18 	sra  %i0, 0x18, %i0
     4d8:	81 c7 e0 08 	ret 
     4dc:	81 e8 00 00 	restore 

000004e0 <cortos_IsNcRamAddr>:
     4e0:	03 3f ff 80 	sethi  %hi(0xfffe0000), %g1
     4e4:	90 02 00 01 	add  %o0, %g1, %o0
     4e8:	05 00 00 c7 	sethi  %hi(0x31c00), %g2
     4ec:	84 10 a3 ff 	or  %g2, 0x3ff, %g2	! 31fff <ajit_global_interrupt_handlers+0x22d57>
     4f0:	80 a0 80 08 	cmp  %g2, %o0
     4f4:	81 c3 e0 08 	retl 
     4f8:	90 60 3f ff 	subx  %g0, -1, %o0

000004fc <cortos_printf>:
     4fc:	9d e3 bb 98 	save  %sp, -1128, %sp
     500:	f8 27 a0 54 	st  %i4, [ %fp + 0x54 ]
     504:	fa 27 a0 58 	st  %i5, [ %fp + 0x58 ]
     508:	f2 27 a0 48 	st  %i1, [ %fp + 0x48 ]
     50c:	f4 27 a0 4c 	st  %i2, [ %fp + 0x4c ]
     510:	f6 27 a0 50 	st  %i3, [ %fp + 0x50 ]
     514:	39 00 00 3c 	sethi  %hi(0xf000), %i4
     518:	7f ff ff 67 	call  2b4 <cortos_lock_acquire_buzy>
     51c:	d0 07 20 00 	ld  [ %i4 ], %o0
     520:	94 07 a0 48 	add  %fp, 0x48, %o2
     524:	92 10 00 18 	mov  %i0, %o1
     528:	ba 07 bc 00 	add  %fp, -1024, %i5
     52c:	d4 27 bb fc 	st  %o2, [ %fp + -1028 ]
     530:	40 00 01 ef 	call  cec <ee_vsprintf>
     534:	90 10 00 1d 	mov  %i5, %o0
     538:	d0 0f bc 00 	ldub  [ %fp + -1024 ], %o0
     53c:	91 2a 20 18 	sll  %o0, 0x18, %o0
     540:	80 a2 20 00 	cmp  %o0, 0
     544:	02 80 00 0a 	be  56c <cortos_printf+0x70>
     548:	b0 10 20 00 	clr  %i0
     54c:	40 00 05 14 	call  199c <uart_send_char>
     550:	91 3a 20 18 	sra  %o0, 0x18, %o0
     554:	b0 06 20 01 	inc  %i0
     558:	d0 0f 40 18 	ldub  [ %i5 + %i0 ], %o0
     55c:	91 2a 20 18 	sll  %o0, 0x18, %o0
     560:	80 a2 20 00 	cmp  %o0, 0
     564:	12 bf ff fa 	bne  54c <cortos_printf+0x50>
     568:	01 00 00 00 	nop 
     56c:	7f ff ff 6c 	call  31c <cortos_lock_release>
     570:	d0 07 20 00 	ld  [ %i4 ], %o0
     574:	81 c7 e0 08 	ret 
     578:	81 e8 00 00 	restore 

0000057c <__cortos_enable_serial>:
     57c:	90 10 20 03 	mov  3, %o0
     580:	82 13 c0 00 	mov  %o7, %g1
     584:	40 00 08 f4 	call  2954 <__ajit_write_serial_control_register_via_bypass__>
     588:	9e 10 40 00 	mov  %g1, %o7

0000058c <__cortos_enable_serial_interrupt>:
     58c:	90 10 20 07 	mov  7, %o0
     590:	82 13 c0 00 	mov  %o7, %g1
     594:	40 00 08 f0 	call  2954 <__ajit_write_serial_control_register_via_bypass__>
     598:	9e 10 40 00 	mov  %g1, %o7

0000059c <bget_ncram>:
     59c:	83 3a 20 1f 	sra  %o0, 0x1f, %g1
     5a0:	83 30 60 1c 	srl  %g1, 0x1c, %g1
     5a4:	84 02 00 01 	add  %o0, %g1, %g2
     5a8:	84 08 a0 0f 	and  %g2, 0xf, %g2
     5ac:	82 20 80 01 	sub  %g2, %g1, %g1
     5b0:	90 00 40 08 	add  %g1, %o0, %o0
     5b4:	80 a2 20 0f 	cmp  %o0, 0xf
     5b8:	08 80 00 23 	bleu  644 <bget_ncram+0xa8>
     5bc:	86 10 20 18 	mov  0x18, %g3
     5c0:	88 02 20 0f 	add  %o0, 0xf, %g4
     5c4:	88 09 3f f0 	and  %g4, -16, %g4
     5c8:	88 01 20 08 	add  %g4, 8, %g4
     5cc:	86 10 00 04 	mov  %g4, %g3
     5d0:	05 00 00 39 	sethi  %hi(0xe400), %g2
     5d4:	84 10 a2 38 	or  %g2, 0x238, %g2	! e638 <freelist_ncram>
     5d8:	d0 00 a0 08 	ld  [ %g2 + 8 ], %o0
     5dc:	80 a2 00 02 	cmp  %o0, %g2
     5e0:	32 80 00 08 	bne,a   600 <bget_ncram+0x64>
     5e4:	c2 02 20 04 	ld  [ %o0 + 4 ], %g1
     5e8:	81 c3 e0 08 	retl 
     5ec:	90 10 20 00 	clr  %o0
     5f0:	80 a2 00 02 	cmp  %o0, %g2
     5f4:	02 80 00 12 	be  63c <bget_ncram+0xa0>
     5f8:	01 00 00 00 	nop 
     5fc:	c2 02 20 04 	ld  [ %o0 + 4 ], %g1
     600:	80 a0 40 03 	cmp  %g1, %g3
     604:	26 bf ff fb 	bl,a   5f0 <bget_ncram+0x54>
     608:	d0 02 20 08 	ld  [ %o0 + 8 ], %o0
     60c:	84 20 40 03 	sub  %g1, %g3, %g2
     610:	80 a0 a0 18 	cmp  %g2, 0x18
     614:	28 80 00 0e 	bleu,a   64c <bget_ncram+0xb0>
     618:	c6 02 20 08 	ld  [ %o0 + 8 ], %g3
     61c:	c4 22 20 04 	st  %g2, [ %o0 + 4 ]
     620:	c4 22 00 02 	st  %g2, [ %o0 + %g2 ]
     624:	86 20 00 03 	neg  %g3
     628:	90 02 00 02 	add  %o0, %g2, %o0
     62c:	c0 22 00 04 	clr  [ %o0 + %g4 ]
     630:	c6 22 20 04 	st  %g3, [ %o0 + 4 ]
     634:	81 c3 e0 08 	retl 
     638:	90 02 20 08 	add  %o0, 8, %o0
     63c:	81 c3 e0 08 	retl 
     640:	90 10 20 00 	clr  %o0
     644:	10 bf ff e3 	b  5d0 <bget_ncram+0x34>
     648:	88 10 20 18 	mov  0x18, %g4
     64c:	c4 02 20 0c 	ld  [ %o0 + 0xc ], %g2
     650:	c6 20 a0 08 	st  %g3, [ %g2 + 8 ]
     654:	c6 02 20 08 	ld  [ %o0 + 8 ], %g3
     658:	c4 20 e0 0c 	st  %g2, [ %g3 + 0xc ]
     65c:	c0 22 00 01 	clr  [ %o0 + %g1 ]
     660:	84 20 00 01 	neg  %g1, %g2
     664:	c4 22 20 04 	st  %g2, [ %o0 + 4 ]
     668:	90 02 20 08 	add  %o0, 8, %o0
     66c:	81 c3 e0 08 	retl 
     670:	01 00 00 00 	nop 

00000674 <bpool_ncram>:
     674:	03 00 00 39 	sethi  %hi(0xe400), %g1
     678:	82 10 62 38 	or  %g1, 0x238, %g1	! e638 <freelist_ncram>
     67c:	c4 00 60 0c 	ld  [ %g1 + 0xc ], %g2
     680:	c2 22 20 08 	st  %g1, [ %o0 + 8 ]
     684:	c4 22 20 0c 	st  %g2, [ %o0 + 0xc ]
     688:	d0 20 60 0c 	st  %o0, [ %g1 + 0xc ]
     68c:	c0 22 00 00 	clr  [ %o0 ]
     690:	c2 02 20 0c 	ld  [ %o0 + 0xc ], %g1
     694:	92 0a 7f f0 	and  %o1, -16, %o1
     698:	d0 20 60 08 	st  %o0, [ %g1 + 8 ]
     69c:	92 02 7f f8 	add  %o1, -8, %o1
     6a0:	d2 22 20 04 	st  %o1, [ %o0 + 4 ]
     6a4:	82 02 00 09 	add  %o0, %o1, %g1
     6a8:	05 20 00 00 	sethi  %hi(0x80000000), %g2
     6ac:	d2 22 00 09 	st  %o1, [ %o0 + %o1 ]
     6b0:	81 c3 e0 08 	retl 
     6b4:	c4 20 60 04 	st  %g2, [ %g1 + 4 ]

000006b8 <brel_ncram>:
     6b8:	c2 02 3f f8 	ld  [ %o0 + -8 ], %g1
     6bc:	80 a0 60 00 	cmp  %g1, 0
     6c0:	02 80 00 16 	be  718 <brel_ncram+0x60>
     6c4:	84 02 3f f8 	add  %o0, -8, %g2
     6c8:	84 20 80 01 	sub  %g2, %g1, %g2
     6cc:	c2 02 3f fc 	ld  [ %o0 + -4 ], %g1
     6d0:	c6 00 a0 04 	ld  [ %g2 + 4 ], %g3
     6d4:	82 20 c0 01 	sub  %g3, %g1, %g1
     6d8:	c2 20 a0 04 	st  %g1, [ %g2 + 4 ]
     6dc:	86 00 80 01 	add  %g2, %g1, %g3
     6e0:	c8 00 e0 04 	ld  [ %g3 + 4 ], %g4
     6e4:	80 a1 20 00 	cmp  %g4, 0
     6e8:	04 80 00 0a 	ble  710 <brel_ncram+0x58>
     6ec:	01 00 00 00 	nop 
     6f0:	da 00 e0 0c 	ld  [ %g3 + 0xc ], %o5
     6f4:	82 00 40 04 	add  %g1, %g4, %g1
     6f8:	d8 00 e0 08 	ld  [ %g3 + 8 ], %o4
     6fc:	c2 20 a0 04 	st  %g1, [ %g2 + 4 ]
     700:	d8 23 60 08 	st  %o4, [ %o5 + 8 ]
     704:	c8 00 e0 08 	ld  [ %g3 + 8 ], %g4
     708:	86 00 80 01 	add  %g2, %g1, %g3
     70c:	da 21 20 0c 	st  %o5, [ %g4 + 0xc ]
     710:	81 c3 e0 08 	retl 
     714:	c2 20 c0 00 	st  %g1, [ %g3 ]
     718:	07 00 00 39 	sethi  %hi(0xe400), %g3
     71c:	86 10 e2 38 	or  %g3, 0x238, %g3	! e638 <freelist_ncram>
     720:	c2 00 e0 0c 	ld  [ %g3 + 0xc ], %g1
     724:	c6 22 00 00 	st  %g3, [ %o0 ]
     728:	c2 22 20 04 	st  %g1, [ %o0 + 4 ]
     72c:	c4 20 e0 0c 	st  %g2, [ %g3 + 0xc ]
     730:	c2 02 3f fc 	ld  [ %o0 + -4 ], %g1
     734:	c6 02 20 04 	ld  [ %o0 + 4 ], %g3
     738:	82 20 00 01 	neg  %g1
     73c:	c4 20 e0 08 	st  %g2, [ %g3 + 8 ]
     740:	10 bf ff e7 	b  6dc <brel_ncram+0x24>
     744:	c2 22 3f fc 	st  %g1, [ %o0 + -4 ]

00000748 <ajit_initialize_sw_trap_handlers_to_null>:
     748:	03 00 00 3c 	sethi  %hi(0xf000), %g1
     74c:	82 10 62 68 	or  %g1, 0x268, %g1	! f268 <ajit_global_sw_trap_handlers>
     750:	84 00 60 40 	add  %g1, 0x40, %g2
     754:	c0 20 40 00 	clr  [ %g1 ]
     758:	82 00 60 04 	add  %g1, 4, %g1
     75c:	80 a0 40 02 	cmp  %g1, %g2
     760:	32 bf ff fe 	bne,a   758 <ajit_initialize_sw_trap_handlers_to_null+0x10>
     764:	c0 20 40 00 	clr  [ %g1 ]
     768:	81 c3 e0 08 	retl 
     76c:	01 00 00 00 	nop 

00000770 <ajit_set_sw_trap_handler>:
     770:	80 a2 20 0f 	cmp  %o0, 0xf
     774:	18 80 00 05 	bgu  788 <ajit_set_sw_trap_handler+0x18>
     778:	91 2a 20 02 	sll  %o0, 2, %o0
     77c:	03 00 00 3c 	sethi  %hi(0xf000), %g1
     780:	82 10 62 68 	or  %g1, 0x268, %g1	! f268 <ajit_global_sw_trap_handlers>
     784:	d2 20 40 08 	st  %o1, [ %g1 + %o0 ]
     788:	81 c3 e0 08 	retl 
     78c:	01 00 00 00 	nop 

00000790 <ajit_generic_sw_trap_handler>:
     790:	9d e3 bf a0 	save  %sp, -96, %sp
     794:	b1 36 20 04 	srl  %i0, 4, %i0
     798:	82 0e 20 ff 	and  %i0, 0xff, %g1
     79c:	82 00 7f 80 	add  %g1, -128, %g1
     7a0:	80 a0 60 0f 	cmp  %g1, 0xf
     7a4:	18 80 00 0d 	bgu  7d8 <ajit_generic_sw_trap_handler+0x48>
     7a8:	83 28 60 02 	sll  %g1, 2, %g1
     7ac:	05 00 00 3c 	sethi  %hi(0xf000), %g2
     7b0:	84 10 a2 68 	or  %g2, 0x268, %g2	! f268 <ajit_global_sw_trap_handlers>
     7b4:	c2 00 80 01 	ld  [ %g2 + %g1 ], %g1
     7b8:	80 a0 60 00 	cmp  %g1, 0
     7bc:	02 80 00 07 	be  7d8 <ajit_generic_sw_trap_handler+0x48>
     7c0:	90 10 00 19 	mov  %i1, %o0
     7c4:	92 10 00 1a 	mov  %i2, %o1
     7c8:	9f c0 40 00 	call  %g1
     7cc:	94 10 00 1b 	mov  %i3, %o2
     7d0:	81 c7 e0 08 	ret 
     7d4:	81 e8 00 00 	restore 
     7d8:	91 d0 20 00 	ta  0
     7dc:	81 c7 e0 08 	ret 
     7e0:	81 e8 00 00 	restore 

000007e4 <cortos_init_logging>:
     7e4:	84 10 20 01 	mov  1, %g2
     7e8:	03 00 00 3c 	sethi  %hi(0xf000), %g1
     7ec:	82 10 60 68 	or  %g1, 0x68, %g1	! f068 <allocatedLocksNc>
     7f0:	c4 28 60 04 	stb  %g2, [ %g1 + 4 ]
     7f4:	05 00 00 44 	sethi  %hi(0x11000), %g2
     7f8:	03 00 00 3c 	sethi  %hi(0xf000), %g1
     7fc:	84 10 a0 04 	or  %g2, 4, %g2
     800:	81 c3 e0 08 	retl 
     804:	c4 20 60 04 	st  %g2, [ %g1 + 4 ]

00000808 <__cortos_log_printf>:
     808:	9d e3 bb 80 	save  %sp, -1152, %sp
     80c:	21 00 00 3c 	sethi  %hi(0xf000), %l0
     810:	fa 27 a0 58 	st  %i5, [ %fp + 0x58 ]
     814:	7f ff fe a8 	call  2b4 <cortos_lock_acquire_buzy>
     818:	d0 04 20 04 	ld  [ %l0 + 4 ], %o0
     81c:	7f ff ff 1c 	call  48c <cortos_get_clock_time>
     820:	01 00 00 00 	nop 
     824:	a3 47 40 00 	rd  %asr29, %l1
     828:	82 10 00 11 	mov  %l1, %g1
     82c:	d0 3f bb f0 	std  %o0, [ %fp + -1040 ]
     830:	96 08 60 ff 	and  %g1, 0xff, %o3
     834:	95 30 60 08 	srl  %g1, 8, %o2
     838:	c2 07 bb f0 	ld  [ %fp + -1040 ], %g1
     83c:	c2 23 a0 60 	st  %g1, [ %sp + 0x60 ]
     840:	c2 07 bb f4 	ld  [ %fp + -1036 ], %g1
     844:	92 10 00 18 	mov  %i0, %o1
     848:	c2 23 a0 64 	st  %g1, [ %sp + 0x64 ]
     84c:	98 10 00 19 	mov  %i1, %o4
     850:	9a 10 00 1b 	mov  %i3, %o5
     854:	94 0a a0 ff 	and  %o2, 0xff, %o2
     858:	f4 23 a0 5c 	st  %i2, [ %sp + 0x5c ]
     85c:	11 00 00 38 	sethi  %hi(0xe000), %o0
     860:	40 00 04 5d 	call  19d4 <ee_printf>
     864:	90 12 21 00 	or  %o0, 0x100, %o0	! e100 <__clz_tab+0x100>
     868:	94 07 a0 58 	add  %fp, 0x58, %o2
     86c:	b0 10 00 08 	mov  %o0, %i0
     870:	d4 27 bb fc 	st  %o2, [ %fp + -1028 ]
     874:	ba 07 bc 00 	add  %fp, -1024, %i5
     878:	92 10 00 1c 	mov  %i4, %o1
     87c:	40 00 01 1c 	call  cec <ee_vsprintf>
     880:	90 10 00 1d 	mov  %i5, %o0
     884:	c2 0f bc 00 	ldub  [ %fp + -1024 ], %g1
     888:	91 28 60 18 	sll  %g1, 0x18, %o0
     88c:	80 a2 20 00 	cmp  %o0, 0
     890:	22 80 00 0c 	be,a   8c0 <__cortos_log_printf+0xb8>
     894:	11 00 00 39 	sethi  %hi(0xe400), %o0
     898:	ba 27 40 18 	sub  %i5, %i0, %i5
     89c:	40 00 04 40 	call  199c <uart_send_char>
     8a0:	91 3a 20 18 	sra  %o0, 0x18, %o0
     8a4:	b0 06 20 01 	inc  %i0
     8a8:	c2 0f 40 18 	ldub  [ %i5 + %i0 ], %g1
     8ac:	91 28 60 18 	sll  %g1, 0x18, %o0
     8b0:	80 a2 20 00 	cmp  %o0, 0
     8b4:	12 bf ff fa 	bne  89c <__cortos_log_printf+0x94>
     8b8:	01 00 00 00 	nop 
     8bc:	11 00 00 39 	sethi  %hi(0xe400), %o0
     8c0:	40 00 04 45 	call  19d4 <ee_printf>
     8c4:	90 12 21 c0 	or  %o0, 0x1c0, %o0	! e5c0 <__clz_tab+0x5c0>
     8c8:	b0 02 00 18 	add  %o0, %i0, %i0
     8cc:	7f ff fe 94 	call  31c <cortos_lock_release>
     8d0:	d0 04 20 04 	ld  [ %l0 + 4 ], %o0
     8d4:	81 c7 e0 08 	ret 
     8d8:	81 e8 00 00 	restore 

000008dc <cortos_init_hw_traps>:
     8dc:	82 13 c0 00 	mov  %o7, %g1
     8e0:	40 00 05 44 	call  1df0 <ajit_initialize_interrupt_handlers_to_null>
     8e4:	9e 10 40 00 	mov  %g1, %o7

000008e8 <cortos_init_sw_traps>:
     8e8:	82 13 c0 00 	mov  %o7, %g1
     8ec:	7f ff ff 97 	call  748 <ajit_initialize_sw_trap_handlers_to_null>
     8f0:	9e 10 40 00 	mov  %g1, %o7
     8f4:	00 00 0f 78 	unimp  0xf78
     8f8:	00 00 0e 20 	unimp  0xe20
     8fc:	00 00 0e 20 	unimp  0xe20
     900:	00 00 0e 20 	unimp  0xe20
     904:	00 00 0e 20 	unimp  0xe20
     908:	00 00 0e 20 	unimp  0xe20
     90c:	00 00 0e 20 	unimp  0xe20
     910:	00 00 0e 20 	unimp  0xe20
     914:	00 00 0e 20 	unimp  0xe20
     918:	00 00 0e 20 	unimp  0xe20
     91c:	00 00 0e 20 	unimp  0xe20
     920:	00 00 0e 20 	unimp  0xe20
     924:	00 00 0e 20 	unimp  0xe20
     928:	00 00 0e 20 	unimp  0xe20
     92c:	00 00 0e 20 	unimp  0xe20
     930:	00 00 0e 20 	unimp  0xe20
     934:	00 00 0e 20 	unimp  0xe20
     938:	00 00 0e 20 	unimp  0xe20
     93c:	00 00 0e 20 	unimp  0xe20
     940:	00 00 0e 20 	unimp  0xe20
     944:	00 00 0e 20 	unimp  0xe20
     948:	00 00 0e 20 	unimp  0xe20
     94c:	00 00 0e 20 	unimp  0xe20
     950:	00 00 11 3c 	unimp  0x113c
     954:	00 00 0e 20 	unimp  0xe20
     958:	00 00 0e 20 	unimp  0xe20
     95c:	00 00 0e 20 	unimp  0xe20
     960:	00 00 0e 20 	unimp  0xe20
     964:	00 00 0e 20 	unimp  0xe20
     968:	00 00 0e 20 	unimp  0xe20
     96c:	00 00 0e 20 	unimp  0xe20
     970:	00 00 0e 20 	unimp  0xe20
     974:	00 00 0f 7c 	unimp  0xf7c
     978:	00 00 0e 20 	unimp  0xe20
     97c:	00 00 10 f0 	unimp  0x10f0
     980:	00 00 13 80 	unimp  0x1380
     984:	00 00 0e 20 	unimp  0xe20
     988:	00 00 13 10 	unimp  0x1310
     98c:	00 00 0e 20 	unimp  0xe20
     990:	00 00 0e 20 	unimp  0xe20
     994:	00 00 13 80 	unimp  0x1380
     998:	00 00 0e 20 	unimp  0xe20
     99c:	00 00 0e 20 	unimp  0xe20
     9a0:	00 00 0e 20 	unimp  0xe20
     9a4:	00 00 0e 20 	unimp  0xe20
     9a8:	00 00 0e 20 	unimp  0xe20
     9ac:	00 00 13 8c 	unimp  0x138c
     9b0:	00 00 12 d4 	unimp  0x12d4
     9b4:	00 00 0e 20 	unimp  0xe20
     9b8:	00 00 0e 20 	unimp  0xe20
     9bc:	00 00 11 f0 	unimp  0x11f0
     9c0:	00 00 0e 20 	unimp  0xe20
     9c4:	00 00 11 e8 	unimp  0x11e8
     9c8:	00 00 0e 20 	unimp  0xe20
     9cc:	00 00 0e 20 	unimp  0xe20
     9d0:	00 00 11 9c 	unimp  0x119c
     9d4:	00 00 0e bc 	unimp  0xebc
     9d8:	00 00 0d 64 	unimp  0xd64
     9dc:	00 00 0d 64 	unimp  0xd64
     9e0:	00 00 0e b0 	unimp  0xeb0
     9e4:	00 00 0d 64 	unimp  0xd64
     9e8:	00 00 0d 64 	unimp  0xd64
     9ec:	00 00 0d 64 	unimp  0xd64
     9f0:	00 00 0d 64 	unimp  0xd64
     9f4:	00 00 0d 64 	unimp  0xd64
     9f8:	00 00 0d 64 	unimp  0xd64
     9fc:	00 00 0d 64 	unimp  0xd64
     a00:	00 00 0e a4 	unimp  0xea4
     a04:	00 00 0d 64 	unimp  0xd64
     a08:	00 00 0e 98 	unimp  0xe98
     a0c:	00 00 0d 64 	unimp  0xd64
     a10:	00 00 0d 64 	unimp  0xd64
     a14:	00 00 0e 8c 	unimp  0xe8c

00000a18 <number>:
     a18:	9d e3 bf 58 	save  %sp, -168, %sp
     a1c:	e4 07 a0 5c 	ld  [ %fp + 0x5c ], %l2
     a20:	a0 10 00 19 	mov  %i1, %l0
     a24:	80 8c a0 40 	btst  0x40, %l2
     a28:	02 80 00 77 	be  c04 <number+0x1ec>
     a2c:	a2 10 00 1a 	mov  %i2, %l1
     a30:	27 00 00 38 	sethi  %hi(0xe000), %l3
     a34:	a6 14 e1 58 	or  %l3, 0x158, %l3	! e158 <__clz_tab+0x158>
     a38:	80 8c a0 10 	btst  0x10, %l2
     a3c:	32 80 00 02 	bne,a   a44 <number+0x2c>
     a40:	a4 0c bf fe 	and  %l2, -2, %l2
     a44:	82 06 ff fe 	add  %i3, -2, %g1
     a48:	80 a0 60 22 	cmp  %g1, 0x22
     a4c:	18 80 00 86 	bgu  c64 <number+0x24c>
     a50:	82 0c a0 01 	and  %l2, 1, %g1
     a54:	80 a0 00 01 	cmp  %g0, %g1
     a58:	aa 10 20 00 	clr  %l5
     a5c:	a8 40 3f ff 	addx  %g0, -1, %l4
     a60:	80 8c a0 02 	btst  2, %l2
     a64:	a8 0d 20 f0 	and  %l4, 0xf0, %l4
     a68:	02 80 00 09 	be  a8c <number+0x74>
     a6c:	a8 05 20 30 	add  %l4, 0x30, %l4
     a70:	80 a4 20 00 	cmp  %l0, 0
     a74:	16 80 00 7f 	bge  c70 <number+0x258>
     a78:	80 8c a0 04 	btst  4, %l2
     a7c:	a2 a0 00 11 	subcc  %g0, %l1, %l1
     a80:	b8 07 3f ff 	add  %i4, -1, %i4
     a84:	a0 60 00 10 	subx  %g0, %l0, %l0
     a88:	aa 10 20 2d 	mov  0x2d, %l5
     a8c:	ac 8c a0 20 	andcc  %l2, 0x20, %l6
     a90:	02 80 00 08 	be  ab0 <number+0x98>
     a94:	80 94 00 11 	orcc  %l0, %l1, %g0
     a98:	80 a6 e0 10 	cmp  %i3, 0x10
     a9c:	02 80 00 86 	be  cb4 <number+0x29c>
     aa0:	82 1e e0 08 	xor  %i3, 8, %g1
     aa4:	80 a0 00 01 	cmp  %g0, %g1
     aa8:	b8 47 3f ff 	addx  %i4, -1, %i4
     aac:	80 94 00 11 	orcc  %l0, %l1, %g0
     ab0:	12 80 00 59 	bne  c14 <number+0x1fc>
     ab4:	b4 10 20 00 	clr  %i2
     ab8:	82 10 20 30 	mov  0x30, %g1
     abc:	9e 10 20 00 	clr  %o7
     ac0:	c2 2f bf b8 	stb  %g1, [ %fp + -72 ]
     ac4:	b4 10 20 01 	mov  1, %i2
     ac8:	b2 07 bf b8 	add  %fp, -72, %i1
     acc:	80 a6 80 1d 	cmp  %i2, %i5
     ad0:	16 80 00 03 	bge  adc <number+0xc4>
     ad4:	84 10 00 1a 	mov  %i2, %g2
     ad8:	84 10 00 1d 	mov  %i5, %g2
     adc:	80 8c a0 11 	btst  0x11, %l2
     ae0:	12 80 00 0d 	bne  b14 <number+0xfc>
     ae4:	88 27 00 02 	sub  %i4, %g2, %g4
     ae8:	80 a1 20 00 	cmp  %g4, 0
     aec:	04 80 00 7c 	ble  cdc <number+0x2c4>
     af0:	82 01 3f ff 	add  %g4, -1, %g1
     af4:	88 06 00 04 	add  %i0, %g4, %g4
     af8:	82 10 20 20 	mov  0x20, %g1
     afc:	c2 2e 00 00 	stb  %g1, [ %i0 ]
     b00:	b0 06 20 01 	inc  %i0
     b04:	80 a6 00 04 	cmp  %i0, %g4
     b08:	32 bf ff fe 	bne,a   b00 <number+0xe8>
     b0c:	c2 2e 00 00 	stb  %g1, [ %i0 ]
     b10:	88 10 3f ff 	mov  -1, %g4
     b14:	80 8d 60 ff 	btst  0xff, %l5
     b18:	02 80 00 04 	be  b28 <number+0x110>
     b1c:	80 a5 a0 00 	cmp  %l6, 0
     b20:	ea 2e 00 00 	stb  %l5, [ %i0 ]
     b24:	b0 06 20 01 	inc  %i0
     b28:	02 80 00 08 	be  b48 <number+0x130>
     b2c:	80 8c a0 10 	btst  0x10, %l2
     b30:	80 a6 e0 08 	cmp  %i3, 8
     b34:	02 80 00 5c 	be  ca4 <number+0x28c>
     b38:	80 a6 e0 10 	cmp  %i3, 0x10
     b3c:	22 80 00 63 	be,a   cc8 <number+0x2b0>
     b40:	82 10 20 30 	mov  0x30, %g1
     b44:	80 8c a0 10 	btst  0x10, %l2
     b48:	12 80 00 0d 	bne  b7c <number+0x164>
     b4c:	80 a0 80 1a 	cmp  %g2, %i2
     b50:	80 a1 20 00 	cmp  %g4, 0
     b54:	04 80 00 64 	ble  ce4 <number+0x2cc>
     b58:	82 01 3f ff 	add  %g4, -1, %g1
     b5c:	88 06 00 04 	add  %i0, %g4, %g4
     b60:	e8 2e 00 00 	stb  %l4, [ %i0 ]
     b64:	b0 06 20 01 	inc  %i0
     b68:	80 a6 00 04 	cmp  %i0, %g4
     b6c:	32 bf ff fe 	bne,a   b64 <number+0x14c>
     b70:	e8 2e 00 00 	stb  %l4, [ %i0 ]
     b74:	88 10 3f ff 	mov  -1, %g4
     b78:	80 a0 80 1a 	cmp  %g2, %i2
     b7c:	04 80 00 09 	ble  ba0 <number+0x188>
     b80:	82 20 80 1a 	sub  %g2, %i2, %g1
     b84:	86 10 20 30 	mov  0x30, %g3
     b88:	82 06 00 01 	add  %i0, %g1, %g1
     b8c:	c6 2e 00 00 	stb  %g3, [ %i0 ]
     b90:	b0 06 20 01 	inc  %i0
     b94:	80 a6 00 01 	cmp  %i0, %g1
     b98:	32 bf ff fe 	bne,a   b90 <number+0x178>
     b9c:	c6 2e 00 00 	stb  %g3, [ %i0 ]
     ba0:	82 10 00 0f 	mov  %o7, %g1
     ba4:	84 10 00 18 	mov  %i0, %g2
     ba8:	c6 0e 40 01 	ldub  [ %i1 + %g1 ], %g3
     bac:	c6 28 80 00 	stb  %g3, [ %g2 ]
     bb0:	82 00 7f ff 	add  %g1, -1, %g1
     bb4:	86 00 60 01 	add  %g1, 1, %g3
     bb8:	80 a0 e0 00 	cmp  %g3, 0
     bbc:	14 bf ff fb 	bg  ba8 <number+0x190>
     bc0:	84 00 a0 01 	inc  %g2
     bc4:	82 38 00 0f 	xnor  %g0, %o7, %g1
     bc8:	80 a1 20 00 	cmp  %g4, 0
     bcc:	83 38 60 1f 	sra  %g1, 0x1f, %g1
     bd0:	82 0b c0 01 	and  %o7, %g1, %g1
     bd4:	82 00 60 01 	inc  %g1
     bd8:	04 80 00 09 	ble  bfc <number+0x1e4>
     bdc:	b0 06 00 01 	add  %i0, %g1, %i0
     be0:	84 06 00 04 	add  %i0, %g4, %g2
     be4:	82 10 20 20 	mov  0x20, %g1
     be8:	c2 2e 00 00 	stb  %g1, [ %i0 ]
     bec:	b0 06 20 01 	inc  %i0
     bf0:	80 a6 00 02 	cmp  %i0, %g2
     bf4:	32 bf ff fe 	bne,a   bec <number+0x1d4>
     bf8:	c2 2e 00 00 	stb  %g1, [ %i0 ]
     bfc:	81 c7 e0 08 	ret 
     c00:	81 e8 00 00 	restore 
     c04:	27 00 00 38 	sethi  %hi(0xe000), %l3
     c08:	10 bf ff 8c 	b  a38 <number+0x20>
     c0c:	a6 14 e1 30 	or  %l3, 0x130, %l3	! e130 <__clz_tab+0x130>
     c10:	b4 10 20 00 	clr  %i2
     c14:	b2 07 bf b8 	add  %fp, -72, %i1
     c18:	90 10 00 10 	mov  %l0, %o0
     c1c:	92 10 00 11 	mov  %l1, %o1
     c20:	94 10 20 00 	clr  %o2
     c24:	40 00 11 80 	call  5224 <__umoddi3>
     c28:	96 10 00 1b 	mov  %i3, %o3
     c2c:	c2 0c c0 09 	ldub  [ %l3 + %o1 ], %g1
     c30:	90 10 00 10 	mov  %l0, %o0
     c34:	92 10 00 11 	mov  %l1, %o1
     c38:	c2 2e 40 1a 	stb  %g1, [ %i1 + %i2 ]
     c3c:	94 10 20 00 	clr  %o2
     c40:	96 10 00 1b 	mov  %i3, %o3
     c44:	40 00 10 ab 	call  4ef0 <__udivdi3>
     c48:	b4 06 a0 01 	inc  %i2
     c4c:	a0 10 00 08 	mov  %o0, %l0
     c50:	80 94 00 09 	orcc  %l0, %o1, %g0
     c54:	12 bf ff f1 	bne  c18 <number+0x200>
     c58:	a2 10 00 09 	mov  %o1, %l1
     c5c:	10 bf ff 9c 	b  acc <number+0xb4>
     c60:	9e 06 bf ff 	add  %i2, -1, %o7
     c64:	b0 10 20 00 	clr  %i0
     c68:	81 c7 e0 08 	ret 
     c6c:	81 e8 00 00 	restore 
     c70:	32 80 00 08 	bne,a   c90 <number+0x278>
     c74:	b8 07 3f ff 	add  %i4, -1, %i4
     c78:	80 8c a0 08 	btst  8, %l2
     c7c:	02 bf ff 85 	be  a90 <number+0x78>
     c80:	ac 8c a0 20 	andcc  %l2, 0x20, %l6
     c84:	b8 07 3f ff 	add  %i4, -1, %i4
     c88:	10 bf ff 82 	b  a90 <number+0x78>
     c8c:	aa 10 20 20 	mov  0x20, %l5
     c90:	ac 8c a0 20 	andcc  %l2, 0x20, %l6
     c94:	02 bf ff 86 	be  aac <number+0x94>
     c98:	aa 10 20 2b 	mov  0x2b, %l5
     c9c:	10 bf ff 80 	b  a9c <number+0x84>
     ca0:	80 a6 e0 10 	cmp  %i3, 0x10
     ca4:	82 10 20 30 	mov  0x30, %g1
     ca8:	c2 2e 00 00 	stb  %g1, [ %i0 ]
     cac:	10 bf ff a6 	b  b44 <number+0x12c>
     cb0:	b0 06 20 01 	inc  %i0
     cb4:	80 94 00 11 	orcc  %l0, %l1, %g0
     cb8:	12 bf ff d6 	bne  c10 <number+0x1f8>
     cbc:	b8 07 3f fe 	add  %i4, -2, %i4
     cc0:	10 bf ff 7f 	b  abc <number+0xa4>
     cc4:	82 10 20 30 	mov  0x30, %g1
     cc8:	c2 2e 00 00 	stb  %g1, [ %i0 ]
     ccc:	82 10 20 78 	mov  0x78, %g1
     cd0:	c2 2e 20 01 	stb  %g1, [ %i0 + 1 ]
     cd4:	10 bf ff 9c 	b  b44 <number+0x12c>
     cd8:	b0 06 20 02 	add  %i0, 2, %i0
     cdc:	10 bf ff 8e 	b  b14 <number+0xfc>
     ce0:	88 10 00 01 	mov  %g1, %g4
     ce4:	10 bf ff a5 	b  b78 <number+0x160>
     ce8:	88 10 00 01 	mov  %g1, %g4

00000cec <ee_vsprintf>:
     cec:	9d e3 be d0 	save  %sp, -304, %sp
     cf0:	c4 0e 40 00 	ldub  [ %i1 ], %g2
     cf4:	83 28 a0 18 	sll  %g2, 0x18, %g1
     cf8:	80 a0 60 00 	cmp  %g1, 0
     cfc:	02 80 02 2d 	be  15b0 <ee_vsprintf+0x8c4>
     d00:	ba 10 00 18 	mov  %i0, %i5
     d04:	27 00 00 02 	sethi  %hi(0x800), %l3
     d08:	37 00 00 02 	sethi  %hi(0x800), %i3
     d0c:	23 00 00 38 	sethi  %hi(0xe000), %l1
     d10:	a4 07 bf b0 	add  %fp, -80, %l2
     d14:	a8 07 a0 60 	add  %fp, 0x60, %l4
     d18:	10 80 00 08 	b  d38 <ee_vsprintf+0x4c>
     d1c:	21 00 00 38 	sethi  %hi(0xe000), %l0
     d20:	ba 07 60 01 	inc  %i5
     d24:	c4 0e 60 01 	ldub  [ %i1 + 1 ], %g2
     d28:	83 28 a0 18 	sll  %g2, 0x18, %g1
     d2c:	80 a0 60 00 	cmp  %g1, 0
     d30:	02 80 00 4e 	be  e68 <ee_vsprintf+0x17c>
     d34:	b2 06 60 01 	inc  %i1
     d38:	83 38 60 18 	sra  %g1, 0x18, %g1
     d3c:	80 a0 60 25 	cmp  %g1, 0x25
     d40:	32 bf ff f8 	bne,a   d20 <ee_vsprintf+0x34>
     d44:	c4 2f 40 00 	stb  %g2, [ %i5 ]
     d48:	aa 10 20 00 	clr  %l5
     d4c:	c2 0e 60 01 	ldub  [ %i1 + 1 ], %g1
     d50:	86 00 7f e0 	add  %g1, -32, %g3
     d54:	86 08 e0 ff 	and  %g3, 0xff, %g3
     d58:	80 a0 e0 10 	cmp  %g3, 0x10
     d5c:	08 80 00 47 	bleu  e78 <ee_vsprintf+0x18c>
     d60:	84 06 60 01 	add  %i1, 1, %g2
     d64:	86 00 7f d0 	add  %g1, -48, %g3
     d68:	86 08 e0 ff 	and  %g3, 0xff, %g3
     d6c:	80 a0 e0 09 	cmp  %g3, 9
     d70:	18 80 00 5c 	bgu  ee0 <ee_vsprintf+0x1f4>
     d74:	87 28 60 18 	sll  %g1, 0x18, %g3
     d78:	b8 10 20 00 	clr  %i4
     d7c:	86 07 00 1c 	add  %i4, %i4, %g3
     d80:	83 28 60 18 	sll  %g1, 0x18, %g1
     d84:	83 38 60 18 	sra  %g1, 0x18, %g1
     d88:	b9 2f 20 03 	sll  %i4, 3, %i4
     d8c:	84 00 a0 01 	inc  %g2
     d90:	b8 00 c0 1c 	add  %g3, %i4, %i4
     d94:	b8 07 00 01 	add  %i4, %g1, %i4
     d98:	c2 08 80 00 	ldub  [ %g2 ], %g1
     d9c:	86 00 7f d0 	add  %g1, -48, %g3
     da0:	86 08 e0 ff 	and  %g3, 0xff, %g3
     da4:	80 a0 e0 09 	cmp  %g3, 9
     da8:	08 bf ff f5 	bleu  d7c <ee_vsprintf+0x90>
     dac:	b8 07 3f d0 	add  %i4, -48, %i4
     db0:	87 28 60 18 	sll  %g1, 0x18, %g3
     db4:	b2 10 00 02 	mov  %g2, %i1
     db8:	87 38 e0 18 	sra  %g3, 0x18, %g3
     dbc:	80 a0 e0 2e 	cmp  %g3, 0x2e
     dc0:	02 80 00 51 	be  f04 <ee_vsprintf+0x218>
     dc4:	ac 10 3f ff 	mov  -1, %l6
     dc8:	84 08 7f df 	and  %g1, -33, %g2
     dcc:	85 28 a0 18 	sll  %g2, 0x18, %g2
     dd0:	85 38 a0 18 	sra  %g2, 0x18, %g2
     dd4:	80 a0 a0 4c 	cmp  %g2, 0x4c
     dd8:	32 80 00 40 	bne,a   ed8 <ee_vsprintf+0x1ec>
     ddc:	86 10 3f ff 	mov  -1, %g3
     de0:	c2 0e 60 01 	ldub  [ %i1 + 1 ], %g1
     de4:	84 08 7f df 	and  %g1, -33, %g2
     de8:	85 28 a0 18 	sll  %g2, 0x18, %g2
     dec:	85 38 a0 18 	sra  %g2, 0x18, %g2
     df0:	80 a0 a0 4c 	cmp  %g2, 0x4c
     df4:	12 80 02 e6 	bne  198c <ee_vsprintf+0xca0>
     df8:	86 06 60 01 	add  %i1, 1, %g3
     dfc:	c2 0e 60 02 	ldub  [ %i1 + 2 ], %g1
     e00:	86 10 20 6c 	mov  0x6c, %g3
     e04:	b2 06 60 02 	add  %i1, 2, %i1
     e08:	88 10 20 6c 	mov  0x6c, %g4
     e0c:	84 00 7f bf 	add  %g1, -65, %g2
     e10:	84 08 a0 ff 	and  %g2, 0xff, %g2
     e14:	80 a0 a0 37 	cmp  %g2, 0x37
     e18:	08 80 00 2c 	bleu  ec8 <ee_vsprintf+0x1dc>
     e1c:	9e 16 e0 f4 	or  %i3, 0xf4, %o7
     e20:	83 28 60 18 	sll  %g1, 0x18, %g1
     e24:	83 38 60 18 	sra  %g1, 0x18, %g1
     e28:	80 a0 60 25 	cmp  %g1, 0x25
     e2c:	02 80 00 08 	be  e4c <ee_vsprintf+0x160>
     e30:	82 10 20 25 	mov  0x25, %g1
     e34:	c2 2f 40 00 	stb  %g1, [ %i5 ]
     e38:	ba 07 60 01 	inc  %i5
     e3c:	c4 4e 40 00 	ldsb  [ %i1 ], %g2
     e40:	80 a0 a0 00 	cmp  %g2, 0
     e44:	02 80 00 09 	be  e68 <ee_vsprintf+0x17c>
     e48:	c2 0e 40 00 	ldub  [ %i1 ], %g1
     e4c:	c2 2f 40 00 	stb  %g1, [ %i5 ]
     e50:	ba 07 60 01 	inc  %i5
     e54:	c4 0e 60 01 	ldub  [ %i1 + 1 ], %g2
     e58:	83 28 a0 18 	sll  %g2, 0x18, %g1
     e5c:	80 a0 60 00 	cmp  %g1, 0
     e60:	12 bf ff b6 	bne  d38 <ee_vsprintf+0x4c>
     e64:	b2 06 60 01 	inc  %i1
     e68:	b0 27 40 18 	sub  %i5, %i0, %i0
     e6c:	c0 2f 40 00 	clrb  [ %i5 ]
     e70:	81 c7 e0 08 	ret 
     e74:	81 e8 00 00 	restore 
     e78:	88 14 e1 d4 	or  %l3, 0x1d4, %g4
     e7c:	87 28 e0 02 	sll  %g3, 2, %g3
     e80:	c6 01 00 03 	ld  [ %g4 + %g3 ], %g3
     e84:	81 c0 c0 00 	jmp  %g3
     e88:	01 00 00 00 	nop 
     e8c:	aa 15 60 01 	or  %l5, 1, %l5
     e90:	10 bf ff af 	b  d4c <ee_vsprintf+0x60>
     e94:	b2 10 00 02 	mov  %g2, %i1
     e98:	aa 15 60 10 	or  %l5, 0x10, %l5
     e9c:	10 bf ff ac 	b  d4c <ee_vsprintf+0x60>
     ea0:	b2 10 00 02 	mov  %g2, %i1
     ea4:	aa 15 60 04 	or  %l5, 4, %l5
     ea8:	10 bf ff a9 	b  d4c <ee_vsprintf+0x60>
     eac:	b2 10 00 02 	mov  %g2, %i1
     eb0:	aa 15 60 20 	or  %l5, 0x20, %l5
     eb4:	10 bf ff a6 	b  d4c <ee_vsprintf+0x60>
     eb8:	b2 10 00 02 	mov  %g2, %i1
     ebc:	aa 15 60 08 	or  %l5, 8, %l5
     ec0:	10 bf ff a3 	b  d4c <ee_vsprintf+0x60>
     ec4:	b2 10 00 02 	mov  %g2, %i1
     ec8:	85 28 a0 02 	sll  %g2, 2, %g2
     ecc:	c4 03 c0 02 	ld  [ %o7 + %g2 ], %g2
     ed0:	81 c0 80 00 	jmp  %g2
     ed4:	01 00 00 00 	nop 
     ed8:	10 bf ff cd 	b  e0c <ee_vsprintf+0x120>
     edc:	88 10 20 00 	clr  %g4	! 0 <_start>
     ee0:	89 38 e0 18 	sra  %g3, 0x18, %g4
     ee4:	80 a1 20 2a 	cmp  %g4, 0x2a
     ee8:	02 80 01 2b 	be  1394 <ee_vsprintf+0x6a8>
     eec:	87 38 e0 18 	sra  %g3, 0x18, %g3
     ef0:	b2 10 00 02 	mov  %g2, %i1
     ef4:	b8 10 3f ff 	mov  -1, %i4
     ef8:	80 a0 e0 2e 	cmp  %g3, 0x2e
     efc:	12 bf ff b3 	bne  dc8 <ee_vsprintf+0xdc>
     f00:	ac 10 3f ff 	mov  -1, %l6
     f04:	c2 0e 60 01 	ldub  [ %i1 + 1 ], %g1
     f08:	86 00 7f d0 	add  %g1, -48, %g3
     f0c:	86 08 e0 ff 	and  %g3, 0xff, %g3
     f10:	80 a0 e0 09 	cmp  %g3, 9
     f14:	18 80 00 12 	bgu  f5c <ee_vsprintf+0x270>
     f18:	84 06 60 01 	add  %i1, 1, %g2
     f1c:	ac 10 20 00 	clr  %l6
     f20:	86 05 80 16 	add  %l6, %l6, %g3
     f24:	83 28 60 18 	sll  %g1, 0x18, %g1
     f28:	83 38 60 18 	sra  %g1, 0x18, %g1
     f2c:	ad 2d a0 03 	sll  %l6, 3, %l6
     f30:	84 00 a0 01 	inc  %g2
     f34:	ac 00 c0 16 	add  %g3, %l6, %l6
     f38:	ac 05 80 01 	add  %l6, %g1, %l6
     f3c:	c2 08 80 00 	ldub  [ %g2 ], %g1
     f40:	86 00 7f d0 	add  %g1, -48, %g3
     f44:	86 08 e0 ff 	and  %g3, 0xff, %g3
     f48:	80 a0 e0 09 	cmp  %g3, 9
     f4c:	08 bf ff f5 	bleu  f20 <ee_vsprintf+0x234>
     f50:	ac 05 bf d0 	add  %l6, -48, %l6
     f54:	10 bf ff 9d 	b  dc8 <ee_vsprintf+0xdc>
     f58:	b2 10 00 02 	mov  %g2, %i1
     f5c:	87 28 60 18 	sll  %g1, 0x18, %g3
     f60:	87 38 e0 18 	sra  %g3, 0x18, %g3
     f64:	80 a0 e0 2a 	cmp  %g3, 0x2a
     f68:	02 80 01 89 	be  158c <ee_vsprintf+0x8a0>
     f6c:	ac 10 20 00 	clr  %l6
     f70:	10 bf ff 96 	b  dc8 <ee_vsprintf+0xdc>
     f74:	b2 10 00 02 	mov  %g2, %i1
     f78:	aa 15 60 40 	or  %l5, 0x40, %l5
     f7c:	80 a0 e0 6c 	cmp  %g3, 0x6c
     f80:	02 80 01 3a 	be  1468 <ee_vsprintf+0x77c>
     f84:	84 10 20 00 	clr  %g2
     f88:	de 06 80 00 	ld  [ %i2 ], %o7
     f8c:	b4 06 a0 04 	add  %i2, 4, %i2
     f90:	c2 0b c0 02 	ldub  [ %o7 + %g2 ], %g1
     f94:	86 10 20 00 	clr  %g3
     f98:	96 10 20 30 	mov  0x30, %o3
     f9c:	80 a0 60 00 	cmp  %g1, 0
     fa0:	12 80 00 0e 	bne  fd8 <ee_vsprintf+0x2ec>
     fa4:	98 10 20 2e 	mov  0x2e, %o4
     fa8:	82 07 80 03 	add  %fp, %g3, %g1
     fac:	d6 28 7f b0 	stb  %o3, [ %g1 + -80 ]
     fb0:	84 00 a0 01 	inc  %g2
     fb4:	80 a0 a0 04 	cmp  %g2, 4
     fb8:	02 80 00 2b 	be  1064 <ee_vsprintf+0x378>
     fbc:	86 00 e0 01 	inc  %g3
     fc0:	82 07 80 03 	add  %fp, %g3, %g1
     fc4:	d8 28 7f b0 	stb  %o4, [ %g1 + -80 ]
     fc8:	c2 0b c0 02 	ldub  [ %o7 + %g2 ], %g1
     fcc:	80 a0 60 00 	cmp  %g1, 0
     fd0:	02 bf ff f6 	be  fa8 <ee_vsprintf+0x2bc>
     fd4:	86 00 e0 01 	inc  %g3
     fd8:	80 a0 60 63 	cmp  %g1, 0x63
     fdc:	04 80 00 f7 	ble  13b8 <ee_vsprintf+0x6cc>
     fe0:	80 a0 60 09 	cmp  %g1, 9
     fe4:	89 38 60 1f 	sra  %g1, 0x1f, %g4
     fe8:	81 81 20 00 	mov  %g4, %y
     fec:	01 00 00 00 	nop 
     ff0:	01 00 00 00 	nop 
     ff4:	01 00 00 00 	nop 
     ff8:	9a 78 60 64 	sdiv  %g1, 0x64, %o5
     ffc:	88 14 21 30 	or  %l0, 0x130, %g4
    1000:	92 5b 60 64 	smul  %o5, 0x64, %o1
    1004:	da 09 00 0d 	ldub  [ %g4 + %o5 ], %o5
    1008:	94 07 80 03 	add  %fp, %g3, %o2
    100c:	82 20 40 09 	sub  %g1, %o1, %g1
    1010:	da 2a bf b0 	stb  %o5, [ %o2 + -80 ]
    1014:	86 00 e0 02 	add  %g3, 2, %g3
    1018:	93 38 60 1f 	sra  %g1, 0x1f, %o1
    101c:	81 82 60 00 	mov  %o1, %y
    1020:	01 00 00 00 	nop 
    1024:	01 00 00 00 	nop 
    1028:	01 00 00 00 	nop 
    102c:	9a 78 60 0a 	sdiv  %g1, 0xa, %o5
    1030:	d0 09 00 0d 	ldub  [ %g4 + %o5 ], %o0
    1034:	92 03 40 0d 	add  %o5, %o5, %o1
    1038:	d0 2a bf b1 	stb  %o0, [ %o2 + -79 ]
    103c:	9b 2b 60 03 	sll  %o5, 3, %o5
    1040:	9a 02 40 0d 	add  %o1, %o5, %o5
    1044:	82 20 40 0d 	sub  %g1, %o5, %g1
    1048:	9a 07 80 03 	add  %fp, %g3, %o5
    104c:	c2 09 00 01 	ldub  [ %g4 + %g1 ], %g1
    1050:	c2 2b 7f b0 	stb  %g1, [ %o5 + -80 ]
    1054:	84 00 a0 01 	inc  %g2
    1058:	80 a0 a0 04 	cmp  %g2, 4
    105c:	12 bf ff d9 	bne  fc0 <ee_vsprintf+0x2d4>
    1060:	86 00 e0 01 	inc  %g3
    1064:	80 8d 60 10 	btst  0x10, %l5
    1068:	32 80 00 0f 	bne,a   10a4 <ee_vsprintf+0x3b8>
    106c:	82 10 20 00 	clr  %g1
    1070:	80 a7 00 03 	cmp  %i4, %g3
    1074:	04 80 02 1f 	ble  18f0 <ee_vsprintf+0xc04>
    1078:	82 07 3f ff 	add  %i4, -1, %g1
    107c:	82 27 00 03 	sub  %i4, %g3, %g1
    1080:	84 10 20 20 	mov  0x20, %g2
    1084:	82 07 40 01 	add  %i5, %g1, %g1
    1088:	c4 2f 40 00 	stb  %g2, [ %i5 ]
    108c:	ba 07 60 01 	inc  %i5
    1090:	80 a7 40 01 	cmp  %i5, %g1
    1094:	32 bf ff fe 	bne,a   108c <ee_vsprintf+0x3a0>
    1098:	c4 2f 40 00 	stb  %g2, [ %i5 ]
    109c:	b8 00 ff ff 	add  %g3, -1, %i4
    10a0:	82 10 20 00 	clr  %g1
    10a4:	c4 0c 80 01 	ldub  [ %l2 + %g1 ], %g2
    10a8:	c4 2f 40 01 	stb  %g2, [ %i5 + %g1 ]
    10ac:	82 00 60 01 	inc  %g1
    10b0:	80 a0 40 03 	cmp  %g1, %g3
    10b4:	32 bf ff fd 	bne,a   10a8 <ee_vsprintf+0x3bc>
    10b8:	c4 0c 80 01 	ldub  [ %l2 + %g1 ], %g2
    10bc:	80 a7 00 01 	cmp  %i4, %g1
    10c0:	04 80 00 0a 	ble  10e8 <ee_vsprintf+0x3fc>
    10c4:	ba 07 40 01 	add  %i5, %g1, %i5
    10c8:	82 27 00 01 	sub  %i4, %g1, %g1
    10cc:	84 10 20 20 	mov  0x20, %g2
    10d0:	82 07 40 01 	add  %i5, %g1, %g1
    10d4:	c4 2f 40 00 	stb  %g2, [ %i5 ]
    10d8:	ba 07 60 01 	inc  %i5
    10dc:	80 a7 40 01 	cmp  %i5, %g1
    10e0:	32 bf ff fe 	bne,a   10d8 <ee_vsprintf+0x3ec>
    10e4:	c4 2f 40 00 	stb  %g2, [ %i5 ]
    10e8:	10 bf ff 10 	b  d28 <ee_vsprintf+0x3c>
    10ec:	c4 0e 60 01 	ldub  [ %i1 + 1 ], %g2
    10f0:	80 8d 60 10 	btst  0x10, %l5
    10f4:	32 80 00 ca 	bne,a   141c <ee_vsprintf+0x730>
    10f8:	c2 06 80 00 	ld  [ %i2 ], %g1
    10fc:	b8 07 3f ff 	add  %i4, -1, %i4
    1100:	80 a7 20 00 	cmp  %i4, 0
    1104:	04 80 00 c5 	ble  1418 <ee_vsprintf+0x72c>
    1108:	82 10 20 20 	mov  0x20, %g1
    110c:	84 07 40 1c 	add  %i5, %i4, %g2
    1110:	c2 2f 40 00 	stb  %g1, [ %i5 ]
    1114:	ba 07 60 01 	inc  %i5
    1118:	80 a7 40 02 	cmp  %i5, %g2
    111c:	32 bf ff fe 	bne,a   1114 <ee_vsprintf+0x428>
    1120:	c2 2f 40 00 	stb  %g1, [ %i5 ]
    1124:	c2 06 80 00 	ld  [ %i2 ], %g1
    1128:	b4 06 a0 04 	add  %i2, 4, %i2
    112c:	c2 2f 40 00 	stb  %g1, [ %i5 ]
    1130:	ba 07 60 01 	inc  %i5
    1134:	10 bf fe fd 	b  d28 <ee_vsprintf+0x3c>
    1138:	c4 0e 60 01 	ldub  [ %i1 + 1 ], %g2
    113c:	aa 15 60 40 	or  %l5, 0x40, %l5
    1140:	96 10 20 10 	mov  0x10, %o3
    1144:	86 18 e0 6c 	xor  %g3, 0x6c, %g3
    1148:	80 a0 00 03 	cmp  %g0, %g3
    114c:	82 60 3f ff 	subx  %g0, -1, %g1
    1150:	80 a1 20 6c 	cmp  %g4, 0x6c
    1154:	02 80 00 19 	be  11b8 <ee_vsprintf+0x4cc>
    1158:	80 88 60 ff 	btst  0xff, %g1
    115c:	80 88 60 ff 	btst  0xff, %g1
    1160:	32 80 00 ab 	bne,a   140c <ee_vsprintf+0x720>
    1164:	d4 06 80 00 	ld  [ %i2 ], %o2
    1168:	80 8d 60 02 	btst  2, %l5
    116c:	02 80 00 a5 	be  1400 <ee_vsprintf+0x714>
    1170:	d4 06 80 00 	ld  [ %i2 ], %o2
    1174:	b4 06 a0 04 	add  %i2, 4, %i2
    1178:	93 3a a0 1f 	sra  %o2, 0x1f, %o1
    117c:	90 10 00 1d 	mov  %i5, %o0
    1180:	ea 23 a0 5c 	st  %l5, [ %sp + 0x5c ]
    1184:	98 10 00 1c 	mov  %i4, %o4
    1188:	7f ff fe 24 	call  a18 <number>
    118c:	9a 10 00 16 	mov  %l6, %o5
    1190:	c4 0e 60 01 	ldub  [ %i1 + 1 ], %g2
    1194:	10 bf fe e5 	b  d28 <ee_vsprintf+0x3c>
    1198:	ba 10 00 08 	mov  %o0, %i5
    119c:	86 18 e0 6c 	xor  %g3, 0x6c, %g3
    11a0:	80 a0 00 03 	cmp  %g0, %g3
    11a4:	82 60 3f ff 	subx  %g0, -1, %g1
    11a8:	80 a1 20 6c 	cmp  %g4, 0x6c
    11ac:	12 bf ff ec 	bne  115c <ee_vsprintf+0x470>
    11b0:	96 10 20 10 	mov  0x10, %o3
    11b4:	80 88 60 ff 	btst  0xff, %g1
    11b8:	02 bf ff ed 	be  116c <ee_vsprintf+0x480>
    11bc:	80 8d 60 02 	btst  2, %l5
    11c0:	92 10 00 1a 	mov  %i2, %o1
    11c4:	94 10 20 08 	mov  8, %o2
    11c8:	d6 27 bf 40 	st  %o3, [ %fp + -192 ]
    11cc:	40 00 0b 2c 	call  3e7c <__GI_memcpy>
    11d0:	90 07 bf 58 	add  %fp, -168, %o0
    11d4:	b4 06 a0 08 	add  %i2, 8, %i2
    11d8:	d2 07 bf 58 	ld  [ %fp + -168 ], %o1
    11dc:	d4 07 bf 5c 	ld  [ %fp + -164 ], %o2
    11e0:	10 bf ff e7 	b  117c <ee_vsprintf+0x490>
    11e4:	d6 07 bf 40 	ld  [ %fp + -192 ], %o3
    11e8:	10 bf ff d7 	b  1144 <ee_vsprintf+0x458>
    11ec:	96 10 20 0a 	mov  0xa, %o3
    11f0:	c8 06 80 00 	ld  [ %i2 ], %g4
    11f4:	80 a1 20 00 	cmp  %g4, 0
    11f8:	02 80 01 a6 	be  1890 <ee_vsprintf+0xba4>
    11fc:	b4 06 a0 04 	add  %i2, 4, %i2
    1200:	c2 49 00 00 	ldsb  [ %g4 ], %g1
    1204:	80 a0 60 00 	cmp  %g1, 0
    1208:	02 80 01 b8 	be  18e8 <ee_vsprintf+0xbfc>
    120c:	80 a5 a0 00 	cmp  %l6, 0
    1210:	02 80 01 b6 	be  18e8 <ee_vsprintf+0xbfc>
    1214:	82 10 00 04 	mov  %g4, %g1
    1218:	10 80 00 05 	b  122c <ee_vsprintf+0x540>
    121c:	82 00 60 01 	inc  %g1
    1220:	02 80 00 08 	be  1240 <ee_vsprintf+0x554>
    1224:	86 20 40 04 	sub  %g1, %g4, %g3
    1228:	82 00 60 01 	inc  %g1
    122c:	c4 48 40 00 	ldsb  [ %g1 ], %g2
    1230:	80 a0 a0 00 	cmp  %g2, 0
    1234:	32 bf ff fb 	bne,a   1220 <ee_vsprintf+0x534>
    1238:	ac 85 bf ff 	addcc  %l6, -1, %l6
    123c:	86 20 40 04 	sub  %g1, %g4, %g3
    1240:	80 8d 60 10 	btst  0x10, %l5
    1244:	12 80 00 0f 	bne  1280 <ee_vsprintf+0x594>
    1248:	80 a0 e0 00 	cmp  %g3, 0
    124c:	80 a7 00 03 	cmp  %i4, %g3
    1250:	04 80 01 c5 	ble  1964 <ee_vsprintf+0xc78>
    1254:	82 07 3f ff 	add  %i4, -1, %g1
    1258:	82 27 00 03 	sub  %i4, %g3, %g1
    125c:	84 10 20 20 	mov  0x20, %g2
    1260:	82 07 40 01 	add  %i5, %g1, %g1
    1264:	c4 2f 40 00 	stb  %g2, [ %i5 ]
    1268:	ba 07 60 01 	inc  %i5
    126c:	80 a7 40 01 	cmp  %i5, %g1
    1270:	32 bf ff fe 	bne,a   1268 <ee_vsprintf+0x57c>
    1274:	c4 2f 40 00 	stb  %g2, [ %i5 ]
    1278:	b8 00 ff ff 	add  %g3, -1, %i4
    127c:	80 a0 e0 00 	cmp  %g3, 0
    1280:	04 80 00 09 	ble  12a4 <ee_vsprintf+0x5b8>
    1284:	82 10 20 00 	clr  %g1
    1288:	c4 09 00 01 	ldub  [ %g4 + %g1 ], %g2
    128c:	c4 2f 40 01 	stb  %g2, [ %i5 + %g1 ]
    1290:	82 00 60 01 	inc  %g1
    1294:	80 a0 40 03 	cmp  %g1, %g3
    1298:	32 bf ff fd 	bne,a   128c <ee_vsprintf+0x5a0>
    129c:	c4 09 00 01 	ldub  [ %g4 + %g1 ], %g2
    12a0:	ba 07 40 03 	add  %i5, %g3, %i5
    12a4:	82 27 00 03 	sub  %i4, %g3, %g1
    12a8:	84 10 20 20 	mov  0x20, %g2
    12ac:	80 a7 00 03 	cmp  %i4, %g3
    12b0:	04 bf ff 8e 	ble  10e8 <ee_vsprintf+0x3fc>
    12b4:	82 07 40 01 	add  %i5, %g1, %g1
    12b8:	c4 2f 40 00 	stb  %g2, [ %i5 ]
    12bc:	ba 07 60 01 	inc  %i5
    12c0:	80 a7 40 01 	cmp  %i5, %g1
    12c4:	32 bf ff fe 	bne,a   12bc <ee_vsprintf+0x5d0>
    12c8:	c4 2f 40 00 	stb  %g2, [ %i5 ]
    12cc:	10 bf fe 97 	b  d28 <ee_vsprintf+0x3c>
    12d0:	c4 0e 60 01 	ldub  [ %i1 + 1 ], %g2
    12d4:	80 a7 3f ff 	cmp  %i4, -1
    12d8:	22 80 00 62 	be,a   1460 <ee_vsprintf+0x774>
    12dc:	aa 15 60 01 	or  %l5, 1, %l5
    12e0:	d4 06 80 00 	ld  [ %i2 ], %o2
    12e4:	90 10 00 1d 	mov  %i5, %o0
    12e8:	ea 23 a0 5c 	st  %l5, [ %sp + 0x5c ]
    12ec:	92 10 20 00 	clr  %o1
    12f0:	96 10 20 10 	mov  0x10, %o3
    12f4:	98 10 00 1c 	mov  %i4, %o4
    12f8:	7f ff fd c8 	call  a18 <number>
    12fc:	9a 10 00 16 	mov  %l6, %o5
    1300:	b4 06 a0 04 	add  %i2, 4, %i2
    1304:	ba 10 00 08 	mov  %o0, %i5
    1308:	10 bf fe 88 	b  d28 <ee_vsprintf+0x3c>
    130c:	c4 0e 60 01 	ldub  [ %i1 + 1 ], %g2
    1310:	92 10 00 1a 	mov  %i2, %o1
    1314:	90 07 bf 50 	add  %fp, -176, %o0
    1318:	40 00 0a d9 	call  3e7c <__GI_memcpy>
    131c:	94 10 20 08 	mov  8, %o2
    1320:	b4 06 a0 08 	add  %i2, 8, %i2
    1324:	80 8d 60 10 	btst  0x10, %l5
    1328:	02 80 00 03 	be  1334 <ee_vsprintf+0x648>
    132c:	d1 1f bf 50 	ldd  [ %fp + -176 ], %f8
    1330:	aa 0d 7f fe 	and  %l5, -2, %l5
    1334:	aa 15 60 02 	or  %l5, 2, %l5
    1338:	d5 1c 61 88 	ldd  [ %l1 + 0x188 ], %f10
    133c:	82 0d 60 01 	and  %l5, 1, %g1
    1340:	81 aa 0a ca 	fcmped  %f8, %f10
    1344:	80 a0 00 01 	cmp  %g0, %g1
    1348:	ae 40 3f ff 	addx  %g0, -1, %l7
    134c:	ae 0d e0 f0 	and  %l7, 0xf0, %l7
    1350:	01 00 00 00 	nop 
    1354:	09 80 00 9b 	fbl  15c0 <ee_vsprintf+0x8d4>
    1358:	ae 05 e0 30 	add  %l7, 0x30, %l7
    135c:	80 8d 60 04 	btst  4, %l5
    1360:	32 80 00 c7 	bne,a   167c <ee_vsprintf+0x990>
    1364:	b8 07 3f ff 	add  %i4, -1, %i4
    1368:	80 8d 60 08 	btst  8, %l5
    136c:	02 80 00 98 	be  15cc <ee_vsprintf+0x8e0>
    1370:	82 10 20 00 	clr  %g1
    1374:	b8 07 3f ff 	add  %i4, -1, %i4
    1378:	10 80 00 95 	b  15cc <ee_vsprintf+0x8e0>
    137c:	82 10 20 20 	mov  0x20, %g1
    1380:	aa 15 60 02 	or  %l5, 2, %l5
    1384:	10 bf ff 70 	b  1144 <ee_vsprintf+0x458>
    1388:	96 10 20 0a 	mov  0xa, %o3
    138c:	10 bf ff 6e 	b  1144 <ee_vsprintf+0x458>
    1390:	96 10 20 08 	mov  8, %o3
    1394:	f8 06 80 00 	ld  [ %i2 ], %i4
    1398:	84 06 60 02 	add  %i1, 2, %g2
    139c:	b4 06 a0 04 	add  %i2, 4, %i2
    13a0:	80 a7 20 00 	cmp  %i4, 0
    13a4:	16 bf fe 83 	bge  db0 <ee_vsprintf+0xc4>
    13a8:	c2 0e 60 02 	ldub  [ %i1 + 2 ], %g1
    13ac:	b8 20 00 1c 	neg  %i4
    13b0:	10 bf fe 80 	b  db0 <ee_vsprintf+0xc4>
    13b4:	aa 15 60 10 	or  %l5, 0x10, %l5
    13b8:	24 bf ff 24 	ble,a   1048 <ee_vsprintf+0x35c>
    13bc:	88 14 21 30 	or  %l0, 0x130, %g4
    13c0:	89 38 60 1f 	sra  %g1, 0x1f, %g4
    13c4:	81 81 20 00 	mov  %g4, %y
    13c8:	01 00 00 00 	nop 
    13cc:	01 00 00 00 	nop 
    13d0:	01 00 00 00 	nop 
    13d4:	9a 78 60 0a 	sdiv  %g1, 0xa, %o5
    13d8:	92 07 80 03 	add  %fp, %g3, %o1
    13dc:	94 03 40 0d 	add  %o5, %o5, %o2
    13e0:	88 14 21 30 	or  %l0, 0x130, %g4
    13e4:	86 00 e0 01 	inc  %g3
    13e8:	d0 09 00 0d 	ldub  [ %g4 + %o5 ], %o0
    13ec:	9b 2b 60 03 	sll  %o5, 3, %o5
    13f0:	d0 2a 7f b0 	stb  %o0, [ %o1 + -80 ]
    13f4:	9a 02 80 0d 	add  %o2, %o5, %o5
    13f8:	10 bf ff 14 	b  1048 <ee_vsprintf+0x35c>
    13fc:	82 20 40 0d 	sub  %g1, %o5, %g1
    1400:	92 10 20 00 	clr  %o1
    1404:	10 bf ff 5e 	b  117c <ee_vsprintf+0x490>
    1408:	b4 06 a0 04 	add  %i2, 4, %i2
    140c:	92 10 20 00 	clr  %o1
    1410:	10 bf ff 5b 	b  117c <ee_vsprintf+0x490>
    1414:	b4 06 a0 04 	add  %i2, 4, %i2
    1418:	c2 06 80 00 	ld  [ %i2 ], %g1
    141c:	c2 2f 40 00 	stb  %g1, [ %i5 ]
    1420:	86 07 60 01 	add  %i5, 1, %g3
    1424:	b4 06 a0 04 	add  %i2, 4, %i2
    1428:	ba 07 40 1c 	add  %i5, %i4, %i5
    142c:	82 10 00 03 	mov  %g3, %g1
    1430:	80 a7 20 01 	cmp  %i4, 1
    1434:	04 80 01 53 	ble  1980 <ee_vsprintf+0xc94>
    1438:	84 10 20 20 	mov  0x20, %g2
    143c:	c4 28 40 00 	stb  %g2, [ %g1 ]
    1440:	82 00 60 01 	inc  %g1
    1444:	80 a0 40 1d 	cmp  %g1, %i5
    1448:	32 bf ff fe 	bne,a   1440 <ee_vsprintf+0x754>
    144c:	c4 28 40 00 	stb  %g2, [ %g1 ]
    1450:	ba 07 3f ff 	add  %i4, -1, %i5
    1454:	c4 0e 60 01 	ldub  [ %i1 + 1 ], %g2
    1458:	10 bf fe 34 	b  d28 <ee_vsprintf+0x3c>
    145c:	ba 00 c0 1d 	add  %g3, %i5, %i5
    1460:	10 bf ff a0 	b  12e0 <ee_vsprintf+0x5f4>
    1464:	b8 10 20 08 	mov  8, %i4
    1468:	d6 06 80 00 	ld  [ %i2 ], %o3
    146c:	80 8d 60 40 	btst  0x40, %l5
    1470:	02 80 00 52 	be  15b8 <ee_vsprintf+0x8cc>
    1474:	b4 06 a0 04 	add  %i2, 4, %i2
    1478:	1f 00 00 38 	sethi  %hi(0xe000), %o7
    147c:	9e 13 e1 58 	or  %o7, 0x158, %o7	! e158 <__clz_tab+0x158>
    1480:	82 10 20 00 	clr  %g1
    1484:	c8 0a c0 01 	ldub  [ %o3 + %g1 ], %g4
    1488:	98 09 20 ff 	and  %g4, 0xff, %o4
    148c:	88 09 20 0f 	and  %g4, 0xf, %g4
    1490:	84 10 20 00 	clr  %g2
    1494:	da 0b c0 04 	ldub  [ %o7 + %g4 ], %o5
    1498:	86 07 80 02 	add  %fp, %g2, %g3
    149c:	99 33 20 04 	srl  %o4, 4, %o4
    14a0:	da 28 ff b1 	stb  %o5, [ %g3 + -79 ]
    14a4:	c8 0b c0 0c 	ldub  [ %o7 + %o4 ], %g4
    14a8:	c8 28 ff b0 	stb  %g4, [ %g3 + -80 ]
    14ac:	82 00 60 01 	inc  %g1
    14b0:	94 10 20 3a 	mov  0x3a, %o2
    14b4:	80 a0 60 06 	cmp  %g1, 6
    14b8:	02 80 00 12 	be  1500 <ee_vsprintf+0x814>
    14bc:	86 00 a0 02 	add  %g2, 2, %g3
    14c0:	86 07 80 03 	add  %fp, %g3, %g3
    14c4:	d4 28 ff b0 	stb  %o2, [ %g3 + -80 ]
    14c8:	c8 0a c0 01 	ldub  [ %o3 + %g1 ], %g4
    14cc:	98 09 20 ff 	and  %g4, 0xff, %o4
    14d0:	88 09 20 0f 	and  %g4, 0xf, %g4
    14d4:	84 00 a0 03 	add  %g2, 3, %g2
    14d8:	da 0b c0 04 	ldub  [ %o7 + %g4 ], %o5
    14dc:	86 07 80 02 	add  %fp, %g2, %g3
    14e0:	99 33 20 04 	srl  %o4, 4, %o4
    14e4:	da 28 ff b1 	stb  %o5, [ %g3 + -79 ]
    14e8:	c8 0b c0 0c 	ldub  [ %o7 + %o4 ], %g4
    14ec:	c8 28 ff b0 	stb  %g4, [ %g3 + -80 ]
    14f0:	82 00 60 01 	inc  %g1
    14f4:	80 a0 60 06 	cmp  %g1, 6
    14f8:	12 bf ff f2 	bne  14c0 <ee_vsprintf+0x7d4>
    14fc:	86 00 a0 02 	add  %g2, 2, %g3
    1500:	80 8d 60 10 	btst  0x10, %l5
    1504:	32 80 00 0f 	bne,a   1540 <ee_vsprintf+0x854>
    1508:	82 10 20 00 	clr  %g1
    150c:	80 a7 00 03 	cmp  %i4, %g3
    1510:	04 80 01 17 	ble  196c <ee_vsprintf+0xc80>
    1514:	82 07 3f ff 	add  %i4, -1, %g1
    1518:	82 27 00 03 	sub  %i4, %g3, %g1
    151c:	84 10 20 20 	mov  0x20, %g2
    1520:	82 07 40 01 	add  %i5, %g1, %g1
    1524:	c4 2f 40 00 	stb  %g2, [ %i5 ]
    1528:	ba 07 60 01 	inc  %i5
    152c:	80 a7 40 01 	cmp  %i5, %g1
    1530:	32 bf ff fe 	bne,a   1528 <ee_vsprintf+0x83c>
    1534:	c4 2f 40 00 	stb  %g2, [ %i5 ]
    1538:	b8 00 ff ff 	add  %g3, -1, %i4
    153c:	82 10 20 00 	clr  %g1
    1540:	c4 0c 80 01 	ldub  [ %l2 + %g1 ], %g2
    1544:	c4 2f 40 01 	stb  %g2, [ %i5 + %g1 ]
    1548:	82 00 60 01 	inc  %g1
    154c:	80 a0 40 03 	cmp  %g1, %g3
    1550:	32 bf ff fd 	bne,a   1544 <ee_vsprintf+0x858>
    1554:	c4 0c 80 01 	ldub  [ %l2 + %g1 ], %g2
    1558:	80 a7 00 01 	cmp  %i4, %g1
    155c:	04 bf fe e3 	ble  10e8 <ee_vsprintf+0x3fc>
    1560:	ba 07 40 01 	add  %i5, %g1, %i5
    1564:	82 27 00 01 	sub  %i4, %g1, %g1
    1568:	84 10 20 20 	mov  0x20, %g2
    156c:	82 07 40 01 	add  %i5, %g1, %g1
    1570:	c4 2f 40 00 	stb  %g2, [ %i5 ]
    1574:	ba 07 60 01 	inc  %i5
    1578:	80 a7 40 01 	cmp  %i5, %g1
    157c:	32 bf ff fe 	bne,a   1574 <ee_vsprintf+0x888>
    1580:	c4 2f 40 00 	stb  %g2, [ %i5 ]
    1584:	10 bf fd e9 	b  d28 <ee_vsprintf+0x3c>
    1588:	c4 0e 60 01 	ldub  [ %i1 + 1 ], %g2
    158c:	ec 06 80 00 	ld  [ %i2 ], %l6
    1590:	84 06 60 02 	add  %i1, 2, %g2
    1594:	b4 06 a0 04 	add  %i2, 4, %i2
    1598:	80 a5 a0 00 	cmp  %l6, 0
    159c:	16 bf fe 6e 	bge  f54 <ee_vsprintf+0x268>
    15a0:	c2 0e 60 02 	ldub  [ %i1 + 2 ], %g1
    15a4:	ac 10 20 00 	clr  %l6
    15a8:	10 bf fe 08 	b  dc8 <ee_vsprintf+0xdc>
    15ac:	b2 10 00 02 	mov  %g2, %i1
    15b0:	10 bf fe 2f 	b  e6c <ee_vsprintf+0x180>
    15b4:	b0 10 20 00 	clr  %i0
    15b8:	10 bf ff b2 	b  1480 <ee_vsprintf+0x794>
    15bc:	9e 14 21 30 	or  %l0, 0x130, %o7
    15c0:	91 a0 00 a8 	fnegs  %f8, %f8
    15c4:	b8 07 3f ff 	add  %i4, -1, %i4
    15c8:	82 10 20 2d 	mov  0x2d, %g1
    15cc:	80 a5 bf ff 	cmp  %l6, -1
    15d0:	22 80 00 02 	be,a   15d8 <ee_vsprintf+0x8ec>
    15d4:	ac 10 20 06 	mov  6, %l6
    15d8:	d1 3f bf 38 	std  %f8, [ %fp + -200 ]
    15dc:	c2 27 bf 44 	st  %g1, [ %fp + -188 ]
    15e0:	d0 1f bf 38 	ldd  [ %fp + -200 ], %o0
    15e4:	94 10 00 16 	mov  %l6, %o2
    15e8:	96 07 bf 48 	add  %fp, -184, %o3
    15ec:	98 07 bf 4c 	add  %fp, -180, %o4
    15f0:	40 00 01 f5 	call  1dc4 <fcvtbuf>
    15f4:	9a 10 00 12 	mov  %l2, %o5
    15f8:	c6 07 bf 4c 	ld  [ %fp + -180 ], %g3
    15fc:	84 07 bf 60 	add  %fp, -160, %g2
    1600:	80 a0 e0 00 	cmp  %g3, 0
    1604:	02 80 00 05 	be  1618 <ee_vsprintf+0x92c>
    1608:	c2 07 bf 44 	ld  [ %fp + -188 ], %g1
    160c:	86 10 20 2d 	mov  0x2d, %g3
    1610:	84 07 bf 61 	add  %fp, -159, %g2
    1614:	c6 2f bf 60 	stb  %g3, [ %fp + -160 ]
    1618:	c6 4a 00 00 	ldsb  [ %o0 ], %g3
    161c:	80 a0 e0 00 	cmp  %g3, 0
    1620:	02 80 00 9f 	be  189c <ee_vsprintf+0xbb0>
    1624:	c8 0a 00 00 	ldub  [ %o0 ], %g4
    1628:	da 07 bf 48 	ld  [ %fp + -184 ], %o5
    162c:	86 10 00 08 	mov  %o0, %g3
    1630:	80 a3 60 00 	cmp  %o5, 0
    1634:	14 80 00 0b 	bg  1660 <ee_vsprintf+0x974>
    1638:	98 10 20 2e 	mov  0x2e, %o4
    163c:	10 80 00 12 	b  1684 <ee_vsprintf+0x998>
    1640:	86 10 20 30 	mov  0x30, %g3
    1644:	c8 28 80 00 	stb  %g4, [ %g2 ]
    1648:	86 00 e0 01 	inc  %g3
    164c:	84 00 a0 01 	inc  %g2
    1650:	de 48 c0 00 	ldsb  [ %g3 ], %o7
    1654:	80 a3 e0 00 	cmp  %o7, 0
    1658:	02 80 00 1f 	be  16d4 <ee_vsprintf+0x9e8>
    165c:	c8 08 c0 00 	ldub  [ %g3 ], %g4
    1660:	9e 20 c0 08 	sub  %g3, %o0, %o7
    1664:	80 a3 40 0f 	cmp  %o5, %o7
    1668:	32 bf ff f8 	bne,a   1648 <ee_vsprintf+0x95c>
    166c:	c8 28 80 00 	stb  %g4, [ %g2 ]
    1670:	d8 28 80 00 	stb  %o4, [ %g2 ]
    1674:	10 bf ff f4 	b  1644 <ee_vsprintf+0x958>
    1678:	84 00 a0 01 	inc  %g2
    167c:	10 bf ff d4 	b  15cc <ee_vsprintf+0x8e0>
    1680:	82 10 20 2b 	mov  0x2b, %g1
    1684:	c6 28 80 00 	stb  %g3, [ %g2 ]
    1688:	86 10 20 2e 	mov  0x2e, %g3
    168c:	c6 28 a0 01 	stb  %g3, [ %g2 + 1 ]
    1690:	9e a0 00 0d 	subcc  %g0, %o5, %o7
    1694:	02 80 00 09 	be  16b8 <ee_vsprintf+0x9cc>
    1698:	84 00 a0 02 	add  %g2, 2, %g2
    169c:	9e 00 80 0f 	add  %g2, %o7, %o7
    16a0:	86 10 20 30 	mov  0x30, %g3
    16a4:	c6 28 80 00 	stb  %g3, [ %g2 ]
    16a8:	84 00 a0 01 	inc  %g2
    16ac:	80 a0 80 0f 	cmp  %g2, %o7
    16b0:	32 bf ff fe 	bne,a   16a8 <ee_vsprintf+0x9bc>
    16b4:	c6 28 80 00 	stb  %g3, [ %g2 ]
    16b8:	c8 28 80 00 	stb  %g4, [ %g2 ]
    16bc:	90 02 20 01 	inc  %o0
    16c0:	84 00 a0 01 	inc  %g2
    16c4:	c6 4a 00 00 	ldsb  [ %o0 ], %g3
    16c8:	80 a0 e0 00 	cmp  %g3, 0
    16cc:	12 bf ff fb 	bne  16b8 <ee_vsprintf+0x9cc>
    16d0:	c8 0a 00 00 	ldub  [ %o0 ], %g4
    16d4:	80 8d 60 20 	btst  0x20, %l5
    16d8:	02 80 00 05 	be  16ec <ee_vsprintf+0xa00>
    16dc:	c0 28 80 00 	clrb  [ %g2 ]
    16e0:	80 a5 a0 00 	cmp  %l6, 0
    16e4:	02 80 00 4c 	be  1814 <ee_vsprintf+0xb28>
    16e8:	c6 4f bf 60 	ldsb  [ %fp + -160 ], %g3
    16ec:	c4 0f bf 60 	ldub  [ %fp + -160 ], %g2
    16f0:	87 28 a0 18 	sll  %g2, 0x18, %g3
    16f4:	80 a0 e0 00 	cmp  %g3, 0
    16f8:	22 80 00 0d 	be,a   172c <ee_vsprintf+0xa40>
    16fc:	88 10 20 00 	clr  %g4
    1700:	86 07 bf 60 	add  %fp, -160, %g3
    1704:	10 80 00 04 	b  1714 <ee_vsprintf+0xa28>
    1708:	88 10 00 03 	mov  %g3, %g4
    170c:	22 80 00 08 	be,a   172c <ee_vsprintf+0xa40>
    1710:	88 25 00 03 	sub  %l4, %g3, %g4
    1714:	88 01 20 01 	inc  %g4
    1718:	de 49 00 00 	ldsb  [ %g4 ], %o7
    171c:	80 a3 e0 00 	cmp  %o7, 0
    1720:	12 bf ff fb 	bne  170c <ee_vsprintf+0xa20>
    1724:	80 a1 00 14 	cmp  %g4, %l4
    1728:	88 21 00 03 	sub  %g4, %g3, %g4
    172c:	80 8d 60 11 	btst  0x11, %l5
    1730:	12 80 00 0d 	bne  1764 <ee_vsprintf+0xa78>
    1734:	b8 27 00 04 	sub  %i4, %g4, %i4
    1738:	80 a7 20 00 	cmp  %i4, 0
    173c:	04 80 00 88 	ble  195c <ee_vsprintf+0xc70>
    1740:	86 07 3f ff 	add  %i4, -1, %g3
    1744:	b8 07 40 1c 	add  %i5, %i4, %i4
    1748:	86 10 20 20 	mov  0x20, %g3
    174c:	c6 2f 40 00 	stb  %g3, [ %i5 ]
    1750:	ba 07 60 01 	inc  %i5
    1754:	80 a7 40 1c 	cmp  %i5, %i4
    1758:	32 bf ff fe 	bne,a   1750 <ee_vsprintf+0xa64>
    175c:	c6 2f 40 00 	stb  %g3, [ %i5 ]
    1760:	b8 10 3f ff 	mov  -1, %i4
    1764:	80 88 60 ff 	btst  0xff, %g1
    1768:	02 80 00 04 	be  1778 <ee_vsprintf+0xa8c>
    176c:	80 8d 60 10 	btst  0x10, %l5
    1770:	c2 2f 40 00 	stb  %g1, [ %i5 ]
    1774:	ba 07 60 01 	inc  %i5
    1778:	12 80 00 0d 	bne  17ac <ee_vsprintf+0xac0>
    177c:	80 a1 20 00 	cmp  %g4, 0
    1780:	80 a7 20 00 	cmp  %i4, 0
    1784:	04 80 00 74 	ble  1954 <ee_vsprintf+0xc68>
    1788:	82 07 3f ff 	add  %i4, -1, %g1
    178c:	b8 07 40 1c 	add  %i5, %i4, %i4
    1790:	ee 2f 40 00 	stb  %l7, [ %i5 ]
    1794:	ba 07 60 01 	inc  %i5
    1798:	80 a7 40 1c 	cmp  %i5, %i4
    179c:	32 bf ff fe 	bne,a   1794 <ee_vsprintf+0xaa8>
    17a0:	ee 2f 40 00 	stb  %l7, [ %i5 ]
    17a4:	b8 10 3f ff 	mov  -1, %i4
    17a8:	80 a1 20 00 	cmp  %g4, 0
    17ac:	04 80 00 0b 	ble  17d8 <ee_vsprintf+0xaec>
    17b0:	82 10 20 00 	clr  %g1
    17b4:	10 80 00 04 	b  17c4 <ee_vsprintf+0xad8>
    17b8:	c4 2f 40 01 	stb  %g2, [ %i5 + %g1 ]
    17bc:	c4 08 c0 01 	ldub  [ %g3 + %g1 ], %g2
    17c0:	c4 2f 40 01 	stb  %g2, [ %i5 + %g1 ]
    17c4:	82 00 60 01 	inc  %g1
    17c8:	80 a0 40 04 	cmp  %g1, %g4
    17cc:	12 bf ff fc 	bne  17bc <ee_vsprintf+0xad0>
    17d0:	86 07 bf 60 	add  %fp, -160, %g3
    17d4:	ba 07 40 01 	add  %i5, %g1, %i5
    17d8:	80 a7 20 00 	cmp  %i4, 0
    17dc:	04 bf fe 43 	ble  10e8 <ee_vsprintf+0x3fc>
    17e0:	82 10 20 20 	mov  0x20, %g1
    17e4:	84 07 40 1c 	add  %i5, %i4, %g2
    17e8:	c2 2f 40 00 	stb  %g1, [ %i5 ]
    17ec:	ba 07 60 01 	inc  %i5
    17f0:	80 a7 40 02 	cmp  %i5, %g2
    17f4:	32 bf ff fe 	bne,a   17ec <ee_vsprintf+0xb00>
    17f8:	c2 2f 40 00 	stb  %g1, [ %i5 ]
    17fc:	10 bf fd 4b 	b  d28 <ee_vsprintf+0x3c>
    1800:	c4 0e 60 01 	ldub  [ %i1 + 1 ], %g2
    1804:	80 8d 60 20 	btst  0x20, %l5
    1808:	02 bf ff b9 	be  16ec <ee_vsprintf+0xa00>
    180c:	c0 28 a0 01 	clrb  [ %g2 + 1 ]
    1810:	c6 4f bf 60 	ldsb  [ %fp + -160 ], %g3
    1814:	80 a0 e0 00 	cmp  %g3, 0
    1818:	02 80 00 57 	be  1974 <ee_vsprintf+0xc88>
    181c:	c4 0f bf 60 	ldub  [ %fp + -160 ], %g2
    1820:	80 a0 e0 2e 	cmp  %g3, 0x2e
    1824:	02 bf ff b8 	be  1704 <ee_vsprintf+0xa18>
    1828:	86 07 bf 60 	add  %fp, -160, %g3
    182c:	86 08 bf df 	and  %g2, -33, %g3
    1830:	87 28 e0 18 	sll  %g3, 0x18, %g3
    1834:	87 38 e0 18 	sra  %g3, 0x18, %g3
    1838:	80 a0 e0 45 	cmp  %g3, 0x45
    183c:	02 80 00 2f 	be  18f8 <ee_vsprintf+0xc0c>
    1840:	86 07 bf 60 	add  %fp, -160, %g3
    1844:	10 80 00 0a 	b  186c <ee_vsprintf+0xb80>
    1848:	88 10 00 03 	mov  %g3, %g4
    184c:	80 a3 e0 2e 	cmp  %o7, 0x2e
    1850:	02 bf ff ad 	be  1704 <ee_vsprintf+0xa18>
    1854:	9e 0b 7f df 	and  %o5, -33, %o7
    1858:	9f 2b e0 18 	sll  %o7, 0x18, %o7
    185c:	9f 3b e0 18 	sra  %o7, 0x18, %o7
    1860:	80 a3 e0 45 	cmp  %o7, 0x45
    1864:	02 80 00 27 	be  1900 <ee_vsprintf+0xc14>
    1868:	9e 01 21 00 	add  %g4, 0x100, %o7
    186c:	88 01 20 01 	inc  %g4
    1870:	de 49 00 00 	ldsb  [ %g4 ], %o7
    1874:	80 a3 e0 00 	cmp  %o7, 0
    1878:	12 bf ff f5 	bne  184c <ee_vsprintf+0xb60>
    187c:	da 09 00 00 	ldub  [ %g4 ], %o5
    1880:	c0 29 20 01 	clrb  [ %g4 + 1 ]
    1884:	84 10 20 2e 	mov  0x2e, %g2
    1888:	10 bf ff 99 	b  16ec <ee_vsprintf+0xa00>
    188c:	c4 29 00 00 	stb  %g2, [ %g4 ]
    1890:	09 00 00 38 	sethi  %hi(0xe000), %g4
    1894:	10 bf fe 5b 	b  1200 <ee_vsprintf+0x514>
    1898:	88 11 21 80 	or  %g4, 0x180, %g4	! e180 <__clz_tab+0x180>
    189c:	86 10 20 30 	mov  0x30, %g3
    18a0:	80 a5 a0 00 	cmp  %l6, 0
    18a4:	02 bf ff d8 	be  1804 <ee_vsprintf+0xb18>
    18a8:	c6 28 80 00 	stb  %g3, [ %g2 ]
    18ac:	88 10 20 2e 	mov  0x2e, %g4
    18b0:	86 00 a0 02 	add  %g2, 2, %g3
    18b4:	c8 28 a0 01 	stb  %g4, [ %g2 + 1 ]
    18b8:	84 10 20 00 	clr  %g2
    18bc:	88 10 20 30 	mov  0x30, %g4
    18c0:	c8 28 c0 02 	stb  %g4, [ %g3 + %g2 ]
    18c4:	84 00 a0 01 	inc  %g2
    18c8:	80 a5 80 02 	cmp  %l6, %g2
    18cc:	34 bf ff fe 	bg,a   18c4 <ee_vsprintf+0xbd8>
    18d0:	c8 28 c0 02 	stb  %g4, [ %g3 + %g2 ]
    18d4:	80 a5 a0 00 	cmp  %l6, 0
    18d8:	24 80 00 02 	ble,a   18e0 <ee_vsprintf+0xbf4>
    18dc:	ac 10 20 01 	mov  1, %l6
    18e0:	10 bf ff 83 	b  16ec <ee_vsprintf+0xa00>
    18e4:	c0 28 c0 16 	clrb  [ %g3 + %l6 ]
    18e8:	10 bf fe 56 	b  1240 <ee_vsprintf+0x554>
    18ec:	86 10 20 00 	clr  %g3
    18f0:	10 bf fd ec 	b  10a0 <ee_vsprintf+0x3b4>
    18f4:	b8 10 00 01 	mov  %g1, %i4
    18f8:	88 07 bf 60 	add  %fp, -160, %g4
    18fc:	9e 01 21 00 	add  %g4, 0x100, %o7
    1900:	10 80 00 04 	b  1910 <ee_vsprintf+0xc24>
    1904:	84 10 00 04 	mov  %g4, %g2
    1908:	22 80 00 08 	be,a   1928 <ee_vsprintf+0xc3c>
    190c:	84 20 80 04 	sub  %g2, %g4, %g2
    1910:	84 00 a0 01 	inc  %g2
    1914:	c6 48 80 00 	ldsb  [ %g2 ], %g3
    1918:	80 a0 e0 00 	cmp  %g3, 0
    191c:	12 bf ff fb 	bne  1908 <ee_vsprintf+0xc1c>
    1920:	80 a0 80 0f 	cmp  %g2, %o7
    1924:	84 20 80 04 	sub  %g2, %g4, %g2
    1928:	80 a0 a0 00 	cmp  %g2, 0
    192c:	24 bf ff d7 	ble,a   1888 <ee_vsprintf+0xb9c>
    1930:	84 10 20 2e 	mov  0x2e, %g2
    1934:	de 09 00 02 	ldub  [ %g4 + %g2 ], %o7
    1938:	86 01 00 02 	add  %g4, %g2, %g3
    193c:	84 80 bf ff 	addcc  %g2, -1, %g2
    1940:	12 bf ff fd 	bne  1934 <ee_vsprintf+0xc48>
    1944:	de 28 e0 01 	stb  %o7, [ %g3 + 1 ]
    1948:	84 10 20 2e 	mov  0x2e, %g2
    194c:	10 bf ff 68 	b  16ec <ee_vsprintf+0xa00>
    1950:	c4 29 00 00 	stb  %g2, [ %g4 ]
    1954:	10 bf ff 95 	b  17a8 <ee_vsprintf+0xabc>
    1958:	b8 10 00 01 	mov  %g1, %i4
    195c:	10 bf ff 82 	b  1764 <ee_vsprintf+0xa78>
    1960:	b8 10 00 03 	mov  %g3, %i4
    1964:	10 bf fe 46 	b  127c <ee_vsprintf+0x590>
    1968:	b8 10 00 01 	mov  %g1, %i4
    196c:	10 bf fe f4 	b  153c <ee_vsprintf+0x850>
    1970:	b8 10 00 01 	mov  %g1, %i4
    1974:	88 07 bf 60 	add  %fp, -160, %g4
    1978:	10 bf ff c3 	b  1884 <ee_vsprintf+0xb98>
    197c:	c0 29 20 01 	clrb  [ %g4 + 1 ]
    1980:	ba 10 00 03 	mov  %g3, %i5
    1984:	10 bf fc e9 	b  d28 <ee_vsprintf+0x3c>
    1988:	c4 0e 60 01 	ldub  [ %i1 + 1 ], %g2
    198c:	b2 10 00 03 	mov  %g3, %i1
    1990:	88 10 20 00 	clr  %g4
    1994:	10 bf fd 1e 	b  e0c <ee_vsprintf+0x120>
    1998:	86 10 20 6c 	mov  0x6c, %g3

0000199c <uart_send_char>:
    199c:	9d e3 bf a0 	save  %sp, -96, %sp
    19a0:	40 00 05 37 	call  2e7c <__ajit_serial_putchar_via_bypass__>
    19a4:	90 10 00 18 	mov  %i0, %o0
    19a8:	80 a2 20 00 	cmp  %o0, 0
    19ac:	02 bf ff fd 	be  19a0 <uart_send_char+0x4>
    19b0:	05 3f ff cc 	sethi  %hi(0xffff3000), %g2
    19b4:	84 10 a2 00 	or  %g2, 0x200, %g2	! ffff3200 <ajit_global_interrupt_handlers+0xfffe3f58>
    19b8:	c2 80 84 00 	lda  [ %g2 ] #ASI_SCRATCHPAD, %g1
    19bc:	82 08 60 09 	and  %g1, 9, %g1
    19c0:	80 a0 60 09 	cmp  %g1, 9
    19c4:	02 bf ff fd 	be  19b8 <uart_send_char+0x1c>
    19c8:	01 00 00 00 	nop 
    19cc:	81 c7 e0 08 	ret 
    19d0:	81 e8 00 00 	restore 

000019d4 <ee_printf>:
    19d4:	9d e3 bb 98 	save  %sp, -1128, %sp
    19d8:	94 07 a0 48 	add  %fp, 0x48, %o2
    19dc:	fa 27 a0 58 	st  %i5, [ %fp + 0x58 ]
    19e0:	92 10 00 18 	mov  %i0, %o1
    19e4:	f2 27 a0 48 	st  %i1, [ %fp + 0x48 ]
    19e8:	f4 27 a0 4c 	st  %i2, [ %fp + 0x4c ]
    19ec:	f6 27 a0 50 	st  %i3, [ %fp + 0x50 ]
    19f0:	f8 27 a0 54 	st  %i4, [ %fp + 0x54 ]
    19f4:	d4 27 bb fc 	st  %o2, [ %fp + -1028 ]
    19f8:	ba 07 bc 00 	add  %fp, -1024, %i5
    19fc:	7f ff fc bc 	call  cec <ee_vsprintf>
    1a00:	90 10 00 1d 	mov  %i5, %o0
    1a04:	d0 0f bc 00 	ldub  [ %fp + -1024 ], %o0
    1a08:	91 2a 20 18 	sll  %o0, 0x18, %o0
    1a0c:	80 a2 20 00 	cmp  %o0, 0
    1a10:	02 80 00 0a 	be  1a38 <ee_printf+0x64>
    1a14:	b0 10 20 00 	clr  %i0
    1a18:	7f ff ff e1 	call  199c <uart_send_char>
    1a1c:	91 3a 20 18 	sra  %o0, 0x18, %o0
    1a20:	b0 06 20 01 	inc  %i0
    1a24:	d0 0f 40 18 	ldub  [ %i5 + %i0 ], %o0
    1a28:	91 2a 20 18 	sll  %o0, 0x18, %o0
    1a2c:	80 a2 20 00 	cmp  %o0, 0
    1a30:	12 bf ff fa 	bne  1a18 <ee_printf+0x44>
    1a34:	01 00 00 00 	nop 
    1a38:	81 c7 e0 08 	ret 
    1a3c:	81 e8 00 00 	restore 

00001a40 <cvt>:
    1a40:	9d e3 bf 90 	save  %sp, -112, %sp
    1a44:	f0 3f bf f8 	std  %i0, [ %fp + -8 ]
    1a48:	de 07 a0 5c 	ld  [ %fp + 0x5c ], %o7
    1a4c:	d5 1f bf f8 	ldd  [ %fp + -8 ], %f10
    1a50:	80 a6 a0 00 	cmp  %i2, 0
    1a54:	06 80 00 05 	bl  1a68 <cvt+0x28>
    1a58:	84 10 20 00 	clr  %g2
    1a5c:	80 a6 a0 4e 	cmp  %i2, 0x4e
    1a60:	04 80 00 a6 	ble  1cf8 <cvt+0x2b8>
    1a64:	84 10 20 4e 	mov  0x4e, %g2
    1a68:	03 00 00 38 	sethi  %hi(0xe000), %g1
    1a6c:	d1 18 61 88 	ldd  [ %g1 + 0x188 ], %f8	! e188 <__clz_tab+0x188>
    1a70:	81 aa 8a c8 	fcmped  %f10, %f8
    1a74:	01 00 00 00 	nop 
    1a78:	09 80 00 9a 	fbl  1ce0 <cvt+0x2a0>
    1a7c:	86 10 20 01 	mov  1, %g3	! 1 <_start+0x1>
    1a80:	c0 27 00 00 	clr  [ %i4 ]
    1a84:	91 a0 1a 4a 	fdtoi  %f10, %f8
    1a88:	d9 18 61 88 	ldd  [ %g1 + 0x188 ], %f12
    1a8c:	91 a0 19 08 	fitod  %f8, %f8
    1a90:	81 aa 0a 4c 	fcmpd  %f8, %f12
    1a94:	01 00 00 00 	nop 
    1a98:	13 80 00 66 	fbe  1c30 <cvt+0x1f0>
    1a9c:	95 a2 88 c8 	fsubd  %f10, %f8, %f10
    1aa0:	03 00 00 38 	sethi  %hi(0xe000), %g1
    1aa4:	9a 07 60 50 	add  %i5, 0x50, %o5
    1aa8:	35 00 00 38 	sethi  %hi(0xe000), %i2
    1aac:	e5 18 61 98 	ldd  [ %g1 + 0x198 ], %f18
    1ab0:	b8 10 00 0d 	mov  %o5, %i4
    1ab4:	03 00 00 38 	sethi  %hi(0xe000), %g1
    1ab8:	86 10 20 00 	clr  %g3
    1abc:	dd 1e a1 90 	ldd  [ %i2 + 0x190 ], %f14
    1ac0:	e1 18 61 88 	ldd  [ %g1 + 0x188 ], %f16
    1ac4:	99 a2 09 ce 	fdivd  %f8, %f14, %f12
    1ac8:	91 a0 1a 4c 	fdtoi  %f12, %f8
    1acc:	91 a0 19 08 	fitod  %f8, %f8
    1ad0:	99 a3 08 c8 	fsubd  %f12, %f8, %f12
    1ad4:	99 a3 08 52 	faddd  %f12, %f18, %f12
    1ad8:	99 a3 09 4e 	fmuld  %f12, %f14, %f12
    1adc:	99 a0 1a 4c 	fdtoi  %f12, %f12
    1ae0:	d9 27 bf f4 	st  %f12, [ %fp + -12 ]
    1ae4:	b8 07 3f ff 	add  %i4, -1, %i4
    1ae8:	c2 07 bf f4 	ld  [ %fp + -12 ], %g1
    1aec:	88 00 60 30 	add  %g1, 0x30, %g4
    1af0:	c8 2f 00 00 	stb  %g4, [ %i4 ]
    1af4:	b2 10 00 04 	mov  %g4, %i1
    1af8:	81 aa 0a 50 	fcmpd  %f8, %f16
    1afc:	01 00 00 00 	nop 
    1b00:	03 bf ff f1 	fbne  1ac4 <cvt+0x84>
    1b04:	86 00 e0 01 	inc  %g3
    1b08:	80 a3 40 1c 	cmp  %o5, %i4
    1b0c:	08 80 00 0e 	bleu  1b44 <cvt+0x104>
    1b10:	82 10 00 1d 	mov  %i5, %g1
    1b14:	b0 07 60 4f 	add  %i5, 0x4f, %i0
    1b18:	88 10 00 1c 	mov  %i4, %g4
    1b1c:	10 80 00 04 	b  1b2c <cvt+0xec>
    1b20:	b4 10 00 1d 	mov  %i5, %i2
    1b24:	f2 09 20 01 	ldub  [ %g4 + 1 ], %i1
    1b28:	88 01 20 01 	inc  %g4
    1b2c:	f2 2e 80 00 	stb  %i1, [ %i2 ]
    1b30:	80 a1 00 18 	cmp  %g4, %i0
    1b34:	12 bf ff fc 	bne  1b24 <cvt+0xe4>
    1b38:	b4 06 a0 01 	inc  %i2
    1b3c:	82 23 40 1c 	sub  %o5, %i4, %g1
    1b40:	82 07 40 01 	add  %i5, %g1, %g1
    1b44:	80 a3 e0 00 	cmp  %o7, 0
    1b48:	12 80 00 03 	bne  1b54 <cvt+0x114>
    1b4c:	84 07 40 02 	add  %i5, %g2, %g2
    1b50:	84 00 80 03 	add  %g2, %g3, %g2
    1b54:	80 a0 80 1d 	cmp  %g2, %i5
    1b58:	0a 80 00 5f 	bcs  1cd4 <cvt+0x294>
    1b5c:	c6 26 c0 00 	st  %g3, [ %i3 ]
    1b60:	80 a0 40 02 	cmp  %g1, %g2
    1b64:	18 80 00 17 	bgu  1bc0 <cvt+0x180>
    1b68:	88 07 60 50 	add  %i5, 0x50, %g4
    1b6c:	35 00 00 38 	sethi  %hi(0xe000), %i2
    1b70:	80 a0 40 04 	cmp  %g1, %g4
    1b74:	1a 80 00 13 	bcc  1bc0 <cvt+0x180>
    1b78:	b4 16 a1 90 	or  %i2, 0x190, %i2
    1b7c:	10 80 00 05 	b  1b90 <cvt+0x150>
    1b80:	d9 1e 80 00 	ldd  [ %i2 ], %f12
    1b84:	80 a0 40 04 	cmp  %g1, %g4
    1b88:	02 80 00 0f 	be  1bc4 <cvt+0x184>
    1b8c:	80 a0 80 04 	cmp  %g2, %g4
    1b90:	95 a2 89 4c 	fmuld  %f10, %f12, %f10
    1b94:	91 a0 1a 4a 	fdtoi  %f10, %f8
    1b98:	91 a0 19 08 	fitod  %f8, %f8
    1b9c:	9d a0 1a 48 	fdtoi  %f8, %f14
    1ba0:	dd 27 bf f4 	st  %f14, [ %fp + -12 ]
    1ba4:	c6 07 bf f4 	ld  [ %fp + -12 ], %g3
    1ba8:	86 00 e0 30 	add  %g3, 0x30, %g3
    1bac:	c6 28 40 00 	stb  %g3, [ %g1 ]
    1bb0:	82 00 60 01 	inc  %g1
    1bb4:	80 a0 80 01 	cmp  %g2, %g1
    1bb8:	1a bf ff f3 	bcc  1b84 <cvt+0x144>
    1bbc:	95 a2 88 c8 	fsubd  %f10, %f8, %f10
    1bc0:	80 a0 80 04 	cmp  %g2, %g4
    1bc4:	1a 80 00 4a 	bcc  1cec <cvt+0x2ac>
    1bc8:	88 10 00 02 	mov  %g2, %g4
    1bcc:	f8 08 80 00 	ldub  [ %g2 ], %i4
    1bd0:	b8 07 20 05 	add  %i4, 5, %i4
    1bd4:	82 10 00 1c 	mov  %i4, %g1
    1bd8:	f8 28 80 00 	stb  %i4, [ %g2 ]
    1bdc:	86 10 20 30 	mov  0x30, %g3
    1be0:	b8 10 20 31 	mov  0x31, %i4
    1be4:	83 28 60 18 	sll  %g1, 0x18, %g1
    1be8:	83 38 60 18 	sra  %g1, 0x18, %g1
    1bec:	80 a0 60 39 	cmp  %g1, 0x39
    1bf0:	24 80 00 0e 	ble,a   1c28 <cvt+0x1e8>
    1bf4:	c0 29 00 00 	clrb  [ %g4 ]
    1bf8:	80 a0 80 1d 	cmp  %g2, %i5
    1bfc:	08 80 00 2a 	bleu  1ca4 <cvt+0x264>
    1c00:	c6 28 80 00 	stb  %g3, [ %g2 ]
    1c04:	c2 08 bf ff 	ldub  [ %g2 + -1 ], %g1
    1c08:	82 00 60 01 	inc  %g1
    1c0c:	c2 28 bf ff 	stb  %g1, [ %g2 + -1 ]
    1c10:	83 28 60 18 	sll  %g1, 0x18, %g1
    1c14:	83 38 60 18 	sra  %g1, 0x18, %g1
    1c18:	80 a0 60 39 	cmp  %g1, 0x39
    1c1c:	14 bf ff f7 	bg  1bf8 <cvt+0x1b8>
    1c20:	84 00 bf ff 	add  %g2, -1, %g2
    1c24:	c0 29 00 00 	clrb  [ %g4 ]
    1c28:	81 c7 e0 08 	ret 
    1c2c:	91 e8 00 1d 	restore  %g0, %i5, %o0
    1c30:	81 aa 8a cc 	fcmped  %f10, %f12
    1c34:	01 00 00 00 	nop 
    1c38:	1d 80 00 32 	fbule  1d00 <cvt+0x2c0>
    1c3c:	01 00 00 00 	nop 
    1c40:	35 00 00 38 	sethi  %hi(0xe000), %i2
    1c44:	03 00 00 38 	sethi  %hi(0xe000), %g1
    1c48:	d9 1e a1 90 	ldd  [ %i2 + 0x190 ], %f12
    1c4c:	d1 18 61 a0 	ldd  [ %g1 + 0x1a0 ], %f8
    1c50:	99 a2 89 4c 	fmuld  %f10, %f12, %f12
    1c54:	86 10 20 00 	clr  %g3
    1c58:	e1 1e a1 90 	ldd  [ %i2 + 0x190 ], %f16
    1c5c:	9d a0 00 28 	fmovs  %f8, %f14
    1c60:	81 ab 0a c8 	fcmped  %f12, %f8
    1c64:	01 00 00 00 	nop 
    1c68:	09 80 00 06 	fbl  1c80 <cvt+0x240>
    1c6c:	9f a0 00 29 	fmovs  %f9, %f15
    1c70:	10 bf ff b5 	b  1b44 <cvt+0x104>
    1c74:	82 10 00 1d 	mov  %i5, %g1
    1c78:	99 a0 00 28 	fmovs  %f8, %f12
    1c7c:	9b a0 00 29 	fmovs  %f9, %f13
    1c80:	91 a3 09 50 	fmuld  %f12, %f16, %f8
    1c84:	81 aa 0a ce 	fcmped  %f8, %f14
    1c88:	01 00 00 00 	nop 
    1c8c:	09 bf ff fb 	fbl  1c78 <cvt+0x238>
    1c90:	86 00 ff ff 	add  %g3, -1, %g3
    1c94:	82 10 00 1d 	mov  %i5, %g1
    1c98:	95 a0 00 2c 	fmovs  %f12, %f10
    1c9c:	10 bf ff aa 	b  1b44 <cvt+0x104>
    1ca0:	97 a0 00 2d 	fmovs  %f13, %f11
    1ca4:	f8 28 80 00 	stb  %i4, [ %g2 ]
    1ca8:	c2 06 c0 00 	ld  [ %i3 ], %g1
    1cac:	82 00 60 01 	inc  %g1
    1cb0:	80 a3 e0 00 	cmp  %o7, 0
    1cb4:	12 80 00 06 	bne  1ccc <cvt+0x28c>
    1cb8:	c2 26 c0 00 	st  %g1, [ %i3 ]
    1cbc:	80 a1 00 1d 	cmp  %g4, %i5
    1cc0:	38 80 00 02 	bgu,a   1cc8 <cvt+0x288>
    1cc4:	c6 29 00 00 	stb  %g3, [ %g4 ]
    1cc8:	88 01 20 01 	inc  %g4
    1ccc:	10 bf ff c6 	b  1be4 <cvt+0x1a4>
    1cd0:	c2 08 80 00 	ldub  [ %g2 ], %g1
    1cd4:	c0 2f 40 00 	clrb  [ %i5 ]
    1cd8:	81 c7 e0 08 	ret 
    1cdc:	91 e8 00 1d 	restore  %g0, %i5, %o0
    1ce0:	95 a0 00 aa 	fnegs  %f10, %f10
    1ce4:	10 bf ff 68 	b  1a84 <cvt+0x44>
    1ce8:	c6 27 00 00 	st  %g3, [ %i4 ]
    1cec:	c0 2f 60 4f 	clrb  [ %i5 + 0x4f ]
    1cf0:	81 c7 e0 08 	ret 
    1cf4:	91 e8 00 1d 	restore  %g0, %i5, %o0
    1cf8:	10 bf ff 5c 	b  1a68 <cvt+0x28>
    1cfc:	84 10 00 1a 	mov  %i2, %g2
    1d00:	82 10 00 1d 	mov  %i5, %g1
    1d04:	10 bf ff 90 	b  1b44 <cvt+0x104>
    1d08:	86 10 20 00 	clr  %g3

00001d0c <__modf>:
    1d0c:	9c 03 bf b0 	add  %sp, -80, %sp
    1d10:	d0 3b a0 48 	std  %o0, [ %sp + 0x48 ]
    1d14:	c1 1b a0 48 	ldd  [ %sp + 0x48 ], %f0
    1d18:	9c 23 bf b0 	sub  %sp, -80, %sp
    1d1c:	91 a0 1a 40 	fdtoi  %f0, %f8
    1d20:	91 a0 19 08 	fitod  %f8, %f8
    1d24:	81 a0 08 c8 	fsubd  %f0, %f8, %f0
    1d28:	81 c3 e0 08 	retl 
    1d2c:	d1 3a 80 00 	std  %f8, [ %o2 ]

00001d30 <ecvt>:
    1d30:	9d e3 bf 98 	save  %sp, -104, %sp
    1d34:	82 10 20 01 	mov  1, %g1
    1d38:	90 10 00 18 	mov  %i0, %o0
    1d3c:	92 10 00 19 	mov  %i1, %o1
    1d40:	c2 23 a0 5c 	st  %g1, [ %sp + 0x5c ]
    1d44:	94 10 00 1a 	mov  %i2, %o2
    1d48:	96 10 00 1b 	mov  %i3, %o3
    1d4c:	98 10 00 1c 	mov  %i4, %o4
    1d50:	1b 00 00 3c 	sethi  %hi(0xf000), %o5
    1d54:	7f ff ff 3b 	call  1a40 <cvt>
    1d58:	9a 13 60 08 	or  %o5, 8, %o5	! f008 <CVTBUF>
    1d5c:	81 c7 e0 08 	ret 
    1d60:	91 e8 00 08 	restore  %g0, %o0, %o0

00001d64 <ecvtbuf>:
    1d64:	9d e3 bf 98 	save  %sp, -104, %sp
    1d68:	82 10 20 01 	mov  1, %g1
    1d6c:	90 10 00 18 	mov  %i0, %o0
    1d70:	92 10 00 19 	mov  %i1, %o1
    1d74:	c2 23 a0 5c 	st  %g1, [ %sp + 0x5c ]
    1d78:	94 10 00 1a 	mov  %i2, %o2
    1d7c:	96 10 00 1b 	mov  %i3, %o3
    1d80:	98 10 00 1c 	mov  %i4, %o4
    1d84:	7f ff ff 2f 	call  1a40 <cvt>
    1d88:	9a 10 00 1d 	mov  %i5, %o5
    1d8c:	81 c7 e0 08 	ret 
    1d90:	91 e8 00 08 	restore  %g0, %o0, %o0

00001d94 <fcvt>:
    1d94:	9d e3 bf 98 	save  %sp, -104, %sp
    1d98:	1b 00 00 3c 	sethi  %hi(0xf000), %o5
    1d9c:	c0 23 a0 5c 	clr  [ %sp + 0x5c ]
    1da0:	90 10 00 18 	mov  %i0, %o0
    1da4:	92 10 00 19 	mov  %i1, %o1
    1da8:	94 10 00 1a 	mov  %i2, %o2
    1dac:	96 10 00 1b 	mov  %i3, %o3
    1db0:	98 10 00 1c 	mov  %i4, %o4
    1db4:	7f ff ff 23 	call  1a40 <cvt>
    1db8:	9a 13 60 08 	or  %o5, 8, %o5
    1dbc:	81 c7 e0 08 	ret 
    1dc0:	91 e8 00 08 	restore  %g0, %o0, %o0

00001dc4 <fcvtbuf>:
    1dc4:	9d e3 bf 98 	save  %sp, -104, %sp
    1dc8:	c0 23 a0 5c 	clr  [ %sp + 0x5c ]
    1dcc:	90 10 00 18 	mov  %i0, %o0
    1dd0:	92 10 00 19 	mov  %i1, %o1
    1dd4:	94 10 00 1a 	mov  %i2, %o2
    1dd8:	96 10 00 1b 	mov  %i3, %o3
    1ddc:	98 10 00 1c 	mov  %i4, %o4
    1de0:	7f ff ff 18 	call  1a40 <cvt>
    1de4:	9a 10 00 1d 	mov  %i5, %o5
    1de8:	81 c7 e0 08 	ret 
    1dec:	91 e8 00 08 	restore  %g0, %o0, %o0

00001df0 <ajit_initialize_interrupt_handlers_to_null>:
    1df0:	03 00 00 3c 	sethi  %hi(0xf000), %g1
    1df4:	82 10 62 a8 	or  %g1, 0x2a8, %g1	! f2a8 <ajit_global_interrupt_handlers>
    1df8:	84 00 60 40 	add  %g1, 0x40, %g2
    1dfc:	c0 20 40 00 	clr  [ %g1 ]
    1e00:	82 00 60 04 	add  %g1, 4, %g1
    1e04:	80 a0 40 02 	cmp  %g1, %g2
    1e08:	32 bf ff fe 	bne,a   1e00 <ajit_initialize_interrupt_handlers_to_null+0x10>
    1e0c:	c0 20 40 00 	clr  [ %g1 ]
    1e10:	81 c3 e0 08 	retl 
    1e14:	01 00 00 00 	nop 

00001e18 <ajit_set_interrupt_handler>:
    1e18:	80 a2 20 0f 	cmp  %o0, 0xf
    1e1c:	18 80 00 05 	bgu  1e30 <ajit_set_interrupt_handler+0x18>
    1e20:	91 2a 20 02 	sll  %o0, 2, %o0
    1e24:	03 00 00 3c 	sethi  %hi(0xf000), %g1
    1e28:	82 10 62 a8 	or  %g1, 0x2a8, %g1	! f2a8 <ajit_global_interrupt_handlers>
    1e2c:	d2 20 40 08 	st  %o1, [ %g1 + %o0 ]
    1e30:	81 c3 e0 08 	retl 
    1e34:	01 00 00 00 	nop 

00001e38 <readInterruptControlRegister>:
    1e38:	90 02 00 08 	add  %o0, %o0, %o0
    1e3c:	03 3f ff cc 	sethi  %hi(0xffff3000), %g1
    1e40:	92 02 00 09 	add  %o0, %o1, %o1
    1e44:	91 2a 60 02 	sll  %o1, 2, %o0
    1e48:	90 02 00 01 	add  %o0, %g1, %o0
    1e4c:	82 13 c0 00 	mov  %o7, %g1
    1e50:	40 00 02 a6 	call  28e8 <__ajit_load_word_mmu_bypass__>
    1e54:	9e 10 40 00 	mov  %g1, %o7

00001e58 <writeInterruptControlRegister>:
    1e58:	90 02 00 08 	add  %o0, %o0, %o0
    1e5c:	03 3f ff cc 	sethi  %hi(0xffff3000), %g1
    1e60:	92 02 00 09 	add  %o0, %o1, %o1
    1e64:	90 10 00 0a 	mov  %o2, %o0
    1e68:	93 2a 60 02 	sll  %o1, 2, %o1
    1e6c:	92 02 40 01 	add  %o1, %g1, %o1
    1e70:	82 13 c0 00 	mov  %o7, %g1
    1e74:	40 00 02 25 	call  2708 <__ajit_store_word_mmu_bypass__>
    1e78:	9e 10 40 00 	mov  %g1, %o7

00001e7c <enableInterruptController>:
    1e7c:	9d e3 bf a0 	save  %sp, -96, %sp
    1e80:	90 10 00 18 	mov  %i0, %o0
    1e84:	7f ff ff ed 	call  1e38 <readInterruptControlRegister>
    1e88:	92 10 00 19 	mov  %i1, %o1
    1e8c:	b4 12 20 01 	or  %o0, 1, %i2
    1e90:	7f ff ff f2 	call  1e58 <writeInterruptControlRegister>
    1e94:	81 e8 00 00 	restore 

00001e98 <disableInterruptController>:
    1e98:	9d e3 bf a0 	save  %sp, -96, %sp
    1e9c:	90 10 00 18 	mov  %i0, %o0
    1ea0:	7f ff ff e6 	call  1e38 <readInterruptControlRegister>
    1ea4:	92 10 00 19 	mov  %i1, %o1
    1ea8:	b4 0a 3f fe 	and  %o0, -2, %i2
    1eac:	7f ff ff eb 	call  1e58 <writeInterruptControlRegister>
    1eb0:	81 e8 00 00 	restore 

00001eb4 <ajit_generic_interrupt_handler>:
    1eb4:	9d e3 bf 98 	save  %sp, -104, %sp
    1eb8:	90 07 bf fe 	add  %fp, -2, %o0
    1ebc:	40 00 01 d8 	call  261c <ajit_get_core_and_thread_id>
    1ec0:	92 07 bf ff 	add  %fp, -1, %o1
    1ec4:	d0 0f bf fe 	ldub  [ %fp + -2 ], %o0
    1ec8:	7f ff ff f4 	call  1e98 <disableInterruptController>
    1ecc:	d2 0f bf ff 	ldub  [ %fp + -1 ], %o1
    1ed0:	b1 36 20 04 	srl  %i0, 4, %i0
    1ed4:	b0 0e 20 ff 	and  %i0, 0xff, %i0
    1ed8:	82 06 3f ef 	add  %i0, -17, %g1
    1edc:	80 a0 60 0e 	cmp  %g1, 0xe
    1ee0:	18 80 00 11 	bgu  1f24 <ajit_generic_interrupt_handler+0x70>
    1ee4:	d0 0f bf fe 	ldub  [ %fp + -2 ], %o0
    1ee8:	b0 06 3f f0 	add  %i0, -16, %i0
    1eec:	03 00 00 3c 	sethi  %hi(0xf000), %g1
    1ef0:	b1 2e 20 02 	sll  %i0, 2, %i0
    1ef4:	82 10 62 a8 	or  %g1, 0x2a8, %g1
    1ef8:	c2 00 40 18 	ld  [ %g1 + %i0 ], %g1
    1efc:	80 a0 60 00 	cmp  %g1, 0
    1f00:	02 80 00 09 	be  1f24 <ajit_generic_interrupt_handler+0x70>
    1f04:	01 00 00 00 	nop 
    1f08:	9f c0 40 00 	call  %g1
    1f0c:	01 00 00 00 	nop 
    1f10:	d0 0f bf fe 	ldub  [ %fp + -2 ], %o0
    1f14:	7f ff ff da 	call  1e7c <enableInterruptController>
    1f18:	d2 0f bf ff 	ldub  [ %fp + -1 ], %o1
    1f1c:	81 c7 e0 08 	ret 
    1f20:	81 e8 00 00 	restore 
    1f24:	7f ff ff d6 	call  1e7c <enableInterruptController>
    1f28:	d2 0f bf ff 	ldub  [ %fp + -1 ], %o1
    1f2c:	91 d0 20 00 	ta  0
    1f30:	81 c7 e0 08 	ret 
    1f34:	81 e8 00 00 	restore 

00001f38 <enableInterrupt>:
    1f38:	9d e3 bf a0 	save  %sp, -96, %sp
    1f3c:	90 10 00 18 	mov  %i0, %o0
    1f40:	7f ff ff be 	call  1e38 <readInterruptControlRegister>
    1f44:	92 10 00 19 	mov  %i1, %o1
    1f48:	82 10 20 01 	mov  1, %g1
    1f4c:	b5 28 40 1a 	sll  %g1, %i2, %i2
    1f50:	b4 12 00 1a 	or  %o0, %i2, %i2
    1f54:	7f ff ff c1 	call  1e58 <writeInterruptControlRegister>
    1f58:	81 e8 00 00 	restore 

00001f5c <enableAllInterrupts>:
    1f5c:	9d e3 bf a0 	save  %sp, -96, %sp
    1f60:	35 00 00 3f 	sethi  %hi(0xfc00), %i2
    1f64:	90 10 00 18 	mov  %i0, %o0
    1f68:	92 10 00 19 	mov  %i1, %o1
    1f6c:	7f ff ff b3 	call  1e38 <readInterruptControlRegister>
    1f70:	b4 16 a3 fe 	or  %i2, 0x3fe, %i2
    1f74:	b4 12 00 1a 	or  %o0, %i2, %i2
    1f78:	7f ff ff b8 	call  1e58 <writeInterruptControlRegister>
    1f7c:	81 e8 00 00 	restore 

00001f80 <enableInterruptControllerAndAllInterrupts>:
    1f80:	15 00 00 3f 	sethi  %hi(0xfc00), %o2
    1f84:	94 12 a3 ff 	or  %o2, 0x3ff, %o2	! ffff <ajit_global_interrupt_handlers+0xd57>
    1f88:	82 13 c0 00 	mov  %o7, %g1
    1f8c:	7f ff ff b3 	call  1e58 <writeInterruptControlRegister>
    1f90:	9e 10 40 00 	mov  %g1, %o7

00001f94 <setInterruptMask>:
    1f94:	9d e3 bf a0 	save  %sp, -96, %sp
    1f98:	90 10 00 18 	mov  %i0, %o0
    1f9c:	7f ff ff a7 	call  1e38 <readInterruptControlRegister>
    1fa0:	92 10 00 19 	mov  %i1, %o1
    1fa4:	03 3f ff c0 	sethi  %hi(0xffff0000), %g1
    1fa8:	05 00 00 3f 	sethi  %hi(0xfc00), %g2
    1fac:	82 10 60 01 	or  %g1, 1, %g1
    1fb0:	84 10 a3 fe 	or  %g2, 0x3fe, %g2
    1fb4:	90 0a 00 01 	and  %o0, %g1, %o0
    1fb8:	b4 0e 80 02 	and  %i2, %g2, %i2
    1fbc:	b4 12 00 1a 	or  %o0, %i2, %i2
    1fc0:	7f ff ff a6 	call  1e58 <writeInterruptControlRegister>
    1fc4:	81 e8 00 00 	restore 

00001fc8 <disableInterrupt>:
    1fc8:	9d e3 bf a0 	save  %sp, -96, %sp
    1fcc:	90 10 00 18 	mov  %i0, %o0
    1fd0:	7f ff ff 9a 	call  1e38 <readInterruptControlRegister>
    1fd4:	92 10 00 19 	mov  %i1, %o1
    1fd8:	82 10 20 01 	mov  1, %g1
    1fdc:	b5 28 40 1a 	sll  %g1, %i2, %i2
    1fe0:	b4 2a 00 1a 	andn  %o0, %i2, %i2
    1fe4:	7f ff ff 9d 	call  1e58 <writeInterruptControlRegister>
    1fe8:	81 e8 00 00 	restore 

00001fec <__cortos_bpool>:
    1fec:	9d e3 bf a0 	save  %sp, -96, %sp
    1ff0:	3b 00 00 3c 	sethi  %hi(0xf000), %i5
    1ff4:	c2 07 60 5c 	ld  [ %i5 + 0x5c ], %g1	! f05c <bgetLockAddr>
    1ff8:	80 a0 60 00 	cmp  %g1, 0
    1ffc:	12 80 00 0b 	bne  2028 <__cortos_bpool+0x3c>
    2000:	11 00 00 48 	sethi  %hi(0x12000), %o0
    2004:	40 00 00 75 	call  21d8 <bpool>
    2008:	13 00 00 64 	sethi  %hi(0x19000), %o1
    200c:	03 00 00 3c 	sethi  %hi(0xf000), %g1
    2010:	82 10 60 68 	or  %g1, 0x68, %g1	! f068 <allocatedLocksNc>
    2014:	84 10 20 01 	mov  1, %g2
    2018:	c4 28 60 02 	stb  %g2, [ %g1 + 2 ]
    201c:	03 00 00 44 	sethi  %hi(0x11000), %g1
    2020:	82 10 60 02 	or  %g1, 2, %g1	! 11002 <ajit_global_interrupt_handlers+0x1d5a>
    2024:	c2 27 60 5c 	st  %g1, [ %i5 + 0x5c ]
    2028:	81 c7 e0 08 	ret 
    202c:	81 e8 00 00 	restore 

00002030 <cortos_bget>:
    2030:	9d e3 bf a0 	save  %sp, -96, %sp
    2034:	3b 00 00 3c 	sethi  %hi(0xf000), %i5
    2038:	7f ff f8 9f 	call  2b4 <cortos_lock_acquire_buzy>
    203c:	d0 07 60 5c 	ld  [ %i5 + 0x5c ], %o0	! f05c <bgetLockAddr>
    2040:	40 00 00 36 	call  2118 <bget>
    2044:	90 10 00 18 	mov  %i0, %o0
    2048:	b0 10 00 08 	mov  %o0, %i0
    204c:	7f ff f8 b4 	call  31c <cortos_lock_release>
    2050:	d0 07 60 5c 	ld  [ %i5 + 0x5c ], %o0
    2054:	81 c7 e0 08 	ret 
    2058:	81 e8 00 00 	restore 

0000205c <cortos_brel>:
    205c:	9d e3 bf a0 	save  %sp, -96, %sp
    2060:	3b 00 00 3c 	sethi  %hi(0xf000), %i5
    2064:	7f ff f8 94 	call  2b4 <cortos_lock_acquire_buzy>
    2068:	d0 07 60 5c 	ld  [ %i5 + 0x5c ], %o0	! f05c <bgetLockAddr>
    206c:	40 00 00 6c 	call  221c <brel>
    2070:	90 10 00 18 	mov  %i0, %o0
    2074:	f0 07 60 5c 	ld  [ %i5 + 0x5c ], %i0
    2078:	7f ff f8 a9 	call  31c <cortos_lock_release>
    207c:	81 e8 00 00 	restore 

00002080 <__cortos_bpool_ncram>:
    2080:	9d e3 bf a0 	save  %sp, -96, %sp
    2084:	3b 00 00 3c 	sethi  %hi(0xf000), %i5
    2088:	c2 07 60 58 	ld  [ %i5 + 0x58 ], %g1	! f058 <bgetNcramLockAddr>
    208c:	80 a0 60 00 	cmp  %g1, 0
    2090:	12 80 00 0c 	bne  20c0 <__cortos_bpool_ncram+0x40>
    2094:	11 00 00 80 	sethi  %hi(0x20000), %o0
    2098:	13 00 00 c7 	sethi  %hi(0x31c00), %o1
    209c:	7f ff f9 76 	call  674 <bpool_ncram>
    20a0:	92 12 63 ff 	or  %o1, 0x3ff, %o1	! 31fff <ajit_global_interrupt_handlers+0x22d57>
    20a4:	03 00 00 3c 	sethi  %hi(0xf000), %g1
    20a8:	82 10 60 68 	or  %g1, 0x68, %g1	! f068 <allocatedLocksNc>
    20ac:	84 10 20 01 	mov  1, %g2
    20b0:	c4 28 60 03 	stb  %g2, [ %g1 + 3 ]
    20b4:	03 00 00 44 	sethi  %hi(0x11000), %g1
    20b8:	82 10 60 03 	or  %g1, 3, %g1	! 11003 <ajit_global_interrupt_handlers+0x1d5b>
    20bc:	c2 27 60 58 	st  %g1, [ %i5 + 0x58 ]
    20c0:	81 c7 e0 08 	ret 
    20c4:	81 e8 00 00 	restore 

000020c8 <cortos_bget_ncram>:
    20c8:	9d e3 bf a0 	save  %sp, -96, %sp
    20cc:	3b 00 00 3c 	sethi  %hi(0xf000), %i5
    20d0:	7f ff f8 79 	call  2b4 <cortos_lock_acquire_buzy>
    20d4:	d0 07 60 58 	ld  [ %i5 + 0x58 ], %o0	! f058 <bgetNcramLockAddr>
    20d8:	7f ff f9 31 	call  59c <bget_ncram>
    20dc:	90 10 00 18 	mov  %i0, %o0
    20e0:	b0 10 00 08 	mov  %o0, %i0
    20e4:	7f ff f8 8e 	call  31c <cortos_lock_release>
    20e8:	d0 07 60 58 	ld  [ %i5 + 0x58 ], %o0
    20ec:	81 c7 e0 08 	ret 
    20f0:	81 e8 00 00 	restore 

000020f4 <cortos_brel_ncram>:
    20f4:	9d e3 bf a0 	save  %sp, -96, %sp
    20f8:	3b 00 00 3c 	sethi  %hi(0xf000), %i5
    20fc:	7f ff f8 6e 	call  2b4 <cortos_lock_acquire_buzy>
    2100:	d0 07 60 58 	ld  [ %i5 + 0x58 ], %o0	! f058 <bgetNcramLockAddr>
    2104:	7f ff f9 6d 	call  6b8 <brel_ncram>
    2108:	90 10 00 18 	mov  %i0, %o0
    210c:	f0 07 60 58 	ld  [ %i5 + 0x58 ], %i0
    2110:	7f ff f8 83 	call  31c <cortos_lock_release>
    2114:	81 e8 00 00 	restore 

00002118 <bget>:
    2118:	80 a2 20 07 	cmp  %o0, 7
    211c:	08 80 00 23 	bleu  21a8 <bget+0x90>
    2120:	86 10 20 10 	mov  0x10, %g3
    2124:	88 02 20 07 	add  %o0, 7, %g4
    2128:	88 09 3f f8 	and  %g4, -8, %g4
    212c:	88 01 20 08 	add  %g4, 8, %g4
    2130:	86 10 00 04 	mov  %g4, %g3
    2134:	05 00 00 39 	sethi  %hi(0xe400), %g2
    2138:	84 10 a2 48 	or  %g2, 0x248, %g2	! e648 <freelist>
    213c:	d0 00 a0 08 	ld  [ %g2 + 8 ], %o0
    2140:	80 a2 00 02 	cmp  %o0, %g2
    2144:	32 80 00 08 	bne,a   2164 <bget+0x4c>
    2148:	c2 02 20 04 	ld  [ %o0 + 4 ], %g1
    214c:	81 c3 e0 08 	retl 
    2150:	90 10 20 00 	clr  %o0
    2154:	80 a2 00 02 	cmp  %o0, %g2
    2158:	02 80 00 12 	be  21a0 <bget+0x88>
    215c:	01 00 00 00 	nop 
    2160:	c2 02 20 04 	ld  [ %o0 + 4 ], %g1
    2164:	80 a0 40 03 	cmp  %g1, %g3
    2168:	26 bf ff fb 	bl,a   2154 <bget+0x3c>
    216c:	d0 02 20 08 	ld  [ %o0 + 8 ], %o0
    2170:	84 20 40 03 	sub  %g1, %g3, %g2
    2174:	80 a0 a0 10 	cmp  %g2, 0x10
    2178:	28 80 00 0e 	bleu,a   21b0 <bget+0x98>
    217c:	c6 02 20 08 	ld  [ %o0 + 8 ], %g3
    2180:	c4 22 20 04 	st  %g2, [ %o0 + 4 ]
    2184:	c4 22 00 02 	st  %g2, [ %o0 + %g2 ]
    2188:	86 20 00 03 	neg  %g3
    218c:	90 02 00 02 	add  %o0, %g2, %o0
    2190:	c0 22 00 04 	clr  [ %o0 + %g4 ]
    2194:	c6 22 20 04 	st  %g3, [ %o0 + 4 ]
    2198:	81 c3 e0 08 	retl 
    219c:	90 02 20 08 	add  %o0, 8, %o0
    21a0:	81 c3 e0 08 	retl 
    21a4:	90 10 20 00 	clr  %o0
    21a8:	10 bf ff e3 	b  2134 <bget+0x1c>
    21ac:	88 10 20 10 	mov  0x10, %g4
    21b0:	c4 02 20 0c 	ld  [ %o0 + 0xc ], %g2
    21b4:	c6 20 a0 08 	st  %g3, [ %g2 + 8 ]
    21b8:	c6 02 20 08 	ld  [ %o0 + 8 ], %g3
    21bc:	c4 20 e0 0c 	st  %g2, [ %g3 + 0xc ]
    21c0:	c0 22 00 01 	clr  [ %o0 + %g1 ]
    21c4:	84 20 00 01 	neg  %g1, %g2
    21c8:	c4 22 20 04 	st  %g2, [ %o0 + 4 ]
    21cc:	90 02 20 08 	add  %o0, 8, %o0
    21d0:	81 c3 e0 08 	retl 
    21d4:	01 00 00 00 	nop 

000021d8 <bpool>:
    21d8:	03 00 00 39 	sethi  %hi(0xe400), %g1
    21dc:	82 10 62 48 	or  %g1, 0x248, %g1	! e648 <freelist>
    21e0:	c4 00 60 0c 	ld  [ %g1 + 0xc ], %g2
    21e4:	c2 22 20 08 	st  %g1, [ %o0 + 8 ]
    21e8:	c4 22 20 0c 	st  %g2, [ %o0 + 0xc ]
    21ec:	d0 20 60 0c 	st  %o0, [ %g1 + 0xc ]
    21f0:	c0 22 00 00 	clr  [ %o0 ]
    21f4:	c2 02 20 0c 	ld  [ %o0 + 0xc ], %g1
    21f8:	92 0a 7f f8 	and  %o1, -8, %o1
    21fc:	d0 20 60 08 	st  %o0, [ %g1 + 8 ]
    2200:	92 02 7f f8 	add  %o1, -8, %o1
    2204:	d2 22 20 04 	st  %o1, [ %o0 + 4 ]
    2208:	82 02 00 09 	add  %o0, %o1, %g1
    220c:	05 20 00 00 	sethi  %hi(0x80000000), %g2
    2210:	d2 22 00 09 	st  %o1, [ %o0 + %o1 ]
    2214:	81 c3 e0 08 	retl 
    2218:	c4 20 60 04 	st  %g2, [ %g1 + 4 ]

0000221c <brel>:
    221c:	c2 02 3f f8 	ld  [ %o0 + -8 ], %g1
    2220:	80 a0 60 00 	cmp  %g1, 0
    2224:	02 80 00 16 	be  227c <brel+0x60>
    2228:	84 02 3f f8 	add  %o0, -8, %g2
    222c:	84 20 80 01 	sub  %g2, %g1, %g2
    2230:	c2 02 3f fc 	ld  [ %o0 + -4 ], %g1
    2234:	c6 00 a0 04 	ld  [ %g2 + 4 ], %g3
    2238:	82 20 c0 01 	sub  %g3, %g1, %g1
    223c:	c2 20 a0 04 	st  %g1, [ %g2 + 4 ]
    2240:	86 00 80 01 	add  %g2, %g1, %g3
    2244:	c8 00 e0 04 	ld  [ %g3 + 4 ], %g4
    2248:	80 a1 20 00 	cmp  %g4, 0
    224c:	04 80 00 0a 	ble  2274 <brel+0x58>
    2250:	01 00 00 00 	nop 
    2254:	da 00 e0 0c 	ld  [ %g3 + 0xc ], %o5
    2258:	82 00 40 04 	add  %g1, %g4, %g1
    225c:	d8 00 e0 08 	ld  [ %g3 + 8 ], %o4
    2260:	c2 20 a0 04 	st  %g1, [ %g2 + 4 ]
    2264:	d8 23 60 08 	st  %o4, [ %o5 + 8 ]
    2268:	c8 00 e0 08 	ld  [ %g3 + 8 ], %g4
    226c:	86 00 80 01 	add  %g2, %g1, %g3
    2270:	da 21 20 0c 	st  %o5, [ %g4 + 0xc ]
    2274:	81 c3 e0 08 	retl 
    2278:	c2 20 c0 00 	st  %g1, [ %g3 ]
    227c:	07 00 00 39 	sethi  %hi(0xe400), %g3
    2280:	86 10 e2 48 	or  %g3, 0x248, %g3	! e648 <freelist>
    2284:	c2 00 e0 0c 	ld  [ %g3 + 0xc ], %g1
    2288:	c6 22 00 00 	st  %g3, [ %o0 ]
    228c:	c2 22 20 04 	st  %g1, [ %o0 + 4 ]
    2290:	c4 20 e0 0c 	st  %g2, [ %g3 + 0xc ]
    2294:	c2 02 3f fc 	ld  [ %o0 + -4 ], %g1
    2298:	c6 02 20 04 	ld  [ %o0 + 4 ], %g3
    229c:	82 20 00 01 	neg  %g1
    22a0:	c4 20 e0 08 	st  %g2, [ %g3 + 8 ]
    22a4:	10 bf ff e7 	b  2240 <brel+0x24>
    22a8:	c2 22 3f fc 	st  %g1, [ %o0 + -4 ]
    22ac:	00 00 27 24 	unimp  0x2724
    22b0:	00 00 27 5c 	unimp  0x275c
    22b4:	00 00 27 68 	unimp  0x2768
    22b8:	00 00 27 74 	unimp  0x2774
    22bc:	00 00 27 80 	unimp  0x2780
    22c0:	00 00 27 8c 	unimp  0x278c
    22c4:	00 00 27 98 	unimp  0x2798
    22c8:	00 00 27 a4 	unimp  0x27a4
    22cc:	00 00 27 b0 	unimp  0x27b0
    22d0:	00 00 27 bc 	unimp  0x27bc
    22d4:	00 00 27 c8 	unimp  0x27c8
    22d8:	00 00 27 d4 	unimp  0x27d4
    22dc:	00 00 27 e0 	unimp  0x27e0
    22e0:	00 00 27 ec 	unimp  0x27ec
    22e4:	00 00 27 44 	unimp  0x2744
    22e8:	00 00 27 50 	unimp  0x2750
    22ec:	00 00 28 08 	unimp  0x2808
    22f0:	00 00 28 40 	unimp  0x2840
    22f4:	00 00 28 4c 	unimp  0x284c
    22f8:	00 00 28 58 	unimp  0x2858
    22fc:	00 00 28 64 	unimp  0x2864
    2300:	00 00 28 70 	unimp  0x2870
    2304:	00 00 28 7c 	unimp  0x287c
    2308:	00 00 28 88 	unimp  0x2888
    230c:	00 00 28 94 	unimp  0x2894
    2310:	00 00 28 a0 	unimp  0x28a0
    2314:	00 00 28 ac 	unimp  0x28ac
    2318:	00 00 28 b8 	unimp  0x28b8
    231c:	00 00 28 c4 	unimp  0x28c4
    2320:	00 00 28 d0 	unimp  0x28d0
    2324:	00 00 28 28 	unimp  0x2828
    2328:	00 00 28 34 	unimp  0x2834

0000232c <__ajit_clear_all_gp_registers__>:
    232c:	82 10 00 00 	mov  %g0, %g1
    2330:	84 10 00 00 	mov  %g0, %g2
    2334:	86 10 00 00 	mov  %g0, %g3
    2338:	88 10 00 00 	mov  %g0, %g4
    233c:	8a 10 00 00 	mov  %g0, %g5
    2340:	8c 10 00 00 	mov  %g0, %g6
    2344:	8e 10 00 00 	mov  %g0, %g7
    2348:	b0 10 00 00 	mov  %g0, %i0
    234c:	b2 10 00 00 	mov  %g0, %i1
    2350:	b4 10 00 00 	mov  %g0, %i2
    2354:	b6 10 00 00 	mov  %g0, %i3
    2358:	b8 10 00 00 	mov  %g0, %i4
    235c:	ba 10 00 00 	mov  %g0, %i5
    2360:	bc 10 00 00 	mov  %g0, %fp
    2364:	be 10 00 00 	mov  %g0, %i7
    2368:	a0 10 00 00 	mov  %g0, %l0
    236c:	a2 10 00 00 	mov  %g0, %l1
    2370:	a4 10 00 00 	mov  %g0, %l2
    2374:	a6 10 00 00 	mov  %g0, %l3
    2378:	a8 10 00 00 	mov  %g0, %l4
    237c:	aa 10 00 00 	mov  %g0, %l5
    2380:	ac 10 00 00 	mov  %g0, %l6
    2384:	ae 10 00 00 	mov  %g0, %l7
    2388:	90 10 00 00 	mov  %g0, %o0
    238c:	92 10 00 00 	mov  %g0, %o1
    2390:	94 10 00 00 	mov  %g0, %o2
    2394:	96 10 00 00 	mov  %g0, %o3
    2398:	98 10 00 00 	mov  %g0, %o4
    239c:	9a 10 00 00 	mov  %g0, %o5
    23a0:	9c 10 00 00 	mov  %g0, %sp
    23a4:	9e 10 00 00 	mov  %g0, %o7
    23a8:	82 10 20 07 	mov  7, %g1
    23ac:	81 e0 00 00 	save 
    23b0:	a0 10 00 00 	mov  %g0, %l0
    23b4:	a2 10 00 00 	mov  %g0, %l1
    23b8:	a4 10 00 00 	mov  %g0, %l2
    23bc:	a6 10 00 00 	mov  %g0, %l3
    23c0:	a8 10 00 00 	mov  %g0, %l4
    23c4:	aa 10 00 00 	mov  %g0, %l5
    23c8:	ac 10 00 00 	mov  %g0, %l6
    23cc:	ae 10 00 00 	mov  %g0, %l7
    23d0:	90 10 00 00 	mov  %g0, %o0
    23d4:	92 10 00 00 	mov  %g0, %o1
    23d8:	94 10 00 00 	mov  %g0, %o2
    23dc:	96 10 00 00 	mov  %g0, %o3
    23e0:	98 10 00 00 	mov  %g0, %o4
    23e4:	9a 10 00 00 	mov  %g0, %o5
    23e8:	9c 10 00 00 	mov  %g0, %sp
    23ec:	9e 10 00 00 	mov  %g0, %o7
    23f0:	82 80 7f ff 	addcc  %g1, -1, %g1
    23f4:	12 bf ff ee 	bne  23ac <__ajit_clear_all_gp_registers__+0x80>
    23f8:	01 00 00 00 	nop 
    23fc:	82 10 20 07 	mov  7, %g1	! 7 <_start+0x7>
    2400:	81 e8 00 00 	restore 
    2404:	82 80 7f ff 	addcc  %g1, -1, %g1
    2408:	12 bf ff fe 	bne  2400 <__ajit_clear_all_gp_registers__+0xd4>
    240c:	01 00 00 00 	nop 
    2410:	81 c3 e0 08 	retl 
    2414:	01 00 00 00 	nop 

00002418 <ajit_read_from_scratch_pad>:
    2418:	80 a2 20 1f 	cmp  %o0, 0x1f
    241c:	18 80 00 05 	bgu  2430 <ajit_read_from_scratch_pad+0x18>
    2420:	82 10 20 00 	clr  %g1
    2424:	91 2a 20 02 	sll  %o0, 2, %o0
    2428:	03 3f ff cb 	sethi  %hi(0xffff2c00), %g1
    242c:	c2 02 00 01 	ld  [ %o0 + %g1 ], %g1
    2430:	81 c3 e0 08 	retl 
    2434:	90 10 00 01 	mov  %g1, %o0

00002438 <ajit_write_to_scratch_pad>:
    2438:	80 a2 20 1f 	cmp  %o0, 0x1f
    243c:	18 80 00 04 	bgu  244c <ajit_write_to_scratch_pad+0x14>
    2440:	91 2a 20 02 	sll  %o0, 2, %o0
    2444:	03 3f ff cb 	sethi  %hi(0xffff2c00), %g1
    2448:	d2 22 00 01 	st  %o1, [ %o0 + %g1 ]
    244c:	81 c3 e0 08 	retl 
    2450:	01 00 00 00 	nop 

00002454 <ajit_configure_i2c_master>:
    2454:	81 80 20 00 	mov  %g0, %y
    2458:	01 00 00 00 	nop 
    245c:	01 00 00 00 	nop 
    2460:	01 00 00 00 	nop 
    2464:	92 72 00 09 	udiv  %o0, %o1, %o1
    2468:	03 3f ff cd 	sethi  %hi(0xffff3400), %g1
    246c:	93 32 60 02 	srl  %o1, 2, %o1
    2470:	82 10 62 00 	or  %g1, 0x200, %g1
    2474:	90 10 20 00 	clr  %o0
    2478:	81 c3 e0 08 	retl 
    247c:	d2 20 40 00 	st  %o1, [ %g1 ]

00002480 <ajit_i2c_master_is_ready>:
    2480:	03 3f ff cd 	sethi  %hi(0xffff3400), %g1
    2484:	82 10 62 08 	or  %g1, 0x208, %g1	! ffff3608 <ajit_global_interrupt_handlers+0xfffe4360>
    2488:	d0 00 40 00 	ld  [ %g1 ], %o0
    248c:	91 32 20 0a 	srl  %o0, 0xa, %o0
    2490:	81 c3 e0 08 	retl 
    2494:	90 0a 20 01 	and  %o0, 1, %o0

00002498 <ajit_i2c_master_write_command>:
    2498:	03 3f ff cd 	sethi  %hi(0xffff3400), %g1
    249c:	82 10 62 04 	or  %g1, 0x204, %g1	! ffff3604 <ajit_global_interrupt_handlers+0xfffe435c>
    24a0:	81 c3 e0 08 	retl 
    24a4:	d0 20 40 00 	st  %o0, [ %g1 ]

000024a8 <ajit_i2c_master_read_status>:
    24a8:	03 3f ff cd 	sethi  %hi(0xffff3400), %g1
    24ac:	82 10 62 08 	or  %g1, 0x208, %g1	! ffff3608 <ajit_global_interrupt_handlers+0xfffe4360>
    24b0:	81 c3 e0 08 	retl 
    24b4:	d0 00 40 00 	ld  [ %g1 ], %o0

000024b8 <ajit_i2c_master_access_slave_memory_device>:
    24b8:	03 3f ff cd 	sethi  %hi(0xffff3400), %g1
    24bc:	84 10 62 08 	or  %g1, 0x208, %g2	! ffff3608 <ajit_global_interrupt_handlers+0xfffe4360>
    24c0:	c4 00 80 00 	ld  [ %g2 ], %g2
    24c4:	80 88 a4 00 	btst  0x400, %g2
    24c8:	02 80 00 11 	be  250c <ajit_i2c_master_access_slave_memory_device+0x54>
    24cc:	82 10 62 04 	or  %g1, 0x204, %g1
    24d0:	91 2a 20 10 	sll  %o0, 0x10, %o0
    24d4:	87 2a 60 1f 	sll  %o1, 0x1f, %g3
    24d8:	09 18 00 00 	sethi  %hi(0x60000000), %g4
    24dc:	95 2a a0 08 	sll  %o2, 8, %o2
    24e0:	90 12 00 04 	or  %o0, %g4, %o0
    24e4:	90 12 00 03 	or  %o0, %g3, %o0
    24e8:	94 12 00 0a 	or  %o0, %o2, %o2
    24ec:	96 12 80 0b 	or  %o2, %o3, %o3
    24f0:	d6 20 40 00 	st  %o3, [ %g1 ]
    24f4:	80 a2 60 00 	cmp  %o1, 0
    24f8:	02 80 00 03 	be  2504 <ajit_i2c_master_access_slave_memory_device+0x4c>
    24fc:	90 10 20 00 	clr  %o0
    2500:	90 10 00 02 	mov  %g2, %o0
    2504:	81 c3 e0 08 	retl 
    2508:	90 0a 20 ff 	and  %o0, 0xff, %o0
    250c:	30 80 00 00 	b,a   250c <ajit_i2c_master_access_slave_memory_device+0x54>

00002510 <__ajit_read_core_thread_id_word__>:
    2510:	91 47 40 00 	rd  %asr29, %o0
    2514:	81 c3 e0 08 	retl 
    2518:	01 00 00 00 	nop 

0000251c <ajit_read_thread_descriptor>:
    251c:	9d e3 bf a0 	save  %sp, -96, %sp
    2520:	83 47 00 00 	rd  %asr28, %g1
    2524:	87 30 60 1e 	srl  %g1, 0x1e, %g3
    2528:	80 a0 e0 03 	cmp  %g3, 3
    252c:	02 80 00 0a 	be  2554 <ajit_read_thread_descriptor+0x38>
    2530:	84 10 20 20 	mov  0x20, %g2
    2534:	80 a0 e0 02 	cmp  %g3, 2
    2538:	02 80 00 07 	be  2554 <ajit_read_thread_descriptor+0x38>
    253c:	84 10 20 10 	mov  0x10, %g2
    2540:	86 18 e0 01 	xor  %g3, 1, %g3
    2544:	80 a0 00 03 	cmp  %g0, %g3
    2548:	84 60 20 00 	subx  %g0, 0, %g2
    254c:	84 08 a0 fc 	and  %g2, 0xfc, %g2
    2550:	84 00 a0 08 	add  %g2, 8, %g2
    2554:	87 30 60 1c 	srl  %g1, 0x1c, %g3
    2558:	86 08 e0 03 	and  %g3, 3, %g3
    255c:	80 a0 e0 03 	cmp  %g3, 3
    2560:	02 80 00 2d 	be  2614 <ajit_read_thread_descriptor+0xf8>
    2564:	c4 2e 00 00 	stb  %g2, [ %i0 ]
    2568:	80 a0 e0 02 	cmp  %g3, 2
    256c:	02 80 00 07 	be  2588 <ajit_read_thread_descriptor+0x6c>
    2570:	84 10 20 10 	mov  0x10, %g2
    2574:	86 18 e0 01 	xor  %g3, 1, %g3
    2578:	80 a0 00 03 	cmp  %g0, %g3
    257c:	84 60 20 00 	subx  %g0, 0, %g2
    2580:	84 08 a0 fc 	and  %g2, 0xfc, %g2
    2584:	84 00 a0 08 	add  %g2, 8, %g2
    2588:	99 30 60 1a 	srl  %g1, 0x1a, %o4
    258c:	9b 30 60 18 	srl  %g1, 0x18, %o5
    2590:	9f 30 60 14 	srl  %g1, 0x14, %o7
    2594:	b3 30 60 10 	srl  %g1, 0x10, %i1
    2598:	b5 30 60 0c 	srl  %g1, 0xc, %i2
    259c:	b7 30 60 09 	srl  %g1, 9, %i3
    25a0:	b9 30 60 07 	srl  %g1, 7, %i4
    25a4:	bb 30 60 05 	srl  %g1, 5, %i5
    25a8:	89 30 60 02 	srl  %g1, 2, %g4
    25ac:	87 30 60 01 	srl  %g1, 1, %g3
    25b0:	98 0b 20 03 	and  %o4, 3, %o4
    25b4:	9a 0b 60 03 	and  %o5, 3, %o5
    25b8:	9e 0b e0 0f 	and  %o7, 0xf, %o7
    25bc:	b2 0e 60 0f 	and  %i1, 0xf, %i1
    25c0:	b4 0e a0 0f 	and  %i2, 0xf, %i2
    25c4:	b6 0e e0 07 	and  %i3, 7, %i3
    25c8:	b8 0f 20 03 	and  %i4, 3, %i4
    25cc:	ba 0f 60 03 	and  %i5, 3, %i5
    25d0:	88 09 20 01 	and  %g4, 1, %g4
    25d4:	86 08 e0 01 	and  %g3, 1, %g3
    25d8:	82 08 60 01 	and  %g1, 1, %g1
    25dc:	c4 2e 20 01 	stb  %g2, [ %i0 + 1 ]
    25e0:	d8 2e 20 02 	stb  %o4, [ %i0 + 2 ]
    25e4:	da 2e 20 03 	stb  %o5, [ %i0 + 3 ]
    25e8:	de 2e 20 04 	stb  %o7, [ %i0 + 4 ]
    25ec:	f2 2e 20 05 	stb  %i1, [ %i0 + 5 ]
    25f0:	f4 2e 20 06 	stb  %i2, [ %i0 + 6 ]
    25f4:	f6 2e 20 07 	stb  %i3, [ %i0 + 7 ]
    25f8:	f8 2e 20 08 	stb  %i4, [ %i0 + 8 ]
    25fc:	fa 2e 20 09 	stb  %i5, [ %i0 + 9 ]
    2600:	c8 2e 20 0a 	stb  %g4, [ %i0 + 0xa ]
    2604:	c6 2e 20 0b 	stb  %g3, [ %i0 + 0xb ]
    2608:	c2 2e 20 0c 	stb  %g1, [ %i0 + 0xc ]
    260c:	81 c7 e0 08 	ret 
    2610:	81 e8 00 00 	restore 
    2614:	10 bf ff dd 	b  2588 <ajit_read_thread_descriptor+0x6c>
    2618:	84 10 20 20 	mov  0x20, %g2

0000261c <ajit_get_core_and_thread_id>:
    261c:	83 47 40 00 	rd  %asr29, %g1
    2620:	85 30 60 08 	srl  %g1, 8, %g2
    2624:	c4 2a 00 00 	stb  %g2, [ %o0 ]
    2628:	81 c3 e0 08 	retl 
    262c:	c2 2a 40 00 	stb  %g1, [ %o1 ]

00002630 <__ajit_read_cycle_count_register_high__>:
    2630:	91 47 80 00 	rd  %asr30, %o0
    2634:	81 c3 e0 08 	retl 
    2638:	01 00 00 00 	nop 

0000263c <__ajit_read_cycle_count_register_low__>:
    263c:	91 47 c0 00 	rd  %asr31, %o0
    2640:	81 c3 e0 08 	retl 
    2644:	01 00 00 00 	nop 

00002648 <__ajit_get_clock_time>:
    2648:	99 47 c0 00 	rd  %asr31, %o4
    264c:	83 47 80 00 	rd  %asr30, %g1
    2650:	86 10 20 00 	clr  %g3
    2654:	9a 10 00 0c 	mov  %o4, %o5
    2658:	98 10 20 00 	clr  %o4
    265c:	86 10 c0 0d 	or  %g3, %o5, %g3
    2660:	84 10 40 0c 	or  %g1, %o4, %g2
    2664:	92 10 00 03 	mov  %g3, %o1
    2668:	81 c3 e0 08 	retl 
    266c:	90 10 00 02 	mov  %g2, %o0

00002670 <__ajit_sleep__>:
    2670:	95 47 c0 00 	rd  %asr31, %o2
    2674:	83 47 80 00 	rd  %asr30, %g1
    2678:	9a 10 20 00 	clr  %o5
    267c:	96 10 00 0a 	mov  %o2, %o3
    2680:	9a 13 40 0b 	or  %o5, %o3, %o5
    2684:	92 83 40 08 	addcc  %o5, %o0, %o1
    2688:	94 10 20 00 	clr  %o2
    268c:	98 10 40 0a 	or  %g1, %o2, %o4
    2690:	90 43 20 00 	addx  %o4, 0, %o0
    2694:	80 a2 00 0c 	cmp  %o0, %o4
    2698:	08 80 00 0c 	bleu  26c8 <__ajit_sleep__+0x58>
    269c:	01 00 00 00 	nop 
    26a0:	99 47 c0 00 	rd  %asr31, %o4
    26a4:	83 47 80 00 	rd  %asr30, %g1
    26a8:	86 10 20 00 	clr  %g3
    26ac:	9a 10 00 0c 	mov  %o4, %o5
    26b0:	98 10 20 00 	clr  %o4
    26b4:	98 10 40 0c 	or  %g1, %o4, %o4
    26b8:	80 a2 00 0c 	cmp  %o0, %o4
    26bc:	18 bf ff f9 	bgu  26a0 <__ajit_sleep__+0x30>
    26c0:	9a 10 c0 0d 	or  %g3, %o5, %o5
    26c4:	80 a2 00 0c 	cmp  %o0, %o4
    26c8:	12 80 00 04 	bne  26d8 <__ajit_sleep__+0x68>
    26cc:	80 a2 40 0d 	cmp  %o1, %o5
    26d0:	18 bf ff f4 	bgu  26a0 <__ajit_sleep__+0x30>
    26d4:	01 00 00 00 	nop 
    26d8:	81 c3 e0 08 	retl 
    26dc:	01 00 00 00 	nop 

000026e0 <__ajit_set_mmu_default_cacheable_bit__>:
    26e0:	80 a0 00 08 	cmp  %g0, %o0
    26e4:	84 10 20 00 	clr  %g2
    26e8:	82 40 20 00 	addx  %g0, 0, %g1
    26ec:	83 28 60 08 	sll  %g1, 8, %g1
    26f0:	c2 a0 80 80 	sta  %g1, [ %g2 ] #ASI_N
    26f4:	81 c3 e0 08 	retl 
    26f8:	01 00 00 00 	nop 

000026fc <__ajit_store_word_mmu_reg__>:
    26fc:	d0 a2 40 80 	sta  %o0, [ %o1 ] #ASI_N
    2700:	81 c3 e0 08 	retl 
    2704:	01 00 00 00 	nop 

00002708 <__ajit_store_word_mmu_bypass__>:
    2708:	d0 a2 44 00 	sta  %o0, [ %o1 ] #ASI_SCRATCHPAD
    270c:	81 c3 e0 08 	retl 
    2710:	01 00 00 00 	nop 

00002714 <__ajit_store_word_to_physical_address__>:
    2714:	86 0a 60 0f 	and  %o1, 0xf, %g3
    2718:	80 a0 e0 0f 	cmp  %g3, 0xf
    271c:	08 80 00 05 	bleu  2730 <__ajit_store_word_to_physical_address__+0x1c>
    2720:	83 28 e0 02 	sll  %g3, 2, %g1
    2724:	d0 a2 84 00 	sta  %o0, [ %o2 ] #ASI_SCRATCHPAD
    2728:	81 c3 e0 08 	retl 
    272c:	01 00 00 00 	nop 
    2730:	05 00 00 08 	sethi  %hi(0x2000), %g2
    2734:	84 10 a2 ac 	or  %g2, 0x2ac, %g2	! 22ac <brel+0x90>
    2738:	c2 00 80 01 	ld  [ %g2 + %g1 ], %g1
    273c:	81 c0 40 00 	jmp  %g1
    2740:	01 00 00 00 	nop 
    2744:	d0 a2 85 c0 	sta  %o0, [ %o2 ] (46)
    2748:	81 c3 e0 08 	retl 
    274c:	01 00 00 00 	nop 
    2750:	d0 a2 85 e0 	sta  %o0, [ %o2 ] (47)
    2754:	81 c3 e0 08 	retl 
    2758:	01 00 00 00 	nop 
    275c:	d0 a2 84 20 	sta  %o0, [ %o2 ] #ASI_MMU
    2760:	81 c3 e0 08 	retl 
    2764:	01 00 00 00 	nop 
    2768:	d0 a2 84 40 	sta  %o0, [ %o2 ] (34)
    276c:	81 c3 e0 08 	retl 
    2770:	01 00 00 00 	nop 
    2774:	d0 a2 84 60 	sta  %o0, [ %o2 ] #ASI_BLK_INIT_QUAD_LDD_AIUS
    2778:	81 c3 e0 08 	retl 
    277c:	01 00 00 00 	nop 
    2780:	d0 a2 84 80 	sta  %o0, [ %o2 ] #ASI_NUCLEUS_QUAD_LDD
    2784:	81 c3 e0 08 	retl 
    2788:	01 00 00 00 	nop 
    278c:	d0 a2 84 a0 	sta  %o0, [ %o2 ] #ASI_QUEUE
    2790:	81 c3 e0 08 	retl 
    2794:	01 00 00 00 	nop 
    2798:	d0 a2 84 c0 	sta  %o0, [ %o2 ] #ASI_QUAD_LDD_PHYS_4V
    279c:	81 c3 e0 08 	retl 
    27a0:	01 00 00 00 	nop 
    27a4:	d0 a2 84 e0 	sta  %o0, [ %o2 ] (39)
    27a8:	81 c3 e0 08 	retl 
    27ac:	01 00 00 00 	nop 
    27b0:	d0 a2 85 00 	sta  %o0, [ %o2 ] (40)
    27b4:	81 c3 e0 08 	retl 
    27b8:	01 00 00 00 	nop 
    27bc:	d0 a2 85 20 	sta  %o0, [ %o2 ] (41)
    27c0:	81 c3 e0 08 	retl 
    27c4:	01 00 00 00 	nop 
    27c8:	d0 a2 85 40 	sta  %o0, [ %o2 ] (42)
    27cc:	81 c3 e0 08 	retl 
    27d0:	01 00 00 00 	nop 
    27d4:	d0 a2 85 60 	sta  %o0, [ %o2 ] (43)
    27d8:	81 c3 e0 08 	retl 
    27dc:	01 00 00 00 	nop 
    27e0:	d0 a2 85 80 	sta  %o0, [ %o2 ] #ASI_NUCLEUS_QUAD_LDD_L
    27e4:	81 c3 e0 08 	retl 
    27e8:	01 00 00 00 	nop 
    27ec:	d0 a2 85 a0 	sta  %o0, [ %o2 ] (45)
    27f0:	81 c3 e0 08 	retl 
    27f4:	01 00 00 00 	nop 

000027f8 <__ajit_load_word_from_physical_address__>:
    27f8:	86 0a 20 0f 	and  %o0, 0xf, %g3
    27fc:	80 a0 e0 0f 	cmp  %g3, 0xf
    2800:	08 80 00 05 	bleu  2814 <__ajit_load_word_from_physical_address__+0x1c>
    2804:	83 28 e0 02 	sll  %g3, 2, %g1
    2808:	d0 82 44 00 	lda  [ %o1 ] #ASI_SCRATCHPAD, %o0
    280c:	81 c3 e0 08 	retl 
    2810:	01 00 00 00 	nop 
    2814:	05 00 00 08 	sethi  %hi(0x2000), %g2
    2818:	84 10 a2 ec 	or  %g2, 0x2ec, %g2	! 22ec <brel+0xd0>
    281c:	c2 00 80 01 	ld  [ %g2 + %g1 ], %g1
    2820:	81 c0 40 00 	jmp  %g1
    2824:	01 00 00 00 	nop 
    2828:	d0 82 45 c0 	lda  [ %o1 ] (46), %o0
    282c:	81 c3 e0 08 	retl 
    2830:	01 00 00 00 	nop 
    2834:	d0 82 45 e0 	lda  [ %o1 ] (47), %o0
    2838:	81 c3 e0 08 	retl 
    283c:	01 00 00 00 	nop 
    2840:	d0 82 44 20 	lda  [ %o1 ] #ASI_MMU, %o0
    2844:	81 c3 e0 08 	retl 
    2848:	01 00 00 00 	nop 
    284c:	d0 82 44 40 	lda  [ %o1 ] (34), %o0
    2850:	81 c3 e0 08 	retl 
    2854:	01 00 00 00 	nop 
    2858:	d0 82 44 60 	lda  [ %o1 ] #ASI_BLK_INIT_QUAD_LDD_AIUS, %o0
    285c:	81 c3 e0 08 	retl 
    2860:	01 00 00 00 	nop 
    2864:	d0 82 44 80 	lda  [ %o1 ] #ASI_NUCLEUS_QUAD_LDD, %o0
    2868:	81 c3 e0 08 	retl 
    286c:	01 00 00 00 	nop 
    2870:	d0 82 44 a0 	lda  [ %o1 ] #ASI_QUEUE, %o0
    2874:	81 c3 e0 08 	retl 
    2878:	01 00 00 00 	nop 
    287c:	d0 82 44 c0 	lda  [ %o1 ] #ASI_QUAD_LDD_PHYS_4V, %o0
    2880:	81 c3 e0 08 	retl 
    2884:	01 00 00 00 	nop 
    2888:	d0 82 44 e0 	lda  [ %o1 ] (39), %o0
    288c:	81 c3 e0 08 	retl 
    2890:	01 00 00 00 	nop 
    2894:	d0 82 45 00 	lda  [ %o1 ] (40), %o0
    2898:	81 c3 e0 08 	retl 
    289c:	01 00 00 00 	nop 
    28a0:	d0 82 45 20 	lda  [ %o1 ] (41), %o0
    28a4:	81 c3 e0 08 	retl 
    28a8:	01 00 00 00 	nop 
    28ac:	d0 82 45 40 	lda  [ %o1 ] (42), %o0
    28b0:	81 c3 e0 08 	retl 
    28b4:	01 00 00 00 	nop 
    28b8:	d0 82 45 60 	lda  [ %o1 ] (43), %o0
    28bc:	81 c3 e0 08 	retl 
    28c0:	01 00 00 00 	nop 
    28c4:	d0 82 45 80 	lda  [ %o1 ] #ASI_NUCLEUS_QUAD_LDD_L, %o0
    28c8:	81 c3 e0 08 	retl 
    28cc:	01 00 00 00 	nop 
    28d0:	d0 82 45 a0 	lda  [ %o1 ] (45), %o0
    28d4:	81 c3 e0 08 	retl 
    28d8:	01 00 00 00 	nop 

000028dc <__ajit_load_word_mmu_reg__>:
    28dc:	d0 82 00 80 	lda  [ %o0 ] #ASI_N, %o0
    28e0:	81 c3 e0 08 	retl 
    28e4:	01 00 00 00 	nop 

000028e8 <__ajit_load_word_mmu_bypass__>:
    28e8:	d0 82 04 00 	lda  [ %o0 ] #ASI_SCRATCHPAD, %o0
    28ec:	81 c3 e0 08 	retl 
    28f0:	01 00 00 00 	nop 

000028f4 <__ajit_flush_icache__>:
    28f4:	81 d8 20 00 	flush  %g0
    28f8:	81 c3 e0 08 	retl 
    28fc:	01 00 00 00 	nop 

00002900 <__ajit_flush_dcache__>:
    2900:	c0 a0 02 60 	sta  %g0, [ %g0 ] (19)
    2904:	81 c3 e0 08 	retl 
    2908:	01 00 00 00 	nop 

0000290c <__ajit_write_timer_control_register_via_bypass__>:
    290c:	03 3f ff cc 	sethi  %hi(0xffff3000), %g1
    2910:	82 10 61 00 	or  %g1, 0x100, %g1	! ffff3100 <ajit_global_interrupt_handlers+0xfffe3e58>
    2914:	d0 a0 44 00 	sta  %o0, [ %g1 ] #ASI_SCRATCHPAD
    2918:	81 c3 e0 08 	retl 
    291c:	01 00 00 00 	nop 

00002920 <__ajit_read_timer_control_register_via_bypass__>:
    2920:	11 3f ff cc 	sethi  %hi(0xffff3000), %o0
    2924:	90 12 21 00 	or  %o0, 0x100, %o0	! ffff3100 <ajit_global_interrupt_handlers+0xfffe3e58>
    2928:	d0 82 04 00 	lda  [ %o0 ] #ASI_SCRATCHPAD, %o0
    292c:	81 c3 e0 08 	retl 
    2930:	01 00 00 00 	nop 

00002934 <__ajit_write_timer_control_register_via_vmap__>:
    2934:	03 3f ff cc 	sethi  %hi(0xffff3000), %g1
    2938:	82 10 61 00 	or  %g1, 0x100, %g1	! ffff3100 <ajit_global_interrupt_handlers+0xfffe3e58>
    293c:	81 c3 e0 08 	retl 
    2940:	d0 20 40 00 	st  %o0, [ %g1 ]

00002944 <__ajit_read_timer_control_register_via_vmap__>:
    2944:	03 3f ff cc 	sethi  %hi(0xffff3000), %g1
    2948:	82 10 61 00 	or  %g1, 0x100, %g1	! ffff3100 <ajit_global_interrupt_handlers+0xfffe3e58>
    294c:	81 c3 e0 08 	retl 
    2950:	d0 00 40 00 	ld  [ %g1 ], %o0

00002954 <__ajit_write_serial_control_register_via_bypass__>:
    2954:	03 3f ff cc 	sethi  %hi(0xffff3000), %g1
    2958:	82 10 62 00 	or  %g1, 0x200, %g1	! ffff3200 <ajit_global_interrupt_handlers+0xfffe3f58>
    295c:	d0 a0 44 00 	sta  %o0, [ %g1 ] #ASI_SCRATCHPAD
    2960:	81 c3 e0 08 	retl 
    2964:	01 00 00 00 	nop 

00002968 <__ajit_read_serial_control_register_via_bypass__>:
    2968:	11 3f ff cc 	sethi  %hi(0xffff3000), %o0
    296c:	90 12 22 00 	or  %o0, 0x200, %o0	! ffff3200 <ajit_global_interrupt_handlers+0xfffe3f58>
    2970:	d0 82 04 00 	lda  [ %o0 ] #ASI_SCRATCHPAD, %o0
    2974:	81 c3 e0 08 	retl 
    2978:	01 00 00 00 	nop 

0000297c <__ajit_write_serial_tx_register_via_bypass__>:
    297c:	03 3f ff cc 	sethi  %hi(0xffff3000), %g1
    2980:	82 10 62 04 	or  %g1, 0x204, %g1	! ffff3204 <ajit_global_interrupt_handlers+0xfffe3f5c>
    2984:	d0 a8 44 00 	stba  %o0, [ %g1 ] #ASI_SCRATCHPAD
    2988:	81 c3 e0 08 	retl 
    298c:	01 00 00 00 	nop 

00002990 <__ajit_read_serial_tx_register_via_bypass__>:
    2990:	11 3f ff cc 	sethi  %hi(0xffff3000), %o0
    2994:	90 12 22 04 	or  %o0, 0x204, %o0	! ffff3204 <ajit_global_interrupt_handlers+0xfffe3f5c>
    2998:	d0 8a 04 00 	lduba  [ %o0 ] #ASI_SCRATCHPAD, %o0
    299c:	81 c3 e0 08 	retl 
    29a0:	90 0a 20 ff 	and  %o0, 0xff, %o0

000029a4 <__ajit_read_serial_rx_register_via_bypass__>:
    29a4:	11 3f ff cc 	sethi  %hi(0xffff3000), %o0
    29a8:	90 12 22 08 	or  %o0, 0x208, %o0	! ffff3208 <ajit_global_interrupt_handlers+0xfffe3f60>
    29ac:	d0 8a 04 00 	lduba  [ %o0 ] #ASI_SCRATCHPAD, %o0
    29b0:	81 c3 e0 08 	retl 
    29b4:	90 0a 20 ff 	and  %o0, 0xff, %o0

000029b8 <__ajit_write_serial_baud_limit_register_via_bypass__>:
    29b8:	03 3f ff cc 	sethi  %hi(0xffff3000), %g1
    29bc:	82 10 62 0c 	or  %g1, 0x20c, %g1	! ffff320c <ajit_global_interrupt_handlers+0xfffe3f64>
    29c0:	d0 a0 44 00 	sta  %o0, [ %g1 ] #ASI_SCRATCHPAD
    29c4:	81 c3 e0 08 	retl 
    29c8:	01 00 00 00 	nop 

000029cc <__ajit_read_serial_baud_limit_register_via_bypass__>:
    29cc:	11 3f ff cc 	sethi  %hi(0xffff3000), %o0
    29d0:	90 12 22 0c 	or  %o0, 0x20c, %o0	! ffff320c <ajit_global_interrupt_handlers+0xfffe3f64>
    29d4:	d0 82 04 00 	lda  [ %o0 ] #ASI_SCRATCHPAD, %o0
    29d8:	81 c3 e0 08 	retl 
    29dc:	01 00 00 00 	nop 

000029e0 <__ajit_write_serial_baud_frequency_register_via_bypass__>:
    29e0:	03 3f ff cc 	sethi  %hi(0xffff3000), %g1
    29e4:	82 10 62 10 	or  %g1, 0x210, %g1	! ffff3210 <ajit_global_interrupt_handlers+0xfffe3f68>
    29e8:	d0 a0 44 00 	sta  %o0, [ %g1 ] #ASI_SCRATCHPAD
    29ec:	81 c3 e0 08 	retl 
    29f0:	01 00 00 00 	nop 

000029f4 <__ajit_read_serial_baud_frequency_register_via_bypass__>:
    29f4:	11 3f ff cc 	sethi  %hi(0xffff3000), %o0
    29f8:	90 12 22 10 	or  %o0, 0x210, %o0	! ffff3210 <ajit_global_interrupt_handlers+0xfffe3f68>
    29fc:	d0 82 04 00 	lda  [ %o0 ] #ASI_SCRATCHPAD, %o0
    2a00:	81 c3 e0 08 	retl 
    2a04:	01 00 00 00 	nop 

00002a08 <__ajit_serial_set_baudrate_via_bypass__>:
    2a08:	91 2a 20 04 	sll  %o0, 4, %o0
    2a0c:	80 a2 00 09 	cmp  %o0, %o1
    2a10:	1a 80 00 1f 	bcc  2a8c <__ajit_serial_set_baudrate_via_bypass__+0x84>
    2a14:	03 3f ff cc 	sethi  %hi(0xffff3000), %g1
    2a18:	80 a2 20 00 	cmp  %o0, 0
    2a1c:	02 80 00 1d 	be  2a90 <__ajit_serial_set_baudrate_via_bypass__+0x88>
    2a20:	86 10 62 0c 	or  %g1, 0x20c, %g3
    2a24:	84 10 00 09 	mov  %o1, %g2
    2a28:	10 80 00 03 	b  2a34 <__ajit_serial_set_baudrate_via_bypass__+0x2c>
    2a2c:	82 10 00 08 	mov  %o0, %g1
    2a30:	82 10 00 03 	mov  %g3, %g1
    2a34:	81 80 20 00 	mov  %g0, %y
    2a38:	01 00 00 00 	nop 
    2a3c:	01 00 00 00 	nop 
    2a40:	01 00 00 00 	nop 
    2a44:	86 70 80 01 	udiv  %g2, %g1, %g3
    2a48:	86 58 c0 01 	smul  %g3, %g1, %g3
    2a4c:	86 20 80 03 	sub  %g2, %g3, %g3
    2a50:	80 a0 e0 00 	cmp  %g3, 0
    2a54:	12 bf ff f7 	bne  2a30 <__ajit_serial_set_baudrate_via_bypass__+0x28>
    2a58:	84 10 00 01 	mov  %g1, %g2
    2a5c:	81 80 20 00 	mov  %g0, %y
    2a60:	01 00 00 00 	nop 
    2a64:	01 00 00 00 	nop 
    2a68:	01 00 00 00 	nop 
    2a6c:	84 72 00 01 	udiv  %o0, %g1, %g2
    2a70:	81 80 20 00 	mov  %g0, %y
    2a74:	01 00 00 00 	nop 
    2a78:	01 00 00 00 	nop 
    2a7c:	01 00 00 00 	nop 
    2a80:	88 72 40 01 	udiv  %o1, %g1, %g4
    2a84:	88 21 00 02 	sub  %g4, %g2, %g4
    2a88:	03 3f ff cc 	sethi  %hi(0xffff3000), %g1
    2a8c:	86 10 62 0c 	or  %g1, 0x20c, %g3	! ffff320c <ajit_global_interrupt_handlers+0xfffe3f64>
    2a90:	c8 a0 c4 00 	sta  %g4, [ %g3 ] #ASI_SCRATCHPAD
    2a94:	82 10 62 10 	or  %g1, 0x210, %g1
    2a98:	c4 a0 44 00 	sta  %g2, [ %g1 ] #ASI_SCRATCHPAD
    2a9c:	81 c3 e0 08 	retl 
    2aa0:	01 00 00 00 	nop 

00002aa4 <__ajit_write_serial_control_register_via_vmap__>:
    2aa4:	03 3f ff cc 	sethi  %hi(0xffff3000), %g1
    2aa8:	82 10 62 00 	or  %g1, 0x200, %g1	! ffff3200 <ajit_global_interrupt_handlers+0xfffe3f58>
    2aac:	81 c3 e0 08 	retl 
    2ab0:	d0 20 40 00 	st  %o0, [ %g1 ]

00002ab4 <__ajit_read_serial_control_register_via_vmap__>:
    2ab4:	03 3f ff cc 	sethi  %hi(0xffff3000), %g1
    2ab8:	82 10 62 00 	or  %g1, 0x200, %g1	! ffff3200 <ajit_global_interrupt_handlers+0xfffe3f58>
    2abc:	81 c3 e0 08 	retl 
    2ac0:	d0 08 40 00 	ldub  [ %g1 ], %o0

00002ac4 <__ajit_write_serial_tx_register_via_vmap__>:
    2ac4:	03 3f ff cc 	sethi  %hi(0xffff3000), %g1
    2ac8:	82 10 62 04 	or  %g1, 0x204, %g1	! ffff3204 <ajit_global_interrupt_handlers+0xfffe3f5c>
    2acc:	81 c3 e0 08 	retl 
    2ad0:	d0 28 40 00 	stb  %o0, [ %g1 ]

00002ad4 <__ajit_read_serial_tx_register_via_vmap__>:
    2ad4:	03 3f ff cc 	sethi  %hi(0xffff3000), %g1
    2ad8:	82 10 62 04 	or  %g1, 0x204, %g1	! ffff3204 <ajit_global_interrupt_handlers+0xfffe3f5c>
    2adc:	81 c3 e0 08 	retl 
    2ae0:	d0 08 40 00 	ldub  [ %g1 ], %o0

00002ae4 <__ajit_read_serial_rx_register_via_vmap__>:
    2ae4:	03 3f ff cc 	sethi  %hi(0xffff3000), %g1
    2ae8:	82 10 62 08 	or  %g1, 0x208, %g1	! ffff3208 <ajit_global_interrupt_handlers+0xfffe3f60>
    2aec:	81 c3 e0 08 	retl 
    2af0:	d0 08 40 00 	ldub  [ %g1 ], %o0

00002af4 <__ajit_serial_set_baudrate_via_vmap__>:
    2af4:	91 2a 20 04 	sll  %o0, 4, %o0
    2af8:	80 a2 00 09 	cmp  %o0, %o1
    2afc:	1a 80 00 1f 	bcc  2b78 <__ajit_serial_set_baudrate_via_vmap__+0x84>
    2b00:	03 3f ff cc 	sethi  %hi(0xffff3000), %g1
    2b04:	80 a2 20 00 	cmp  %o0, 0
    2b08:	02 80 00 1d 	be  2b7c <__ajit_serial_set_baudrate_via_vmap__+0x88>
    2b0c:	86 10 62 0c 	or  %g1, 0x20c, %g3
    2b10:	84 10 00 09 	mov  %o1, %g2
    2b14:	10 80 00 03 	b  2b20 <__ajit_serial_set_baudrate_via_vmap__+0x2c>
    2b18:	82 10 00 08 	mov  %o0, %g1
    2b1c:	82 10 00 03 	mov  %g3, %g1
    2b20:	81 80 20 00 	mov  %g0, %y
    2b24:	01 00 00 00 	nop 
    2b28:	01 00 00 00 	nop 
    2b2c:	01 00 00 00 	nop 
    2b30:	86 70 80 01 	udiv  %g2, %g1, %g3
    2b34:	86 58 c0 01 	smul  %g3, %g1, %g3
    2b38:	86 20 80 03 	sub  %g2, %g3, %g3
    2b3c:	80 a0 e0 00 	cmp  %g3, 0
    2b40:	12 bf ff f7 	bne  2b1c <__ajit_serial_set_baudrate_via_vmap__+0x28>
    2b44:	84 10 00 01 	mov  %g1, %g2
    2b48:	81 80 20 00 	mov  %g0, %y
    2b4c:	01 00 00 00 	nop 
    2b50:	01 00 00 00 	nop 
    2b54:	01 00 00 00 	nop 
    2b58:	84 72 00 01 	udiv  %o0, %g1, %g2
    2b5c:	81 80 20 00 	mov  %g0, %y
    2b60:	01 00 00 00 	nop 
    2b64:	01 00 00 00 	nop 
    2b68:	01 00 00 00 	nop 
    2b6c:	88 72 40 01 	udiv  %o1, %g1, %g4
    2b70:	88 21 00 02 	sub  %g4, %g2, %g4
    2b74:	03 3f ff cc 	sethi  %hi(0xffff3000), %g1
    2b78:	86 10 62 0c 	or  %g1, 0x20c, %g3	! ffff320c <ajit_global_interrupt_handlers+0xfffe3f64>
    2b7c:	c8 20 c0 00 	st  %g4, [ %g3 ]
    2b80:	82 10 62 10 	or  %g1, 0x210, %g1
    2b84:	81 c3 e0 08 	retl 
    2b88:	c4 20 40 00 	st  %g2, [ %g1 ]

00002b8c <__ajit_read_serial_baud_limit_register_via_vmap__>:
    2b8c:	03 3f ff cc 	sethi  %hi(0xffff3000), %g1
    2b90:	82 10 62 0c 	or  %g1, 0x20c, %g1	! ffff320c <ajit_global_interrupt_handlers+0xfffe3f64>
    2b94:	81 c3 e0 08 	retl 
    2b98:	d0 00 40 00 	ld  [ %g1 ], %o0

00002b9c <__ajit_write_serial_baud_limit_register_via_vmap__>:
    2b9c:	03 3f ff cc 	sethi  %hi(0xffff3000), %g1
    2ba0:	82 10 62 0c 	or  %g1, 0x20c, %g1	! ffff320c <ajit_global_interrupt_handlers+0xfffe3f64>
    2ba4:	81 c3 e0 08 	retl 
    2ba8:	d0 20 40 00 	st  %o0, [ %g1 ]

00002bac <__ajit_read_serial_baud_frequency_register_via_vmap__>:
    2bac:	03 3f ff cc 	sethi  %hi(0xffff3000), %g1
    2bb0:	82 10 62 10 	or  %g1, 0x210, %g1	! ffff3210 <ajit_global_interrupt_handlers+0xfffe3f68>
    2bb4:	81 c3 e0 08 	retl 
    2bb8:	d0 00 40 00 	ld  [ %g1 ], %o0

00002bbc <__ajit_write_serial_baud_frequency_register_via_vmap__>:
    2bbc:	03 3f ff cc 	sethi  %hi(0xffff3000), %g1
    2bc0:	82 10 62 10 	or  %g1, 0x210, %g1	! ffff3210 <ajit_global_interrupt_handlers+0xfffe3f68>
    2bc4:	81 c3 e0 08 	retl 
    2bc8:	d0 20 40 00 	st  %o0, [ %g1 ]

00002bcc <calculate_baud_control_values_for_uart>:
    2bcc:	91 2a 20 04 	sll  %o0, 4, %o0
    2bd0:	80 a2 00 09 	cmp  %o0, %o1
    2bd4:	1a 80 00 1e 	bcc  2c4c <calculate_baud_control_values_for_uart+0x80>
    2bd8:	80 a2 20 00 	cmp  %o0, 0
    2bdc:	02 80 00 1c 	be  2c4c <calculate_baud_control_values_for_uart+0x80>
    2be0:	84 10 00 09 	mov  %o1, %g2
    2be4:	10 80 00 03 	b  2bf0 <calculate_baud_control_values_for_uart+0x24>
    2be8:	82 10 00 08 	mov  %o0, %g1
    2bec:	82 10 00 03 	mov  %g3, %g1
    2bf0:	81 80 20 00 	mov  %g0, %y
    2bf4:	01 00 00 00 	nop 
    2bf8:	01 00 00 00 	nop 
    2bfc:	01 00 00 00 	nop 
    2c00:	86 70 80 01 	udiv  %g2, %g1, %g3
    2c04:	86 58 c0 01 	smul  %g3, %g1, %g3
    2c08:	86 20 80 03 	sub  %g2, %g3, %g3
    2c0c:	80 a0 e0 00 	cmp  %g3, 0
    2c10:	12 bf ff f7 	bne  2bec <calculate_baud_control_values_for_uart+0x20>
    2c14:	84 10 00 01 	mov  %g1, %g2
    2c18:	81 80 20 00 	mov  %g0, %y
    2c1c:	01 00 00 00 	nop 
    2c20:	01 00 00 00 	nop 
    2c24:	01 00 00 00 	nop 
    2c28:	84 72 00 01 	udiv  %o0, %g1, %g2
    2c2c:	c4 22 c0 00 	st  %g2, [ %o3 ]
    2c30:	81 80 20 00 	mov  %g0, %y
    2c34:	01 00 00 00 	nop 
    2c38:	01 00 00 00 	nop 
    2c3c:	01 00 00 00 	nop 
    2c40:	86 72 40 01 	udiv  %o1, %g1, %g3
    2c44:	84 20 c0 02 	sub  %g3, %g2, %g2
    2c48:	c4 22 80 00 	st  %g2, [ %o2 ]
    2c4c:	81 c3 e0 08 	retl 
    2c50:	01 00 00 00 	nop 

00002c54 <__ajit_serial_configure_inner__>:
    2c54:	05 3f ff cc 	sethi  %hi(0xffff3000), %g2
    2c58:	80 a2 60 00 	cmp  %o1, 0
    2c5c:	12 80 00 03 	bne  2c68 <__ajit_serial_configure_inner__+0x14>
    2c60:	82 10 a2 40 	or  %g2, 0x240, %g1
    2c64:	82 10 a2 00 	or  %g2, 0x200, %g1
    2c68:	80 a2 20 00 	cmp  %o0, 0
    2c6c:	02 80 00 15 	be  2cc0 <__ajit_serial_configure_inner__+0x6c>
    2c70:	01 00 00 00 	nop 
    2c74:	c4 00 40 00 	ld  [ %g1 ], %g2
    2c78:	80 a2 a0 00 	cmp  %o2, 0
    2c7c:	02 80 00 03 	be  2c88 <__ajit_serial_configure_inner__+0x34>
    2c80:	86 08 bf fe 	and  %g2, -2, %g3
    2c84:	86 10 a0 01 	or  %g2, 1, %g3
    2c88:	80 a2 e0 00 	cmp  %o3, 0
    2c8c:	02 80 00 03 	be  2c98 <__ajit_serial_configure_inner__+0x44>
    2c90:	84 08 ff fd 	and  %g3, -3, %g2
    2c94:	84 10 e0 02 	or  %g3, 2, %g2
    2c98:	80 a3 20 00 	cmp  %o4, 0
    2c9c:	02 80 00 03 	be  2ca8 <__ajit_serial_configure_inner__+0x54>
    2ca0:	86 08 bf fb 	and  %g2, -5, %g3
    2ca4:	86 10 a0 04 	or  %g2, 4, %g3
    2ca8:	80 a2 20 00 	cmp  %o0, 0
    2cac:	12 80 00 08 	bne  2ccc <__ajit_serial_configure_inner__+0x78>
    2cb0:	01 00 00 00 	nop 
    2cb4:	c6 a0 44 00 	sta  %g3, [ %g1 ] #ASI_SCRATCHPAD
    2cb8:	81 c3 e0 08 	retl 
    2cbc:	01 00 00 00 	nop 
    2cc0:	c4 80 44 00 	lda  [ %g1 ] #ASI_SCRATCHPAD, %g2
    2cc4:	10 bf ff ee 	b  2c7c <__ajit_serial_configure_inner__+0x28>
    2cc8:	80 a2 a0 00 	cmp  %o2, 0
    2ccc:	81 c3 e0 08 	retl 
    2cd0:	c6 20 40 00 	st  %g3, [ %g1 ]

00002cd4 <__ajit_serial_configure_via_vmap__>:
    2cd4:	82 10 00 08 	mov  %o0, %g1
    2cd8:	96 10 00 09 	mov  %o1, %o3
    2cdc:	98 10 00 0a 	mov  %o2, %o4
    2ce0:	90 10 20 01 	mov  1, %o0
    2ce4:	92 10 20 00 	clr  %o1
    2ce8:	94 10 00 01 	mov  %g1, %o2
    2cec:	82 13 c0 00 	mov  %o7, %g1
    2cf0:	7f ff ff d9 	call  2c54 <__ajit_serial_configure_inner__>
    2cf4:	9e 10 40 00 	mov  %g1, %o7

00002cf8 <__ajit_serial_configure_via_bypass__>:
    2cf8:	82 10 00 08 	mov  %o0, %g1
    2cfc:	96 10 00 09 	mov  %o1, %o3
    2d00:	98 10 00 0a 	mov  %o2, %o4
    2d04:	90 10 20 00 	clr  %o0
    2d08:	92 10 20 00 	clr  %o1
    2d0c:	94 10 00 01 	mov  %g1, %o2
    2d10:	82 13 c0 00 	mov  %o7, %g1
    2d14:	7f ff ff d0 	call  2c54 <__ajit_serial_configure_inner__>
    2d18:	9e 10 40 00 	mov  %g1, %o7

00002d1c <__ajit_serial_set_baudrate_inner__>:
    2d1c:	95 2a a0 04 	sll  %o2, 4, %o2
    2d20:	80 a2 80 0b 	cmp  %o2, %o3
    2d24:	1a 80 00 06 	bcc  2d3c <__ajit_serial_set_baudrate_inner__+0x20>
    2d28:	80 a2 60 00 	cmp  %o1, 0
    2d2c:	80 a2 a0 00 	cmp  %o2, 0
    2d30:	32 80 00 0d 	bne,a   2d64 <__ajit_serial_set_baudrate_inner__+0x48>
    2d34:	84 10 00 0b 	mov  %o3, %g2
    2d38:	80 a2 60 00 	cmp  %o1, 0
    2d3c:	02 80 00 25 	be  2dd0 <__ajit_serial_set_baudrate_inner__+0xb4>
    2d40:	03 3f ff cc 	sethi  %hi(0xffff3000), %g1
    2d44:	86 10 62 4c 	or  %g1, 0x24c, %g3	! ffff324c <ajit_global_interrupt_handlers+0xfffe3fa4>
    2d48:	80 a2 20 00 	cmp  %o0, 0
    2d4c:	12 80 00 25 	bne  2de0 <__ajit_serial_set_baudrate_inner__+0xc4>
    2d50:	82 10 62 50 	or  %g1, 0x250, %g1
    2d54:	c8 a0 c4 00 	sta  %g4, [ %g3 ] #ASI_SCRATCHPAD
    2d58:	c4 a0 44 00 	sta  %g2, [ %g1 ] #ASI_SCRATCHPAD
    2d5c:	81 c3 e0 08 	retl 
    2d60:	01 00 00 00 	nop 
    2d64:	10 80 00 03 	b  2d70 <__ajit_serial_set_baudrate_inner__+0x54>
    2d68:	82 10 00 0a 	mov  %o2, %g1
    2d6c:	82 10 00 03 	mov  %g3, %g1
    2d70:	81 80 20 00 	mov  %g0, %y
    2d74:	01 00 00 00 	nop 
    2d78:	01 00 00 00 	nop 
    2d7c:	01 00 00 00 	nop 
    2d80:	86 70 80 01 	udiv  %g2, %g1, %g3
    2d84:	86 58 c0 01 	smul  %g3, %g1, %g3
    2d88:	86 20 80 03 	sub  %g2, %g3, %g3
    2d8c:	80 a0 e0 00 	cmp  %g3, 0
    2d90:	12 bf ff f7 	bne  2d6c <__ajit_serial_set_baudrate_inner__+0x50>
    2d94:	84 10 00 01 	mov  %g1, %g2
    2d98:	81 80 20 00 	mov  %g0, %y
    2d9c:	01 00 00 00 	nop 
    2da0:	01 00 00 00 	nop 
    2da4:	01 00 00 00 	nop 
    2da8:	84 72 80 01 	udiv  %o2, %g1, %g2
    2dac:	81 80 20 00 	mov  %g0, %y
    2db0:	01 00 00 00 	nop 
    2db4:	01 00 00 00 	nop 
    2db8:	01 00 00 00 	nop 
    2dbc:	88 72 c0 01 	udiv  %o3, %g1, %g4
    2dc0:	80 a2 60 00 	cmp  %o1, 0
    2dc4:	88 21 00 02 	sub  %g4, %g2, %g4
    2dc8:	12 bf ff df 	bne  2d44 <__ajit_serial_set_baudrate_inner__+0x28>
    2dcc:	03 3f ff cc 	sethi  %hi(0xffff3000), %g1
    2dd0:	86 10 62 0c 	or  %g1, 0x20c, %g3	! ffff320c <ajit_global_interrupt_handlers+0xfffe3f64>
    2dd4:	80 a2 20 00 	cmp  %o0, 0
    2dd8:	02 bf ff df 	be  2d54 <__ajit_serial_set_baudrate_inner__+0x38>
    2ddc:	82 10 62 10 	or  %g1, 0x210, %g1
    2de0:	c8 20 c0 00 	st  %g4, [ %g3 ]
    2de4:	81 c3 e0 08 	retl 
    2de8:	c4 20 40 00 	st  %g2, [ %g1 ]

00002dec <__ajit_serial_putchar_inner__>:
    2dec:	84 10 00 08 	mov  %o0, %g2
    2df0:	80 a2 60 00 	cmp  %o1, 0
    2df4:	02 80 00 17 	be  2e50 <__ajit_serial_putchar_inner__+0x64>
    2df8:	07 3f ff cc 	sethi  %hi(0xffff3000), %g3
    2dfc:	82 10 e2 40 	or  %g3, 0x240, %g1	! ffff3240 <ajit_global_interrupt_handlers+0xfffe3f98>
    2e00:	86 10 e2 44 	or  %g3, 0x244, %g3
    2e04:	80 a0 a0 00 	cmp  %g2, 0
    2e08:	02 80 00 0f 	be  2e44 <__ajit_serial_putchar_inner__+0x58>
    2e0c:	01 00 00 00 	nop 
    2e10:	c2 00 40 00 	ld  [ %g1 ], %g1
    2e14:	80 88 60 01 	btst  1, %g1
    2e18:	02 80 00 09 	be  2e3c <__ajit_serial_putchar_inner__+0x50>
    2e1c:	90 10 20 00 	clr  %o0
    2e20:	80 88 60 08 	btst  8, %g1
    2e24:	12 80 00 06 	bne  2e3c <__ajit_serial_putchar_inner__+0x50>
    2e28:	80 a0 a0 00 	cmp  %g2, 0
    2e2c:	32 80 00 0c 	bne,a   2e5c <__ajit_serial_putchar_inner__+0x70>
    2e30:	d4 28 c0 00 	stb  %o2, [ %g3 ]
    2e34:	d4 a8 c4 00 	stba  %o2, [ %g3 ] #ASI_SCRATCHPAD
    2e38:	90 10 20 01 	mov  1, %o0
    2e3c:	81 c3 e0 08 	retl 
    2e40:	01 00 00 00 	nop 
    2e44:	c2 80 44 00 	lda  [ %g1 ] #ASI_SCRATCHPAD, %g1
    2e48:	10 bf ff f4 	b  2e18 <__ajit_serial_putchar_inner__+0x2c>
    2e4c:	80 88 60 01 	btst  1, %g1
    2e50:	82 10 e2 00 	or  %g3, 0x200, %g1
    2e54:	10 bf ff ec 	b  2e04 <__ajit_serial_putchar_inner__+0x18>
    2e58:	86 10 e2 04 	or  %g3, 0x204, %g3
    2e5c:	81 c3 e0 08 	retl 
    2e60:	90 10 20 01 	mov  1, %o0

00002e64 <__ajit_serial_putchar_via_vmap__>:
    2e64:	94 10 00 08 	mov  %o0, %o2
    2e68:	92 10 20 00 	clr  %o1
    2e6c:	90 10 20 01 	mov  1, %o0
    2e70:	82 13 c0 00 	mov  %o7, %g1
    2e74:	7f ff ff de 	call  2dec <__ajit_serial_putchar_inner__>
    2e78:	9e 10 40 00 	mov  %g1, %o7

00002e7c <__ajit_serial_putchar_via_bypass__>:
    2e7c:	94 10 00 08 	mov  %o0, %o2
    2e80:	92 10 20 00 	clr  %o1
    2e84:	90 10 20 00 	clr  %o0
    2e88:	82 13 c0 00 	mov  %o7, %g1
    2e8c:	7f ff ff d8 	call  2dec <__ajit_serial_putchar_inner__>
    2e90:	9e 10 40 00 	mov  %g1, %o7

00002e94 <__ajit_serial_getchar_inner__>:
    2e94:	80 a2 60 00 	cmp  %o1, 0
    2e98:	02 80 00 0f 	be  2ed4 <__ajit_serial_getchar_inner__+0x40>
    2e9c:	05 3f ff cc 	sethi  %hi(0xffff3000), %g2
    2ea0:	82 10 a2 40 	or  %g2, 0x240, %g1	! ffff3240 <ajit_global_interrupt_handlers+0xfffe3f98>
    2ea4:	80 a2 20 00 	cmp  %o0, 0
    2ea8:	02 80 00 0f 	be  2ee4 <__ajit_serial_getchar_inner__+0x50>
    2eac:	84 10 a2 48 	or  %g2, 0x248, %g2
    2eb0:	c2 00 40 00 	ld  [ %g1 ], %g1
    2eb4:	82 08 60 12 	and  %g1, 0x12, %g1
    2eb8:	80 a0 60 12 	cmp  %g1, 0x12
    2ebc:	12 80 00 13 	bne  2f08 <__ajit_serial_getchar_inner__+0x74>
    2ec0:	01 00 00 00 	nop 
    2ec4:	c2 08 80 00 	ldub  [ %g2 ], %g1
    2ec8:	90 10 20 01 	mov  1, %o0
    2ecc:	81 c3 e0 08 	retl 
    2ed0:	c2 2a 80 00 	stb  %g1, [ %o2 ]
    2ed4:	82 10 a2 00 	or  %g2, 0x200, %g1
    2ed8:	80 a2 20 00 	cmp  %o0, 0
    2edc:	12 bf ff f5 	bne  2eb0 <__ajit_serial_getchar_inner__+0x1c>
    2ee0:	84 10 a2 08 	or  %g2, 0x208, %g2
    2ee4:	c2 80 44 00 	lda  [ %g1 ] #ASI_SCRATCHPAD, %g1
    2ee8:	82 08 60 12 	and  %g1, 0x12, %g1
    2eec:	80 a0 60 12 	cmp  %g1, 0x12
    2ef0:	12 80 00 06 	bne  2f08 <__ajit_serial_getchar_inner__+0x74>
    2ef4:	01 00 00 00 	nop 
    2ef8:	c4 88 84 00 	lduba  [ %g2 ] #ASI_SCRATCHPAD, %g2
    2efc:	90 10 20 01 	mov  1, %o0
    2f00:	81 c3 e0 08 	retl 
    2f04:	c4 2a 80 00 	stb  %g2, [ %o2 ]
    2f08:	81 c3 e0 08 	retl 
    2f0c:	90 10 20 00 	clr  %o0

00002f10 <__ajit_serial_getchar_via_vmap__>:
    2f10:	9d e3 bf 98 	save  %sp, -104, %sp
    2f14:	90 10 20 01 	mov  1, %o0
    2f18:	92 10 20 00 	clr  %o1
    2f1c:	7f ff ff de 	call  2e94 <__ajit_serial_getchar_inner__>
    2f20:	94 07 bf ff 	add  %fp, -1, %o2
    2f24:	80 a2 20 00 	cmp  %o0, 0
    2f28:	22 bf ff fc 	be,a   2f18 <__ajit_serial_getchar_via_vmap__+0x8>
    2f2c:	90 10 20 01 	mov  1, %o0
    2f30:	f0 4f bf ff 	ldsb  [ %fp + -1 ], %i0
    2f34:	81 c7 e0 08 	ret 
    2f38:	81 e8 00 00 	restore 

00002f3c <__ajit_serial_getchar_via_bypass__>:
    2f3c:	9d e3 bf 98 	save  %sp, -104, %sp
    2f40:	90 10 20 00 	clr  %o0
    2f44:	92 10 20 00 	clr  %o1
    2f48:	7f ff ff d3 	call  2e94 <__ajit_serial_getchar_inner__>
    2f4c:	94 07 bf ff 	add  %fp, -1, %o2
    2f50:	80 a2 20 00 	cmp  %o0, 0
    2f54:	22 bf ff fc 	be,a   2f44 <__ajit_serial_getchar_via_bypass__+0x8>
    2f58:	90 10 20 00 	clr  %o0
    2f5c:	f0 4f bf ff 	ldsb  [ %fp + -1 ], %i0
    2f60:	81 c7 e0 08 	ret 
    2f64:	81 e8 00 00 	restore 

00002f68 <__ajit_serial_puts_inner__>:
    2f68:	9d e3 bf a0 	save  %sp, -96, %sp
    2f6c:	80 a6 e0 00 	cmp  %i3, 0
    2f70:	02 80 00 1a 	be  2fd8 <__ajit_serial_puts_inner__+0x70>
    2f74:	01 00 00 00 	nop 
    2f78:	d4 0e 80 00 	ldub  [ %i2 ], %o2
    2f7c:	95 2a a0 18 	sll  %o2, 0x18, %o2
    2f80:	80 a2 a0 00 	cmp  %o2, 0
    2f84:	02 80 00 15 	be  2fd8 <__ajit_serial_puts_inner__+0x70>
    2f88:	ba 06 a0 01 	add  %i2, 1, %i5
    2f8c:	10 80 00 03 	b  2f98 <__ajit_serial_puts_inner__+0x30>
    2f90:	b8 06 80 1b 	add  %i2, %i3, %i4
    2f94:	95 2a a0 18 	sll  %o2, 0x18, %o2
    2f98:	95 3a a0 18 	sra  %o2, 0x18, %o2
    2f9c:	90 10 00 18 	mov  %i0, %o0
    2fa0:	7f ff ff 93 	call  2dec <__ajit_serial_putchar_inner__>
    2fa4:	92 10 00 19 	mov  %i1, %o1
    2fa8:	80 a2 20 00 	cmp  %o0, 0
    2fac:	22 bf ff fa 	be,a   2f94 <__ajit_serial_puts_inner__+0x2c>
    2fb0:	d4 0e 80 00 	ldub  [ %i2 ], %o2
    2fb4:	80 a7 40 1c 	cmp  %i5, %i4
    2fb8:	02 80 00 08 	be  2fd8 <__ajit_serial_puts_inner__+0x70>
    2fbc:	b4 10 00 1d 	mov  %i5, %i2
    2fc0:	ba 07 60 01 	inc  %i5
    2fc4:	d4 0f 7f ff 	ldub  [ %i5 + -1 ], %o2
    2fc8:	95 2a a0 18 	sll  %o2, 0x18, %o2
    2fcc:	80 a2 a0 00 	cmp  %o2, 0
    2fd0:	12 bf ff f3 	bne  2f9c <__ajit_serial_puts_inner__+0x34>
    2fd4:	95 3a a0 18 	sra  %o2, 0x18, %o2
    2fd8:	81 c7 e0 08 	ret 
    2fdc:	81 e8 00 00 	restore 

00002fe0 <__ajit_serial_puts_via_vmap__>:
    2fe0:	94 10 00 08 	mov  %o0, %o2
    2fe4:	96 10 00 09 	mov  %o1, %o3
    2fe8:	90 10 20 01 	mov  1, %o0
    2fec:	92 10 20 00 	clr  %o1
    2ff0:	82 13 c0 00 	mov  %o7, %g1
    2ff4:	7f ff ff dd 	call  2f68 <__ajit_serial_puts_inner__>
    2ff8:	9e 10 40 00 	mov  %g1, %o7

00002ffc <__ajit_serial_puts_via_bypass__>:
    2ffc:	94 10 00 08 	mov  %o0, %o2
    3000:	96 10 00 09 	mov  %o1, %o3
    3004:	90 10 20 00 	clr  %o0
    3008:	92 10 20 00 	clr  %o1
    300c:	82 13 c0 00 	mov  %o7, %g1
    3010:	7f ff ff d6 	call  2f68 <__ajit_serial_puts_inner__>
    3014:	9e 10 40 00 	mov  %g1, %o7

00003018 <__ajit_serial_gets_inner__>:
    3018:	9d e3 bf 98 	save  %sp, -104, %sp
    301c:	80 a6 e0 01 	cmp  %i3, 1
    3020:	22 80 00 18 	be,a   3080 <__ajit_serial_gets_inner__+0x68>
    3024:	b6 06 80 1b 	add  %i2, %i3, %i3
    3028:	a0 06 ff ff 	add  %i3, -1, %l0
    302c:	b8 10 20 00 	clr  %i4
    3030:	ba 10 20 00 	clr  %i5
    3034:	c0 2f bf ff 	clrb  [ %fp + -1 ]
    3038:	90 10 00 18 	mov  %i0, %o0
    303c:	92 10 00 19 	mov  %i1, %o1
    3040:	7f ff ff 95 	call  2e94 <__ajit_serial_getchar_inner__>
    3044:	94 07 bf ff 	add  %fp, -1, %o2
    3048:	80 a2 20 00 	cmp  %o0, 0
    304c:	22 bf ff fc 	be,a   303c <__ajit_serial_gets_inner__+0x24>
    3050:	90 10 00 18 	mov  %i0, %o0
    3054:	c2 0f bf ff 	ldub  [ %fp + -1 ], %g1
    3058:	c2 2e 80 1c 	stb  %g1, [ %i2 + %i4 ]
    305c:	83 28 60 18 	sll  %g1, 0x18, %g1
    3060:	80 a0 60 00 	cmp  %g1, 0
    3064:	22 80 00 07 	be,a   3080 <__ajit_serial_gets_inner__+0x68>
    3068:	b6 06 80 1b 	add  %i2, %i3, %i3
    306c:	ba 07 60 01 	inc  %i5
    3070:	80 a7 40 10 	cmp  %i5, %l0
    3074:	12 bf ff f0 	bne  3034 <__ajit_serial_gets_inner__+0x1c>
    3078:	b8 10 00 1d 	mov  %i5, %i4
    307c:	b6 06 80 1b 	add  %i2, %i3, %i3
    3080:	c0 2e ff ff 	clrb  [ %i3 + -1 ]
    3084:	81 c7 e0 08 	ret 
    3088:	81 e8 00 00 	restore 

0000308c <__ajit_serial_gets_via_vmap__>:
    308c:	94 10 00 08 	mov  %o0, %o2
    3090:	96 10 00 09 	mov  %o1, %o3
    3094:	90 10 20 01 	mov  1, %o0
    3098:	92 10 20 00 	clr  %o1
    309c:	82 13 c0 00 	mov  %o7, %g1
    30a0:	7f ff ff de 	call  3018 <__ajit_serial_gets_inner__>
    30a4:	9e 10 40 00 	mov  %g1, %o7

000030a8 <__ajit_serial_gets_via_bypass__>:
    30a8:	94 10 00 08 	mov  %o0, %o2
    30ac:	96 10 00 09 	mov  %o1, %o3
    30b0:	90 10 20 00 	clr  %o0
    30b4:	92 10 20 00 	clr  %o1
    30b8:	82 13 c0 00 	mov  %o7, %g1
    30bc:	7f ff ff d7 	call  3018 <__ajit_serial_gets_inner__>
    30c0:	9e 10 40 00 	mov  %g1, %o7

000030c4 <__ajit_serial_set_uart_reset_inner__>:
    30c4:	05 3f ff cc 	sethi  %hi(0xffff3000), %g2
    30c8:	80 a2 60 00 	cmp  %o1, 0
    30cc:	12 80 00 03 	bne  30d8 <__ajit_serial_set_uart_reset_inner__+0x14>
    30d0:	82 10 a2 40 	or  %g2, 0x240, %g1
    30d4:	82 10 a2 00 	or  %g2, 0x200, %g1
    30d8:	80 a2 20 00 	cmp  %o0, 0
    30dc:	02 80 00 0d 	be  3110 <__ajit_serial_set_uart_reset_inner__+0x4c>
    30e0:	01 00 00 00 	nop 
    30e4:	c6 00 40 00 	ld  [ %g1 ], %g3
    30e8:	80 a2 a0 00 	cmp  %o2, 0
    30ec:	12 80 00 03 	bne  30f8 <__ajit_serial_set_uart_reset_inner__+0x34>
    30f0:	84 10 e0 20 	or  %g3, 0x20, %g2
    30f4:	84 08 ff df 	and  %g3, -33, %g2
    30f8:	80 a2 20 00 	cmp  %o0, 0
    30fc:	12 80 00 08 	bne  311c <__ajit_serial_set_uart_reset_inner__+0x58>
    3100:	01 00 00 00 	nop 
    3104:	c4 a0 44 00 	sta  %g2, [ %g1 ] #ASI_SCRATCHPAD
    3108:	81 c3 e0 08 	retl 
    310c:	01 00 00 00 	nop 
    3110:	c6 80 44 00 	lda  [ %g1 ] #ASI_SCRATCHPAD, %g3
    3114:	10 bf ff f6 	b  30ec <__ajit_serial_set_uart_reset_inner__+0x28>
    3118:	80 a2 a0 00 	cmp  %o2, 0
    311c:	81 c3 e0 08 	retl 
    3120:	c4 20 40 00 	st  %g2, [ %g1 ]

00003124 <__ajit_serial_set_uart_reset_via_vmap__>:
    3124:	94 10 00 08 	mov  %o0, %o2
    3128:	92 10 20 00 	clr  %o1
    312c:	90 10 20 01 	mov  1, %o0
    3130:	82 13 c0 00 	mov  %o7, %g1
    3134:	7f ff ff e4 	call  30c4 <__ajit_serial_set_uart_reset_inner__>
    3138:	9e 10 40 00 	mov  %g1, %o7

0000313c <__ajit_serial_set_uart_reset_via_bypass__>:
    313c:	94 10 00 08 	mov  %o0, %o2
    3140:	92 10 20 00 	clr  %o1
    3144:	90 10 20 00 	clr  %o0
    3148:	82 13 c0 00 	mov  %o7, %g1
    314c:	7f ff ff de 	call  30c4 <__ajit_serial_set_uart_reset_inner__>
    3150:	9e 10 40 00 	mov  %g1, %o7

00003154 <__ajit_write_irc_control_register_via_bypass__>:
    3154:	03 3f ff cc 	sethi  %hi(0xffff3000), %g1
    3158:	d0 a0 44 00 	sta  %o0, [ %g1 ] #ASI_SCRATCHPAD
    315c:	81 c3 e0 08 	retl 
    3160:	01 00 00 00 	nop 

00003164 <__ajit_read_irc_control_register_via_bypass__>:
    3164:	11 3f ff cc 	sethi  %hi(0xffff3000), %o0
    3168:	d0 82 04 00 	lda  [ %o0 ] #ASI_SCRATCHPAD, %o0
    316c:	81 c3 e0 08 	retl 
    3170:	01 00 00 00 	nop 

00003174 <__ajit_write_irc_control_register_via_vmap__>:
    3174:	03 3f ff cc 	sethi  %hi(0xffff3000), %g1
    3178:	81 c3 e0 08 	retl 
    317c:	d0 20 40 00 	st  %o0, [ %g1 ]

00003180 <__ajit_read_irc_control_register_via_vmap__>:
    3180:	03 3f ff cc 	sethi  %hi(0xffff3000), %g1
    3184:	81 c3 e0 08 	retl 
    3188:	d0 00 40 00 	ld  [ %g1 ], %o0

0000318c <__ajit_write_spi_master_register_via_bypass__>:
    318c:	91 2a 20 02 	sll  %o0, 2, %o0
    3190:	03 3f ff cc 	sethi  %hi(0xffff3000), %g1
    3194:	82 10 63 00 	or  %g1, 0x300, %g1	! ffff3300 <ajit_global_interrupt_handlers+0xfffe4058>
    3198:	90 02 00 01 	add  %o0, %g1, %o0
    319c:	d2 a2 04 00 	sta  %o1, [ %o0 ] #ASI_SCRATCHPAD
    31a0:	81 c3 e0 08 	retl 
    31a4:	01 00 00 00 	nop 

000031a8 <__ajit_write_spi_master_register_via_vmap__>:
    31a8:	91 2a 20 02 	sll  %o0, 2, %o0
    31ac:	03 3f ff cc 	sethi  %hi(0xffff3000), %g1
    31b0:	82 10 63 00 	or  %g1, 0x300, %g1	! ffff3300 <ajit_global_interrupt_handlers+0xfffe4058>
    31b4:	81 c3 e0 08 	retl 
    31b8:	d2 2a 00 01 	stb  %o1, [ %o0 + %g1 ]

000031bc <__ajit_read_spi_master_register_via_bypass__>:
    31bc:	91 2a 20 02 	sll  %o0, 2, %o0
    31c0:	03 3f ff cc 	sethi  %hi(0xffff3000), %g1
    31c4:	82 10 63 00 	or  %g1, 0x300, %g1	! ffff3300 <ajit_global_interrupt_handlers+0xfffe4058>
    31c8:	90 02 00 01 	add  %o0, %g1, %o0
    31cc:	d0 82 04 00 	lda  [ %o0 ] #ASI_SCRATCHPAD, %o0
    31d0:	81 c3 e0 08 	retl 
    31d4:	90 0a 20 ff 	and  %o0, 0xff, %o0

000031d8 <__ajit_read_spi_master_register_via_vmap__>:
    31d8:	91 2a 20 02 	sll  %o0, 2, %o0
    31dc:	03 3f ff cc 	sethi  %hi(0xffff3000), %g1
    31e0:	82 10 63 00 	or  %g1, 0x300, %g1	! ffff3300 <ajit_global_interrupt_handlers+0xfffe4058>
    31e4:	81 c3 e0 08 	retl 
    31e8:	d0 0a 00 01 	ldub  [ %o0 + %g1 ], %o0

000031ec <__ajit_do_spi_transfer_via_bypass__>:
    31ec:	07 3f ff cc 	sethi  %hi(0xffff3000), %g3
    31f0:	82 10 e3 00 	or  %g3, 0x300, %g1	! ffff3300 <ajit_global_interrupt_handlers+0xfffe4058>
    31f4:	d2 a0 44 00 	sta  %o1, [ %g1 ] #ASI_SCRATCHPAD
    31f8:	82 0a 20 07 	and  %o0, 7, %g1
    31fc:	94 0a a0 01 	and  %o2, 1, %o2
    3200:	83 28 60 03 	sll  %g1, 3, %g1
    3204:	94 02 80 0a 	add  %o2, %o2, %o2
    3208:	82 10 60 01 	or  %g1, 1, %g1
    320c:	86 10 e3 08 	or  %g3, 0x308, %g3
    3210:	94 12 80 01 	or  %o2, %g1, %o2
    3214:	d4 a0 c4 00 	sta  %o2, [ %g3 ] #ASI_SCRATCHPAD
    3218:	10 80 00 04 	b  3228 <__ajit_do_spi_transfer_via_bypass__+0x3c>
    321c:	03 00 00 08 	sethi  %hi(0x2000), %g1
    3220:	02 80 00 07 	be  323c <__ajit_do_spi_transfer_via_bypass__+0x50>
    3224:	11 3f ff cc 	sethi  %hi(0xffff3000), %o0
    3228:	c4 80 c4 00 	lda  [ %g3 ] #ASI_SCRATCHPAD, %g2
    322c:	80 88 a0 01 	btst  1, %g2
    3230:	32 bf ff fc 	bne,a   3220 <__ajit_do_spi_transfer_via_bypass__+0x34>
    3234:	82 80 7f ff 	addcc  %g1, -1, %g1
    3238:	11 3f ff cc 	sethi  %hi(0xffff3000), %o0
    323c:	90 12 23 00 	or  %o0, 0x300, %o0	! ffff3300 <ajit_global_interrupt_handlers+0xfffe4058>
    3240:	d0 82 04 00 	lda  [ %o0 ] #ASI_SCRATCHPAD, %o0
    3244:	81 c3 e0 08 	retl 
    3248:	90 0a 20 ff 	and  %o0, 0xff, %o0

0000324c <__ajit_do_spi_transfer_via_vmap__>:
    324c:	03 3f ff cc 	sethi  %hi(0xffff3000), %g1
    3250:	90 0a 20 07 	and  %o0, 7, %o0
    3254:	84 10 63 00 	or  %g1, 0x300, %g2
    3258:	91 2a 20 03 	sll  %o0, 3, %o0
    325c:	d2 20 80 00 	st  %o1, [ %g2 ]
    3260:	90 12 20 01 	or  %o0, 1, %o0
    3264:	82 10 63 08 	or  %g1, 0x308, %g1
    3268:	94 0a a0 01 	and  %o2, 1, %o2
    326c:	94 02 80 0a 	add  %o2, %o2, %o2
    3270:	94 12 80 08 	or  %o2, %o0, %o2
    3274:	90 10 00 09 	mov  %o1, %o0
    3278:	81 c3 e0 08 	retl 
    327c:	d4 20 40 00 	st  %o2, [ %g1 ]

00003280 <__ajit_configure_spi_master_via_bypass___>:
    3280:	90 0a 20 0f 	and  %o0, 0xf, %o0
    3284:	03 3f ff cc 	sethi  %hi(0xffff3000), %g1
    3288:	90 12 20 10 	or  %o0, 0x10, %o0
    328c:	82 10 63 0c 	or  %g1, 0x30c, %g1
    3290:	d0 a0 44 00 	sta  %o0, [ %g1 ] #ASI_SCRATCHPAD
    3294:	81 c3 e0 08 	retl 
    3298:	01 00 00 00 	nop 

0000329c <__ajit_configure_spi_master_via_vmap___>:
    329c:	90 0a 20 0f 	and  %o0, 0xf, %o0
    32a0:	05 3f ff cc 	sethi  %hi(0xffff3000), %g2
    32a4:	82 12 20 10 	or  %o0, 0x10, %g1
    32a8:	84 10 a3 0c 	or  %g2, 0x30c, %g2
    32ac:	81 c3 e0 08 	retl 
    32b0:	c2 20 80 00 	st  %g1, [ %g2 ]

000032b4 <__ajit_do_spi_transfer_inner__>:
    32b4:	92 0a 60 07 	and  %o1, 7, %o1
    32b8:	83 2a 60 03 	sll  %o1, 3, %g1
    32bc:	82 10 60 01 	or  %g1, 1, %g1
    32c0:	96 0a e0 01 	and  %o3, 1, %o3
    32c4:	80 a2 20 00 	cmp  %o0, 0
    32c8:	96 02 c0 0b 	add  %o3, %o3, %o3
    32cc:	96 12 c0 01 	or  %o3, %g1, %o3
    32d0:	02 80 00 20 	be  3350 <__ajit_do_spi_transfer_inner__+0x9c>
    32d4:	03 3f ff cc 	sethi  %hi(0xffff3000), %g1
    32d8:	84 10 63 00 	or  %g1, 0x300, %g2	! ffff3300 <ajit_global_interrupt_handlers+0xfffe4058>
    32dc:	d4 20 80 00 	st  %o2, [ %g2 ]
    32e0:	96 0a e0 ff 	and  %o3, 0xff, %o3
    32e4:	82 10 63 08 	or  %g1, 0x308, %g1
    32e8:	d6 20 40 00 	st  %o3, [ %g1 ]
    32ec:	07 3f ff cc 	sethi  %hi(0xffff3000), %g3
    32f0:	03 00 00 08 	sethi  %hi(0x2000), %g1
    32f4:	10 80 00 08 	b  3314 <__ajit_do_spi_transfer_inner__+0x60>
    32f8:	86 10 e3 08 	or  %g3, 0x308, %g3
    32fc:	80 88 a0 01 	btst  1, %g2
    3300:	02 80 00 0d 	be  3334 <__ajit_do_spi_transfer_inner__+0x80>
    3304:	80 a2 20 00 	cmp  %o0, 0
    3308:	82 80 7f ff 	addcc  %g1, -1, %g1
    330c:	02 80 00 0a 	be  3334 <__ajit_do_spi_transfer_inner__+0x80>
    3310:	80 a2 20 00 	cmp  %o0, 0
    3314:	80 a2 20 00 	cmp  %o0, 0
    3318:	32 bf ff f9 	bne,a   32fc <__ajit_do_spi_transfer_inner__+0x48>
    331c:	c4 00 c0 00 	ld  [ %g3 ], %g2
    3320:	c4 80 c4 00 	lda  [ %g3 ] #ASI_SCRATCHPAD, %g2
    3324:	80 88 a0 01 	btst  1, %g2
    3328:	32 bf ff f9 	bne,a   330c <__ajit_do_spi_transfer_inner__+0x58>
    332c:	82 80 7f ff 	addcc  %g1, -1, %g1
    3330:	80 a2 20 00 	cmp  %o0, 0
    3334:	32 80 00 0d 	bne,a   3368 <__ajit_do_spi_transfer_inner__+0xb4>
    3338:	03 3f ff cc 	sethi  %hi(0xffff3000), %g1
    333c:	11 3f ff cc 	sethi  %hi(0xffff3000), %o0
    3340:	90 12 23 00 	or  %o0, 0x300, %o0	! ffff3300 <ajit_global_interrupt_handlers+0xfffe4058>
    3344:	d0 82 04 00 	lda  [ %o0 ] #ASI_SCRATCHPAD, %o0
    3348:	81 c3 e0 08 	retl 
    334c:	90 0a 20 ff 	and  %o0, 0xff, %o0
    3350:	84 10 63 00 	or  %g1, 0x300, %g2
    3354:	d4 a0 84 00 	sta  %o2, [ %g2 ] #ASI_SCRATCHPAD
    3358:	82 10 63 08 	or  %g1, 0x308, %g1
    335c:	d6 a0 44 00 	sta  %o3, [ %g1 ] #ASI_SCRATCHPAD
    3360:	10 bf ff e4 	b  32f0 <__ajit_do_spi_transfer_inner__+0x3c>
    3364:	07 3f ff cc 	sethi  %hi(0xffff3000), %g3
    3368:	82 10 63 00 	or  %g1, 0x300, %g1
    336c:	d0 00 40 00 	ld  [ %g1 ], %o0
    3370:	81 c3 e0 08 	retl 
    3374:	90 0a 20 ff 	and  %o0, 0xff, %o0

00003378 <__ajit_gpio_xfer__>:
    3378:	09 3f ff cc 	sethi  %hi(0xffff3000), %g4
    337c:	82 11 23 00 	or  %g4, 0x300, %g1	! ffff3300 <ajit_global_interrupt_handlers+0xfffe4058>
    3380:	d2 a0 44 00 	sta  %o1, [ %g1 ] #ASI_SCRATCHPAD
    3384:	90 0a 20 07 	and  %o0, 7, %o0
    3388:	88 11 23 08 	or  %g4, 0x308, %g4
    338c:	91 2a 20 03 	sll  %o0, 3, %o0
    3390:	90 12 20 03 	or  %o0, 3, %o0
    3394:	d0 a1 04 00 	sta  %o0, [ %g4 ] #ASI_SCRATCHPAD
    3398:	82 10 21 00 	mov  0x100, %g1
    339c:	c4 81 04 00 	lda  [ %g4 ] #ASI_SCRATCHPAD, %g2
    33a0:	82 00 7f ff 	add  %g1, -1, %g1
    33a4:	87 38 60 1f 	sra  %g1, 0x1f, %g3
    33a8:	86 20 c0 01 	sub  %g3, %g1, %g3
    33ac:	87 30 e0 1f 	srl  %g3, 0x1f, %g3
    33b0:	80 88 c0 02 	btst  %g3, %g2
    33b4:	12 bf ff fa 	bne  339c <__ajit_gpio_xfer__+0x24>
    33b8:	11 3f ff cc 	sethi  %hi(0xffff3000), %o0
    33bc:	90 12 23 00 	or  %o0, 0x300, %o0	! ffff3300 <ajit_global_interrupt_handlers+0xfffe4058>
    33c0:	d0 82 04 00 	lda  [ %o0 ] #ASI_SCRATCHPAD, %o0
    33c4:	81 c3 e0 08 	retl 
    33c8:	90 0a 20 ff 	and  %o0, 0xff, %o0

000033cc <__ajit_read_gpio_32_via_vmap__>:
    33cc:	03 3f ff cd 	sethi  %hi(0xffff3400), %g1
    33d0:	82 10 60 04 	or  %g1, 4, %g1	! ffff3404 <ajit_global_interrupt_handlers+0xfffe415c>
    33d4:	81 c3 e0 08 	retl 
    33d8:	d0 00 40 00 	ld  [ %g1 ], %o0

000033dc <__ajit_write_gpio_32_via_vmap__>:
    33dc:	03 3f ff cd 	sethi  %hi(0xffff3400), %g1
    33e0:	81 c3 e0 08 	retl 
    33e4:	d0 20 40 00 	st  %o0, [ %g1 ]

000033e8 <__ajit_read_gpio_32_via_bypass__>:
    33e8:	11 3f ff cd 	sethi  %hi(0xffff3400), %o0
    33ec:	90 12 20 04 	or  %o0, 4, %o0	! ffff3404 <ajit_global_interrupt_handlers+0xfffe415c>
    33f0:	d0 82 04 00 	lda  [ %o0 ] #ASI_SCRATCHPAD, %o0
    33f4:	81 c3 e0 08 	retl 
    33f8:	01 00 00 00 	nop 

000033fc <__ajit_write_gpio_32_via_bypass__>:
    33fc:	03 3f ff cd 	sethi  %hi(0xffff3400), %g1
    3400:	d0 a0 44 00 	sta  %o0, [ %g1 ] #ASI_SCRATCHPAD
    3404:	81 c3 e0 08 	retl 
    3408:	01 00 00 00 	nop 

0000340c <__ajit_ta_0__>:
    340c:	91 d0 20 00 	ta  0
    3410:	01 00 00 00 	nop 
    3414:	01 00 00 00 	nop 
    3418:	81 c3 e0 08 	retl 
    341c:	01 00 00 00 	nop 

00003420 <__ajit_fsqrtd__>:
    3420:	c1 1a 00 00 	ldd  [ %o0 ], %f0
    3424:	85 a0 05 40 	fsqrtd  %f0, %f2
    3428:	c5 3a 40 00 	std  %f2, [ %o1 ]
    342c:	81 c3 e0 08 	retl 
    3430:	01 00 00 00 	nop 

00003434 <__ajit_fsqrts__>:
    3434:	c1 02 00 00 	ld  [ %o0 ], %f0
    3438:	83 a0 05 20 	fsqrts  %f0, %f1
    343c:	c3 22 40 00 	st  %f1, [ %o1 ]
    3440:	81 c3 e0 08 	retl 
    3444:	01 00 00 00 	nop 

00003448 <__ajit_fitod__>:
    3448:	c1 02 00 00 	ld  [ %o0 ], %f0
    344c:	85 a0 19 00 	fitod  %f0, %f2
    3450:	c5 3a 40 00 	std  %f2, [ %o1 ]
    3454:	81 c3 e0 08 	retl 
    3458:	01 00 00 00 	nop 

0000345c <__ajit_fitos__>:
    345c:	c1 02 00 00 	ld  [ %o0 ], %f0
    3460:	83 a0 18 80 	fitos  %f0, %f1
    3464:	c3 22 40 00 	st  %f1, [ %o1 ]
    3468:	81 c3 e0 08 	retl 
    346c:	01 00 00 00 	nop 

00003470 <__ajit_fdtoi__>:
    3470:	c1 1a 00 00 	ldd  [ %o0 ], %f0
    3474:	85 a0 1a 40 	fdtoi  %f0, %f2
    3478:	c5 22 40 00 	st  %f2, [ %o1 ]
    347c:	81 c3 e0 08 	retl 
    3480:	01 00 00 00 	nop 

00003484 <__ajit_fstoi__>:
    3484:	c1 02 00 00 	ld  [ %o0 ], %f0
    3488:	83 a0 1a 20 	fstoi  %f0, %f1
    348c:	c3 22 40 00 	st  %f1, [ %o1 ]
    3490:	81 c3 e0 08 	retl 
    3494:	01 00 00 00 	nop 

00003498 <readNicReg>:
    3498:	91 2a 20 02 	sll  %o0, 2, %o0
    349c:	03 00 00 39 	sethi  %hi(0xe400), %g1
    34a0:	d2 00 62 58 	ld  [ %g1 + 0x258 ], %o1	! e658 <NIC_REG>
    34a4:	92 02 40 08 	add  %o1, %o0, %o1
    34a8:	91 3a 60 1f 	sra  %o1, 0x1f, %o0
    34ac:	82 13 c0 00 	mov  %o7, %g1
    34b0:	7f ff fc d2 	call  27f8 <__ajit_load_word_from_physical_address__>
    34b4:	9e 10 40 00 	mov  %g1, %o7

000034b8 <writeNicReg>:
    34b8:	83 2a 20 02 	sll  %o0, 2, %g1
    34bc:	05 00 00 39 	sethi  %hi(0xe400), %g2
    34c0:	90 10 00 09 	mov  %o1, %o0
    34c4:	d4 00 a2 58 	ld  [ %g2 + 0x258 ], %o2
    34c8:	94 02 80 01 	add  %o2, %g1, %o2
    34cc:	93 3a a0 1f 	sra  %o2, 0x1f, %o1
    34d0:	82 13 c0 00 	mov  %o7, %g1
    34d4:	7f ff fc 90 	call  2714 <__ajit_store_word_to_physical_address__>
    34d8:	9e 10 40 00 	mov  %g1, %o7

000034dc <readMemory>:
    34dc:	9d e3 bf a0 	save  %sp, -96, %sp
    34e0:	90 10 00 18 	mov  %i0, %o0
    34e4:	92 10 00 19 	mov  %i1, %o1
    34e8:	7f ff fc c4 	call  27f8 <__ajit_load_word_from_physical_address__>
    34ec:	b4 10 00 19 	mov  %i1, %i2
    34f0:	b2 10 00 18 	mov  %i0, %i1
    34f4:	b6 10 00 18 	mov  %i0, %i3
    34f8:	b8 10 00 1a 	mov  %i2, %i4
    34fc:	31 00 00 38 	sethi  %hi(0xe000), %i0
    3500:	ba 10 00 08 	mov  %o0, %i5
    3504:	7f ff f9 34 	call  19d4 <ee_printf>
    3508:	91 ee 21 a8 	restore  %i0, 0x1a8, %o0

0000350c <printMemory>:
    350c:	9d e3 bf a0 	save  %sp, -96, %sp
    3510:	92 10 20 00 	clr  %o1
    3514:	11 00 00 38 	sethi  %hi(0xe000), %o0
    3518:	37 00 00 39 	sethi  %hi(0xe400), %i3
    351c:	90 12 21 d0 	or  %o0, 0x1d0, %o0
    3520:	39 00 00 38 	sethi  %hi(0xe000), %i4
    3524:	7f ff f9 2c 	call  19d4 <ee_printf>
    3528:	ba 10 20 00 	clr  %i5
    352c:	b6 16 e2 64 	or  %i3, 0x264, %i3
    3530:	b8 17 21 d8 	or  %i4, 0x1d8, %i4
    3534:	c2 06 c0 00 	ld  [ %i3 ], %g1
    3538:	90 10 00 1c 	mov  %i4, %o0
    353c:	92 00 40 1d 	add  %g1, %i5, %o1
    3540:	d4 00 40 1d 	ld  [ %g1 + %i5 ], %o2
    3544:	7f ff f9 24 	call  19d4 <ee_printf>
    3548:	d6 02 60 04 	ld  [ %o1 + 4 ], %o3
    354c:	ba 07 60 08 	add  %i5, 8, %i5
    3550:	80 a7 64 00 	cmp  %i5, 0x400
    3554:	32 bf ff f9 	bne,a   3538 <printMemory+0x2c>
    3558:	c2 06 c0 00 	ld  [ %i3 ], %g1
    355c:	81 c7 e0 08 	ret 
    3560:	81 e8 00 00 	restore 

00003564 <printBuffers>:
    3564:	9d e3 bf a0 	save  %sp, -96, %sp
    3568:	11 00 00 38 	sethi  %hi(0xe000), %o0
    356c:	37 00 00 39 	sethi  %hi(0xe400), %i3
    3570:	90 12 22 00 	or  %o0, 0x200, %o0
    3574:	39 00 00 38 	sethi  %hi(0xe000), %i4
    3578:	7f ff f9 17 	call  19d4 <ee_printf>
    357c:	ba 10 20 00 	clr  %i5
    3580:	b6 16 e2 60 	or  %i3, 0x260, %i3
    3584:	b8 17 22 18 	or  %i4, 0x218, %i4
    3588:	c2 06 c0 00 	ld  [ %i3 ], %g1
    358c:	84 00 40 1d 	add  %g1, %i5, %g2
    3590:	d2 00 40 1d 	ld  [ %g1 + %i5 ], %o1
    3594:	90 10 00 1c 	mov  %i4, %o0
    3598:	7f ff f9 0f 	call  19d4 <ee_printf>
    359c:	d4 00 a0 04 	ld  [ %g2 + 4 ], %o2
    35a0:	ba 07 60 08 	add  %i5, 8, %i5
    35a4:	80 a7 60 58 	cmp  %i5, 0x58
    35a8:	32 bf ff f9 	bne,a   358c <printBuffers+0x28>
    35ac:	c2 06 c0 00 	ld  [ %i3 ], %g1
    35b0:	31 00 00 39 	sethi  %hi(0xe400), %i0
    35b4:	7f ff f9 08 	call  19d4 <ee_printf>
    35b8:	90 16 21 c0 	or  %i0, 0x1c0, %o0	! e5c0 <__clz_tab+0x5c0>
    35bc:	11 00 00 38 	sethi  %hi(0xe000), %o0
    35c0:	37 00 00 39 	sethi  %hi(0xe400), %i3
    35c4:	90 12 22 28 	or  %o0, 0x228, %o0
    35c8:	7f ff f9 03 	call  19d4 <ee_printf>
    35cc:	ba 10 20 00 	clr  %i5
    35d0:	b6 16 e2 5c 	or  %i3, 0x25c, %i3
    35d4:	c2 06 c0 00 	ld  [ %i3 ], %g1
    35d8:	84 00 40 1d 	add  %g1, %i5, %g2
    35dc:	d2 00 40 1d 	ld  [ %g1 + %i5 ], %o1
    35e0:	90 10 00 1c 	mov  %i4, %o0
    35e4:	7f ff f8 fc 	call  19d4 <ee_printf>
    35e8:	d4 00 a0 04 	ld  [ %g2 + 4 ], %o2
    35ec:	ba 07 60 08 	add  %i5, 8, %i5
    35f0:	80 a7 60 58 	cmp  %i5, 0x58
    35f4:	32 bf ff f9 	bne,a   35d8 <printBuffers+0x74>
    35f8:	c2 06 c0 00 	ld  [ %i3 ], %g1
    35fc:	7f ff f8 f6 	call  19d4 <ee_printf>
    3600:	91 ee 21 c0 	restore  %i0, 0x1c0, %o0

00003604 <initBufferQueue>:
    3604:	c0 22 00 00 	clr  [ %o0 ]
    3608:	c0 22 20 0c 	clr  [ %o0 + 0xc ]
    360c:	c0 22 20 08 	clr  [ %o0 + 8 ]
    3610:	81 c3 e0 08 	retl 
    3614:	d2 22 20 04 	st  %o1, [ %o0 + 4 ]

00003618 <acquireMutex>:
    3618:	9d e3 bf a0 	save  %sp, -96, %sp
    361c:	3b 00 00 38 	sethi  %hi(0xe000), %i5
    3620:	c2 06 00 00 	ld  [ %i0 ], %g1
    3624:	80 a0 60 01 	cmp  %g1, 1
    3628:	12 80 00 08 	bne  3648 <acquireMutex+0x30>
    362c:	ba 17 62 40 	or  %i5, 0x240, %i5
    3630:	7f ff f8 e9 	call  19d4 <ee_printf>
    3634:	90 10 00 1d 	mov  %i5, %o0
    3638:	c2 06 00 00 	ld  [ %i0 ], %g1
    363c:	80 a0 60 01 	cmp  %g1, 1
    3640:	02 bf ff fc 	be  3630 <acquireMutex+0x18>
    3644:	01 00 00 00 	nop 
    3648:	82 10 20 01 	mov  1, %g1	! 1 <_start+0x1>
    364c:	c2 26 00 00 	st  %g1, [ %i0 ]
    3650:	81 c7 e0 08 	ret 
    3654:	81 e8 00 00 	restore 

00003658 <releaseMutex>:
    3658:	81 c3 e0 08 	retl 
    365c:	c0 22 00 00 	clr  [ %o0 ]

00003660 <pushIntoBufferQueue>:
    3660:	9d e3 bf a0 	save  %sp, -96, %sp
    3664:	7f ff ff ed 	call  3618 <acquireMutex>
    3668:	90 10 00 18 	mov  %i0, %o0
    366c:	c4 06 20 08 	ld  [ %i0 + 8 ], %g2
    3670:	88 00 a0 01 	add  %g2, 1, %g4
    3674:	c2 06 20 04 	ld  [ %i0 + 4 ], %g1
    3678:	c6 06 20 0c 	ld  [ %i0 + 0xc ], %g3
    367c:	82 00 7f ff 	add  %g1, -1, %g1
    3680:	ba 10 00 18 	mov  %i0, %i5
    3684:	82 08 40 04 	and  %g1, %g4, %g1
    3688:	80 a0 c0 01 	cmp  %g3, %g1
    368c:	02 80 00 08 	be  36ac <pushIntoBufferQueue+0x4c>
    3690:	88 06 20 10 	add  %i0, 0x10, %g4
    3694:	85 28 a0 02 	sll  %g2, 2, %g2
    3698:	f2 21 00 02 	st  %i1, [ %g4 + %g2 ]
    369c:	c2 26 20 08 	st  %g1, [ %i0 + 8 ]
    36a0:	c0 27 40 00 	clr  [ %i5 ]
    36a4:	81 c7 e0 08 	ret 
    36a8:	91 e8 20 00 	restore  %g0, 0, %o0
    36ac:	11 00 00 38 	sethi  %hi(0xe000), %o0
    36b0:	b0 10 20 01 	mov  1, %i0
    36b4:	7f ff f8 c8 	call  19d4 <ee_printf>
    36b8:	90 12 22 58 	or  %o0, 0x258, %o0
    36bc:	c0 27 40 00 	clr  [ %i5 ]
    36c0:	81 c7 e0 08 	ret 
    36c4:	81 e8 00 00 	restore 

000036c8 <popFromBufferQueue>:
    36c8:	9d e3 bf a0 	save  %sp, -96, %sp
    36cc:	7f ff ff d3 	call  3618 <acquireMutex>
    36d0:	90 10 00 18 	mov  %i0, %o0
    36d4:	c2 06 20 0c 	ld  [ %i0 + 0xc ], %g1
    36d8:	c4 06 20 08 	ld  [ %i0 + 8 ], %g2
    36dc:	ba 10 00 18 	mov  %i0, %i5
    36e0:	80 a0 80 01 	cmp  %g2, %g1
    36e4:	02 80 00 0e 	be  371c <popFromBufferQueue+0x54>
    36e8:	86 06 20 10 	add  %i0, 0x10, %g3
    36ec:	83 28 60 02 	sll  %g1, 2, %g1
    36f0:	c2 00 c0 01 	ld  [ %g3 + %g1 ], %g1
    36f4:	c2 26 40 00 	st  %g1, [ %i1 ]
    36f8:	c4 07 60 0c 	ld  [ %i5 + 0xc ], %g2
    36fc:	c2 07 60 04 	ld  [ %i5 + 4 ], %g1
    3700:	84 00 a0 01 	inc  %g2
    3704:	82 00 7f ff 	add  %g1, -1, %g1
    3708:	c0 27 40 00 	clr  [ %i5 ]
    370c:	82 08 40 02 	and  %g1, %g2, %g1
    3710:	c2 27 60 0c 	st  %g1, [ %i5 + 0xc ]
    3714:	81 c7 e0 08 	ret 
    3718:	91 e8 20 00 	restore  %g0, 0, %o0
    371c:	c0 27 40 00 	clr  [ %i5 ]
    3720:	81 c7 e0 08 	ret 
    3724:	91 e8 20 01 	restore  %g0, 1, %o0

00003728 <nicRegConfig>:
    3728:	9d e3 bf a0 	save  %sp, -96, %sp
    372c:	7f ff ff 5b 	call  3498 <readNicReg>
    3730:	90 10 20 16 	mov  0x16, %o0
    3734:	92 10 00 08 	mov  %o0, %o1
    3738:	11 00 00 38 	sethi  %hi(0xe000), %o0
    373c:	7f ff f8 a6 	call  19d4 <ee_printf>
    3740:	90 12 22 68 	or  %o0, 0x268, %o0	! e268 <__clz_tab+0x268>
    3744:	90 10 20 01 	mov  1, %o0
    3748:	7f ff ff 5c 	call  34b8 <writeNicReg>
    374c:	92 10 20 01 	mov  1, %o1
    3750:	92 10 00 19 	mov  %i1, %o1
    3754:	7f ff ff 59 	call  34b8 <writeNicReg>
    3758:	90 10 20 02 	mov  2, %o0
    375c:	90 10 20 0a 	mov  0xa, %o0
    3760:	7f ff ff 56 	call  34b8 <writeNicReg>
    3764:	92 10 00 1a 	mov  %i2, %o1
    3768:	92 10 00 18 	mov  %i0, %o1
    376c:	90 10 20 12 	mov  0x12, %o0
    3770:	7f ff ff 52 	call  34b8 <writeNicReg>
    3774:	b0 10 20 00 	clr  %i0
    3778:	7f ff ff 50 	call  34b8 <writeNicReg>
    377c:	93 e8 20 01 	restore  %g0, 1, %o1

00003780 <readNicRegs>:
    3780:	9d e3 bf a0 	save  %sp, -96, %sp
    3784:	11 00 00 38 	sethi  %hi(0xe000), %o0
    3788:	7f ff f8 93 	call  19d4 <ee_printf>
    378c:	90 12 22 80 	or  %o0, 0x280, %o0	! e280 <__clz_tab+0x280>
    3790:	7f ff ff 42 	call  3498 <readNicReg>
    3794:	90 10 20 00 	clr  %o0
    3798:	92 10 00 08 	mov  %o0, %o1
    379c:	11 00 00 38 	sethi  %hi(0xe000), %o0
    37a0:	7f ff f8 8d 	call  19d4 <ee_printf>
    37a4:	90 12 22 a0 	or  %o0, 0x2a0, %o0	! e2a0 <__clz_tab+0x2a0>
    37a8:	7f ff ff 3c 	call  3498 <readNicReg>
    37ac:	90 10 20 01 	mov  1, %o0
    37b0:	92 10 00 08 	mov  %o0, %o1
    37b4:	11 00 00 38 	sethi  %hi(0xe000), %o0
    37b8:	7f ff f8 87 	call  19d4 <ee_printf>
    37bc:	90 12 22 c8 	or  %o0, 0x2c8, %o0	! e2c8 <__clz_tab+0x2c8>
    37c0:	7f ff ff 36 	call  3498 <readNicReg>
    37c4:	90 10 20 02 	mov  2, %o0
    37c8:	92 10 00 08 	mov  %o0, %o1
    37cc:	11 00 00 38 	sethi  %hi(0xe000), %o0
    37d0:	7f ff f8 81 	call  19d4 <ee_printf>
    37d4:	90 12 22 f0 	or  %o0, 0x2f0, %o0	! e2f0 <__clz_tab+0x2f0>
    37d8:	7f ff ff 30 	call  3498 <readNicReg>
    37dc:	90 10 20 0a 	mov  0xa, %o0
    37e0:	92 10 00 08 	mov  %o0, %o1
    37e4:	11 00 00 38 	sethi  %hi(0xe000), %o0
    37e8:	7f ff f8 7b 	call  19d4 <ee_printf>
    37ec:	90 12 23 18 	or  %o0, 0x318, %o0	! e318 <__clz_tab+0x318>
    37f0:	7f ff ff 2a 	call  3498 <readNicReg>
    37f4:	90 10 20 12 	mov  0x12, %o0
    37f8:	92 10 00 08 	mov  %o0, %o1
    37fc:	11 00 00 38 	sethi  %hi(0xe000), %o0
    3800:	7f ff f8 75 	call  19d4 <ee_printf>
    3804:	90 12 23 40 	or  %o0, 0x340, %o0	! e340 <__clz_tab+0x340>
    3808:	7f ff ff 24 	call  3498 <readNicReg>
    380c:	90 10 20 17 	mov  0x17, %o0
    3810:	92 10 00 08 	mov  %o0, %o1
    3814:	11 00 00 38 	sethi  %hi(0xe000), %o0
    3818:	7f ff f8 6f 	call  19d4 <ee_printf>
    381c:	90 12 23 68 	or  %o0, 0x368, %o0	! e368 <__clz_tab+0x368>
    3820:	7f ff ff 1e 	call  3498 <readNicReg>
    3824:	90 10 20 19 	mov  0x19, %o0
    3828:	92 10 00 08 	mov  %o0, %o1
    382c:	11 00 00 38 	sethi  %hi(0xe000), %o0
    3830:	7f ff f8 69 	call  19d4 <ee_printf>
    3834:	90 12 23 98 	or  %o0, 0x398, %o0	! e398 <__clz_tab+0x398>
    3838:	90 10 20 15 	mov  0x15, %o0
    383c:	7f ff ff 17 	call  3498 <readNicReg>
    3840:	31 00 00 38 	sethi  %hi(0xe000), %i0
    3844:	b0 16 23 c8 	or  %i0, 0x3c8, %i0	! e3c8 <__clz_tab+0x3c8>
    3848:	7f ff f8 63 	call  19d4 <ee_printf>
    384c:	93 e8 00 08 	restore  %g0, %o0, %o1
    3850:	80 8a 60 01 	btst  1, %o1
    3854:	02 80 00 08 	be  3874 <readNicRegs+0xf4>
    3858:	80 8a 60 02 	btst  2, %o1
    385c:	c4 0a 7f ff 	ldub  [ %o1 + -1 ], %g2
    3860:	92 22 60 01 	dec  %o1
    3864:	c4 2a 3f ff 	stb  %g2, [ %o0 + -1 ]
    3868:	94 22 a0 01 	dec  %o2
    386c:	02 80 00 1a 	be  38d4 <__GI_memmove+0x3c>
    3870:	90 22 20 01 	dec  %o0
    3874:	c4 12 7f fe 	lduh  [ %o1 + -2 ], %g2
    3878:	92 22 60 02 	sub  %o1, 2, %o1
    387c:	c4 32 3f fe 	sth  %g2, [ %o0 + -2 ]
    3880:	94 22 a0 02 	sub  %o2, 2, %o2
    3884:	10 80 00 14 	b  38d4 <__GI_memmove+0x3c>
    3888:	90 22 20 02 	sub  %o0, 2, %o0

0000388c <bcopy>:
    388c:	96 10 00 08 	mov  %o0, %o3
    3890:	90 10 00 09 	mov  %o1, %o0
    3894:	92 10 00 0b 	mov  %o3, %o1

00003898 <__GI_memmove>:
    3898:	80 a2 00 09 	cmp  %o0, %o1
    389c:	d0 23 a0 40 	st  %o0, [ %sp + 0x40 ]
    38a0:	08 80 01 79 	bleu  3e84 <__GI_memcpy+0x8>
    38a4:	98 22 00 09 	sub  %o0, %o1, %o4
    38a8:	96 02 40 0a 	add  %o1, %o2, %o3
    38ac:	80 a2 c0 08 	cmp  %o3, %o0
    38b0:	08 80 01 76 	bleu  3e88 <__GI_memcpy+0xc>
    38b4:	9a 8b 20 03 	andcc  %o4, 3, %o5
    38b8:	92 02 40 0a 	add  %o1, %o2, %o1
    38bc:	90 02 00 0a 	add  %o0, %o2, %o0
    38c0:	12 80 00 f9 	bne  3ca4 <__GI_memmove+0x40c>
    38c4:	80 a2 a0 0f 	cmp  %o2, 0xf
    38c8:	08 80 00 eb 	bleu  3c74 <__GI_memmove+0x3dc>
    38cc:	80 8a 60 03 	btst  3, %o1
    38d0:	12 bf ff e0 	bne  3850 <readNicRegs+0xd0>
    38d4:	80 8a 60 04 	btst  4, %o1
    38d8:	02 80 00 07 	be  38f4 <__GI_memmove+0x5c>
    38dc:	82 10 00 0a 	mov  %o2, %g1
    38e0:	d8 02 7f fc 	ld  [ %o1 + -4 ], %o4
    38e4:	82 20 60 04 	sub  %g1, 4, %g1
    38e8:	d8 22 3f fc 	st  %o4, [ %o0 + -4 ]
    38ec:	92 22 60 04 	sub  %o1, 4, %o1
    38f0:	90 22 20 04 	sub  %o0, 4, %o0
    38f4:	8c 88 7f 80 	andcc  %g1, -128, %g6
    38f8:	02 80 00 37 	be  39d4 <__GI_memmove+0x13c>
    38fc:	80 8a 20 04 	btst  4, %o0
    3900:	02 80 00 84 	be  3b10 <__GI_memmove+0x278>
    3904:	d4 1a 7f e0 	ldd  [ %o1 + -32 ], %o2
    3908:	d8 1a 7f e8 	ldd  [ %o1 + -24 ], %o4
    390c:	c4 1a 7f f0 	ldd  [ %o1 + -16 ], %g2
    3910:	c8 1a 7f f8 	ldd  [ %o1 + -8 ], %g4
    3914:	d4 22 3f e0 	st  %o2, [ %o0 + -32 ]
    3918:	d6 22 3f e4 	st  %o3, [ %o0 + -28 ]
    391c:	d8 22 3f e8 	st  %o4, [ %o0 + -24 ]
    3920:	da 22 3f ec 	st  %o5, [ %o0 + -20 ]
    3924:	c4 22 3f f0 	st  %g2, [ %o0 + -16 ]
    3928:	c6 22 3f f4 	st  %g3, [ %o0 + -12 ]
    392c:	c8 22 3f f8 	st  %g4, [ %o0 + -8 ]
    3930:	ca 22 3f fc 	st  %g5, [ %o0 + -4 ]
    3934:	d4 1a 7f c0 	ldd  [ %o1 + -64 ], %o2
    3938:	d8 1a 7f c8 	ldd  [ %o1 + -56 ], %o4
    393c:	c4 1a 7f d0 	ldd  [ %o1 + -48 ], %g2
    3940:	c8 1a 7f d8 	ldd  [ %o1 + -40 ], %g4
    3944:	d4 22 3f c0 	st  %o2, [ %o0 + -64 ]
    3948:	d6 22 3f c4 	st  %o3, [ %o0 + -60 ]
    394c:	d8 22 3f c8 	st  %o4, [ %o0 + -56 ]
    3950:	da 22 3f cc 	st  %o5, [ %o0 + -52 ]
    3954:	c4 22 3f d0 	st  %g2, [ %o0 + -48 ]
    3958:	c6 22 3f d4 	st  %g3, [ %o0 + -44 ]
    395c:	c8 22 3f d8 	st  %g4, [ %o0 + -40 ]
    3960:	ca 22 3f dc 	st  %g5, [ %o0 + -36 ]
    3964:	d4 1a 7f a0 	ldd  [ %o1 + -96 ], %o2
    3968:	d8 1a 7f a8 	ldd  [ %o1 + -88 ], %o4
    396c:	c4 1a 7f b0 	ldd  [ %o1 + -80 ], %g2
    3970:	c8 1a 7f b8 	ldd  [ %o1 + -72 ], %g4
    3974:	d4 22 3f a0 	st  %o2, [ %o0 + -96 ]
    3978:	d6 22 3f a4 	st  %o3, [ %o0 + -92 ]
    397c:	d8 22 3f a8 	st  %o4, [ %o0 + -88 ]
    3980:	da 22 3f ac 	st  %o5, [ %o0 + -84 ]
    3984:	c4 22 3f b0 	st  %g2, [ %o0 + -80 ]
    3988:	c6 22 3f b4 	st  %g3, [ %o0 + -76 ]
    398c:	c8 22 3f b8 	st  %g4, [ %o0 + -72 ]
    3990:	ca 22 3f bc 	st  %g5, [ %o0 + -68 ]
    3994:	d4 1a 7f 80 	ldd  [ %o1 + -128 ], %o2
    3998:	d8 1a 7f 88 	ldd  [ %o1 + -120 ], %o4
    399c:	c4 1a 7f 90 	ldd  [ %o1 + -112 ], %g2
    39a0:	c8 1a 7f 98 	ldd  [ %o1 + -104 ], %g4
    39a4:	d4 22 3f 80 	st  %o2, [ %o0 + -128 ]
    39a8:	d6 22 3f 84 	st  %o3, [ %o0 + -124 ]
    39ac:	d8 22 3f 88 	st  %o4, [ %o0 + -120 ]
    39b0:	da 22 3f 8c 	st  %o5, [ %o0 + -116 ]
    39b4:	c4 22 3f 90 	st  %g2, [ %o0 + -112 ]
    39b8:	c6 22 3f 94 	st  %g3, [ %o0 + -108 ]
    39bc:	c8 22 3f 98 	st  %g4, [ %o0 + -104 ]
    39c0:	ca 22 3f 9c 	st  %g5, [ %o0 + -100 ]
    39c4:	8c a1 a0 80 	subcc  %g6, 0x80, %g6
    39c8:	92 22 60 80 	sub  %o1, 0x80, %o1
    39cc:	12 bf ff ce 	bne  3904 <__GI_memmove+0x6c>
    39d0:	90 22 20 80 	sub  %o0, 0x80, %o0
    39d4:	8c 88 60 70 	andcc  %g1, 0x70, %g6
    39d8:	02 80 00 34 	be  3aa8 <__GI_memmove+0x210>
    39dc:	80 88 60 08 	btst  8, %g1
    39e0:	99 31 a0 01 	srl  %g6, 1, %o4
    39e4:	84 10 00 0f 	mov  %o7, %g2
    39e8:	98 01 80 0c 	add  %g6, %o4, %o4
    39ec:	40 00 05 3d 	call  4ee0 <__GI_memcpy+0x1064>
    39f0:	92 22 40 06 	sub  %o1, %g6, %o1
    39f4:	9e 10 00 02 	mov  %g2, %o7
    39f8:	81 c3 60 bc 	jmp  %o5 + 0xbc
    39fc:	90 22 00 06 	sub  %o0, %g6, %o0
    3a00:	c4 1a 60 60 	ldd  [ %o1 + 0x60 ], %g2
    3a04:	c8 1a 60 68 	ldd  [ %o1 + 0x68 ], %g4
    3a08:	c4 22 20 60 	st  %g2, [ %o0 + 0x60 ]
    3a0c:	c6 22 20 64 	st  %g3, [ %o0 + 0x64 ]
    3a10:	c8 22 20 68 	st  %g4, [ %o0 + 0x68 ]
    3a14:	ca 22 20 6c 	st  %g5, [ %o0 + 0x6c ]
    3a18:	c4 1a 60 50 	ldd  [ %o1 + 0x50 ], %g2
    3a1c:	c8 1a 60 58 	ldd  [ %o1 + 0x58 ], %g4
    3a20:	c4 22 20 50 	st  %g2, [ %o0 + 0x50 ]
    3a24:	c6 22 20 54 	st  %g3, [ %o0 + 0x54 ]
    3a28:	c8 22 20 58 	st  %g4, [ %o0 + 0x58 ]
    3a2c:	ca 22 20 5c 	st  %g5, [ %o0 + 0x5c ]
    3a30:	c4 1a 60 40 	ldd  [ %o1 + 0x40 ], %g2
    3a34:	c8 1a 60 48 	ldd  [ %o1 + 0x48 ], %g4
    3a38:	c4 22 20 40 	st  %g2, [ %o0 + 0x40 ]
    3a3c:	c6 22 20 44 	st  %g3, [ %o0 + 0x44 ]
    3a40:	c8 22 20 48 	st  %g4, [ %o0 + 0x48 ]
    3a44:	ca 22 20 4c 	st  %g5, [ %o0 + 0x4c ]
    3a48:	c4 1a 60 30 	ldd  [ %o1 + 0x30 ], %g2
    3a4c:	c8 1a 60 38 	ldd  [ %o1 + 0x38 ], %g4
    3a50:	c4 22 20 30 	st  %g2, [ %o0 + 0x30 ]
    3a54:	c6 22 20 34 	st  %g3, [ %o0 + 0x34 ]
    3a58:	c8 22 20 38 	st  %g4, [ %o0 + 0x38 ]
    3a5c:	ca 22 20 3c 	st  %g5, [ %o0 + 0x3c ]
    3a60:	c4 1a 60 20 	ldd  [ %o1 + 0x20 ], %g2
    3a64:	c8 1a 60 28 	ldd  [ %o1 + 0x28 ], %g4
    3a68:	c4 22 20 20 	st  %g2, [ %o0 + 0x20 ]
    3a6c:	c6 22 20 24 	st  %g3, [ %o0 + 0x24 ]
    3a70:	c8 22 20 28 	st  %g4, [ %o0 + 0x28 ]
    3a74:	ca 22 20 2c 	st  %g5, [ %o0 + 0x2c ]
    3a78:	c4 1a 60 10 	ldd  [ %o1 + 0x10 ], %g2
    3a7c:	c8 1a 60 18 	ldd  [ %o1 + 0x18 ], %g4
    3a80:	c4 22 20 10 	st  %g2, [ %o0 + 0x10 ]
    3a84:	c6 22 20 14 	st  %g3, [ %o0 + 0x14 ]
    3a88:	c8 22 20 18 	st  %g4, [ %o0 + 0x18 ]
    3a8c:	ca 22 20 1c 	st  %g5, [ %o0 + 0x1c ]
    3a90:	c4 1a 60 00 	ldd  [ %o1 ], %g2
    3a94:	c8 1a 60 08 	ldd  [ %o1 + 8 ], %g4
    3a98:	c4 22 20 00 	st  %g2, [ %o0 ]
    3a9c:	c6 22 20 04 	st  %g3, [ %o0 + 4 ]
    3aa0:	c8 22 20 08 	st  %g4, [ %o0 + 8 ]
    3aa4:	ca 22 20 0c 	st  %g5, [ %o0 + 0xc ]
    3aa8:	02 80 00 07 	be  3ac4 <__GI_memmove+0x22c>
    3aac:	80 88 60 04 	btst  4, %g1
    3ab0:	c4 1a 7f f8 	ldd  [ %o1 + -8 ], %g2
    3ab4:	90 22 20 08 	sub  %o0, 8, %o0
    3ab8:	92 22 60 08 	sub  %o1, 8, %o1
    3abc:	c4 22 00 00 	st  %g2, [ %o0 ]
    3ac0:	c6 22 20 04 	st  %g3, [ %o0 + 4 ]
    3ac4:	02 80 00 06 	be  3adc <__GI_memmove+0x244>
    3ac8:	80 88 60 02 	btst  2, %g1
    3acc:	c4 02 7f fc 	ld  [ %o1 + -4 ], %g2
    3ad0:	92 22 60 04 	sub  %o1, 4, %o1
    3ad4:	c4 22 3f fc 	st  %g2, [ %o0 + -4 ]
    3ad8:	90 22 20 04 	sub  %o0, 4, %o0
    3adc:	02 80 00 06 	be  3af4 <__GI_memmove+0x25c>
    3ae0:	80 88 60 01 	btst  1, %g1
    3ae4:	c4 12 7f fe 	lduh  [ %o1 + -2 ], %g2
    3ae8:	92 22 60 02 	sub  %o1, 2, %o1
    3aec:	c4 32 3f fe 	sth  %g2, [ %o0 + -2 ]
    3af0:	90 22 20 02 	sub  %o0, 2, %o0
    3af4:	02 80 00 04 	be  3b04 <__GI_memmove+0x26c>
    3af8:	01 00 00 00 	nop 
    3afc:	c4 0a 7f ff 	ldub  [ %o1 + -1 ], %g2
    3b00:	c4 2a 3f ff 	stb  %g2, [ %o0 + -1 ]
    3b04:	81 c3 e0 08 	retl 
    3b08:	d0 03 a0 40 	ld  [ %sp + 0x40 ], %o0
    3b0c:	d4 1a 7f e0 	ldd  [ %o1 + -32 ], %o2
    3b10:	d8 1a 7f e8 	ldd  [ %o1 + -24 ], %o4
    3b14:	c4 1a 7f f0 	ldd  [ %o1 + -16 ], %g2
    3b18:	c8 1a 7f f8 	ldd  [ %o1 + -8 ], %g4
    3b1c:	d4 3a 3f e0 	std  %o2, [ %o0 + -32 ]
    3b20:	d8 3a 3f e8 	std  %o4, [ %o0 + -24 ]
    3b24:	c4 3a 3f f0 	std  %g2, [ %o0 + -16 ]
    3b28:	c8 3a 3f f8 	std  %g4, [ %o0 + -8 ]
    3b2c:	d4 1a 7f c0 	ldd  [ %o1 + -64 ], %o2
    3b30:	d8 1a 7f c8 	ldd  [ %o1 + -56 ], %o4
    3b34:	c4 1a 7f d0 	ldd  [ %o1 + -48 ], %g2
    3b38:	c8 1a 7f d8 	ldd  [ %o1 + -40 ], %g4
    3b3c:	d4 3a 3f c0 	std  %o2, [ %o0 + -64 ]
    3b40:	d8 3a 3f c8 	std  %o4, [ %o0 + -56 ]
    3b44:	c4 3a 3f d0 	std  %g2, [ %o0 + -48 ]
    3b48:	c8 3a 3f d8 	std  %g4, [ %o0 + -40 ]
    3b4c:	d4 1a 7f a0 	ldd  [ %o1 + -96 ], %o2
    3b50:	d8 1a 7f a8 	ldd  [ %o1 + -88 ], %o4
    3b54:	c4 1a 7f b0 	ldd  [ %o1 + -80 ], %g2
    3b58:	c8 1a 7f b8 	ldd  [ %o1 + -72 ], %g4
    3b5c:	d4 3a 3f a0 	std  %o2, [ %o0 + -96 ]
    3b60:	d8 3a 3f a8 	std  %o4, [ %o0 + -88 ]
    3b64:	c4 3a 3f b0 	std  %g2, [ %o0 + -80 ]
    3b68:	c8 3a 3f b8 	std  %g4, [ %o0 + -72 ]
    3b6c:	d4 1a 7f 80 	ldd  [ %o1 + -128 ], %o2
    3b70:	d8 1a 7f 88 	ldd  [ %o1 + -120 ], %o4
    3b74:	c4 1a 7f 90 	ldd  [ %o1 + -112 ], %g2
    3b78:	c8 1a 7f 98 	ldd  [ %o1 + -104 ], %g4
    3b7c:	d4 3a 3f 80 	std  %o2, [ %o0 + -128 ]
    3b80:	d8 3a 3f 88 	std  %o4, [ %o0 + -120 ]
    3b84:	c4 3a 3f 90 	std  %g2, [ %o0 + -112 ]
    3b88:	c8 3a 3f 98 	std  %g4, [ %o0 + -104 ]
    3b8c:	8c a1 a0 80 	subcc  %g6, 0x80, %g6
    3b90:	92 22 60 80 	sub  %o1, 0x80, %o1
    3b94:	12 bf ff de 	bne  3b0c <__GI_memmove+0x274>
    3b98:	90 22 20 80 	sub  %o0, 0x80, %o0
    3b9c:	8c 88 60 70 	andcc  %g1, 0x70, %g6
    3ba0:	02 bf ff c2 	be  3aa8 <__GI_memmove+0x210>
    3ba4:	80 88 60 08 	btst  8, %g1
    3ba8:	99 31 a0 01 	srl  %g6, 1, %o4
    3bac:	84 10 00 0f 	mov  %o7, %g2
    3bb0:	98 01 80 0c 	add  %g6, %o4, %o4
    3bb4:	40 00 04 cb 	call  4ee0 <__GI_memcpy+0x1064>
    3bb8:	92 22 40 06 	sub  %o1, %g6, %o1
    3bbc:	9e 10 00 02 	mov  %g2, %o7
    3bc0:	81 c3 7e f4 	jmp  %o5 + -268
    3bc4:	90 22 00 06 	sub  %o0, %g6, %o0
    3bc8:	96 0a a0 0e 	and  %o2, 0xe, %o3
    3bcc:	84 10 00 0f 	mov  %o7, %g2
    3bd0:	99 2a e0 03 	sll  %o3, 3, %o4
    3bd4:	90 22 00 0b 	sub  %o0, %o3, %o0
    3bd8:	40 00 04 c2 	call  4ee0 <__GI_memcpy+0x1064>
    3bdc:	92 22 40 0b 	sub  %o1, %o3, %o1
    3be0:	9e 10 00 02 	mov  %g2, %o7
    3be4:	81 c3 60 84 	jmp  %o5 + 0x84
    3be8:	80 8a a0 01 	btst  1, %o2
    3bec:	c4 0a 60 0c 	ldub  [ %o1 + 0xc ], %g2
    3bf0:	c6 0a 60 0d 	ldub  [ %o1 + 0xd ], %g3
    3bf4:	c4 2a 20 0c 	stb  %g2, [ %o0 + 0xc ]
    3bf8:	c6 2a 20 0d 	stb  %g3, [ %o0 + 0xd ]
    3bfc:	c4 0a 60 0a 	ldub  [ %o1 + 0xa ], %g2
    3c00:	c6 0a 60 0b 	ldub  [ %o1 + 0xb ], %g3
    3c04:	c4 2a 20 0a 	stb  %g2, [ %o0 + 0xa ]
    3c08:	c6 2a 20 0b 	stb  %g3, [ %o0 + 0xb ]
    3c0c:	c4 0a 60 08 	ldub  [ %o1 + 8 ], %g2
    3c10:	c6 0a 60 09 	ldub  [ %o1 + 9 ], %g3
    3c14:	c4 2a 20 08 	stb  %g2, [ %o0 + 8 ]
    3c18:	c6 2a 20 09 	stb  %g3, [ %o0 + 9 ]
    3c1c:	c4 0a 60 06 	ldub  [ %o1 + 6 ], %g2
    3c20:	c6 0a 60 07 	ldub  [ %o1 + 7 ], %g3
    3c24:	c4 2a 20 06 	stb  %g2, [ %o0 + 6 ]
    3c28:	c6 2a 20 07 	stb  %g3, [ %o0 + 7 ]
    3c2c:	c4 0a 60 04 	ldub  [ %o1 + 4 ], %g2
    3c30:	c6 0a 60 05 	ldub  [ %o1 + 5 ], %g3
    3c34:	c4 2a 20 04 	stb  %g2, [ %o0 + 4 ]
    3c38:	c6 2a 20 05 	stb  %g3, [ %o0 + 5 ]
    3c3c:	c4 0a 60 02 	ldub  [ %o1 + 2 ], %g2
    3c40:	c6 0a 60 03 	ldub  [ %o1 + 3 ], %g3
    3c44:	c4 2a 20 02 	stb  %g2, [ %o0 + 2 ]
    3c48:	c6 2a 20 03 	stb  %g3, [ %o0 + 3 ]
    3c4c:	c4 0a 60 00 	ldub  [ %o1 ], %g2
    3c50:	c6 0a 60 01 	ldub  [ %o1 + 1 ], %g3
    3c54:	c4 2a 20 00 	stb  %g2, [ %o0 ]
    3c58:	c6 2a 20 01 	stb  %g3, [ %o0 + 1 ]
    3c5c:	02 80 00 04 	be  3c6c <__GI_memmove+0x3d4>
    3c60:	01 00 00 00 	nop 
    3c64:	c4 0a 7f ff 	ldub  [ %o1 + -1 ], %g2
    3c68:	c4 2a 3f ff 	stb  %g2, [ %o0 + -1 ]
    3c6c:	81 c3 e0 08 	retl 
    3c70:	d0 03 a0 40 	ld  [ %sp + 0x40 ], %o0
    3c74:	12 bf ff d5 	bne  3bc8 <__GI_memmove+0x330>
    3c78:	80 8a a0 08 	btst  8, %o2
    3c7c:	02 80 00 08 	be  3c9c <__GI_memmove+0x404>
    3c80:	80 8a a0 04 	btst  4, %o2
    3c84:	c4 02 7f f8 	ld  [ %o1 + -8 ], %g2
    3c88:	c6 02 7f fc 	ld  [ %o1 + -4 ], %g3
    3c8c:	92 22 60 08 	sub  %o1, 8, %o1
    3c90:	c4 22 3f f8 	st  %g2, [ %o0 + -8 ]
    3c94:	c6 22 3f fc 	st  %g3, [ %o0 + -4 ]
    3c98:	90 22 20 08 	sub  %o0, 8, %o0
    3c9c:	10 bf ff 8a 	b  3ac4 <__GI_memmove+0x22c>
    3ca0:	82 10 00 0a 	mov  %o2, %g1
    3ca4:	80 a2 a0 0f 	cmp  %o2, 0xf
    3ca8:	08 bf ff c8 	bleu  3bc8 <__GI_memmove+0x330>
    3cac:	80 8a 20 03 	btst  3, %o0
    3cb0:	02 80 00 11 	be  3cf4 <__GI_memmove+0x45c>
    3cb4:	80 8a 20 01 	btst  1, %o0
    3cb8:	02 80 00 08 	be  3cd8 <__GI_memmove+0x440>
    3cbc:	80 8a 20 02 	btst  2, %o0
    3cc0:	ca 0a 7f ff 	ldub  [ %o1 + -1 ], %g5
    3cc4:	92 22 60 01 	dec  %o1
    3cc8:	ca 2a 3f ff 	stb  %g5, [ %o0 + -1 ]
    3ccc:	90 22 20 01 	dec  %o0
    3cd0:	02 80 00 09 	be  3cf4 <__GI_memmove+0x45c>
    3cd4:	94 22 a0 01 	dec  %o2
    3cd8:	ca 0a 7f ff 	ldub  [ %o1 + -1 ], %g5
    3cdc:	92 22 60 02 	sub  %o1, 2, %o1
    3ce0:	ca 2a 3f ff 	stb  %g5, [ %o0 + -1 ]
    3ce4:	90 22 20 02 	sub  %o0, 2, %o0
    3ce8:	ca 0a 40 00 	ldub  [ %o1 ], %g5
    3cec:	94 22 a0 02 	sub  %o2, 2, %o2
    3cf0:	ca 2a 00 00 	stb  %g5, [ %o0 ]
    3cf4:	84 0a 60 03 	and  %o1, 3, %g2
    3cf8:	92 0a 7f fc 	and  %o1, -4, %o1
    3cfc:	86 0a a0 0c 	and  %o2, 0xc, %g3
    3d00:	92 02 60 04 	add  %o1, 4, %o1
    3d04:	80 a0 e0 04 	cmp  %g3, 4
    3d08:	89 28 a0 03 	sll  %g2, 3, %g4
    3d0c:	84 10 20 20 	mov  0x20, %g2
    3d10:	02 80 00 18 	be  3d70 <__GI_memmove+0x4d8>
    3d14:	8c 20 80 04 	sub  %g2, %g4, %g6
    3d18:	0a 80 00 10 	bcs  3d58 <__GI_memmove+0x4c0>
    3d1c:	80 a0 e0 08 	cmp  %g3, 8
    3d20:	02 80 00 08 	be  3d40 <__GI_memmove+0x4a8>
    3d24:	87 32 a0 02 	srl  %o2, 2, %g3
    3d28:	d6 02 7f fc 	ld  [ %o1 + -4 ], %o3
    3d2c:	90 02 3f f8 	add  %o0, -8, %o0
    3d30:	d8 02 7f f8 	ld  [ %o1 + -8 ], %o4
    3d34:	92 02 7f f0 	add  %o1, -16, %o1
    3d38:	10 80 00 1e 	b  3db0 <__GI_memmove+0x518>
    3d3c:	86 00 e0 01 	inc  %g3
    3d40:	d8 02 7f fc 	ld  [ %o1 + -4 ], %o4
    3d44:	90 02 3f fc 	add  %o0, -4, %o0
    3d48:	c2 02 7f f8 	ld  [ %o1 + -8 ], %g1
    3d4c:	92 02 7f f4 	add  %o1, -12, %o1
    3d50:	10 80 00 1d 	b  3dc4 <__GI_memmove+0x52c>
    3d54:	86 00 e0 02 	add  %g3, 2, %g3
    3d58:	da 02 7f fc 	ld  [ %o1 + -4 ], %o5
    3d5c:	90 02 3f f4 	add  %o0, -12, %o0
    3d60:	d6 02 7f f8 	ld  [ %o1 + -8 ], %o3
    3d64:	92 02 7f ec 	add  %o1, -20, %o1
    3d68:	10 80 00 0d 	b  3d9c <__GI_memmove+0x504>
    3d6c:	87 32 a0 02 	srl  %o2, 2, %g3
    3d70:	c2 02 7f fc 	ld  [ %o1 + -4 ], %g1
    3d74:	87 32 a0 02 	srl  %o2, 2, %g3
    3d78:	da 02 7f f8 	ld  [ %o1 + -8 ], %o5
    3d7c:	92 02 7f e8 	add  %o1, -24, %o1
    3d80:	90 02 3f f0 	add  %o0, -16, %o0
    3d84:	86 00 ff ff 	add  %g3, -1, %g3
    3d88:	d6 02 60 0c 	ld  [ %o1 + 0xc ], %o3
    3d8c:	85 2b 40 04 	sll  %o5, %g4, %g2
    3d90:	8b 30 40 06 	srl  %g1, %g6, %g5
    3d94:	84 10 80 05 	or  %g2, %g5, %g2
    3d98:	c4 22 20 0c 	st  %g2, [ %o0 + 0xc ]
    3d9c:	d8 02 60 08 	ld  [ %o1 + 8 ], %o4
    3da0:	85 2a c0 04 	sll  %o3, %g4, %g2
    3da4:	8b 33 40 06 	srl  %o5, %g6, %g5
    3da8:	84 10 80 05 	or  %g2, %g5, %g2
    3dac:	c4 22 20 08 	st  %g2, [ %o0 + 8 ]
    3db0:	c2 02 60 04 	ld  [ %o1 + 4 ], %g1
    3db4:	85 2b 00 04 	sll  %o4, %g4, %g2
    3db8:	8b 32 c0 06 	srl  %o3, %g6, %g5
    3dbc:	84 10 80 05 	or  %g2, %g5, %g2
    3dc0:	c4 22 20 04 	st  %g2, [ %o0 + 4 ]
    3dc4:	da 02 40 00 	ld  [ %o1 ], %o5
    3dc8:	85 28 40 04 	sll  %g1, %g4, %g2
    3dcc:	8b 33 00 06 	srl  %o4, %g6, %g5
    3dd0:	86 80 ff fc 	addcc  %g3, -4, %g3
    3dd4:	84 10 80 05 	or  %g2, %g5, %g2
    3dd8:	92 02 7f f0 	add  %o1, -16, %o1
    3ddc:	c4 22 00 00 	st  %g2, [ %o0 ]
    3de0:	90 02 3f f0 	add  %o0, -16, %o0
    3de4:	32 bf ff ea 	bne,a   3d8c <__GI_memmove+0x4f4>
    3de8:	d6 02 60 0c 	ld  [ %o1 + 0xc ], %o3
    3dec:	85 2b 40 04 	sll  %o5, %g4, %g2
    3df0:	8b 30 40 06 	srl  %g1, %g6, %g5
    3df4:	87 31 20 03 	srl  %g4, 3, %g3
    3df8:	84 10 80 05 	or  %g2, %g5, %g2
    3dfc:	92 02 40 03 	add  %o1, %g3, %o1
    3e00:	80 8a a0 02 	btst  2, %o2
    3e04:	c4 22 20 0c 	st  %g2, [ %o0 + 0xc ]
    3e08:	02 80 00 08 	be  3e28 <__GI_memmove+0x590>
    3e0c:	80 8a a0 01 	btst  1, %o2
    3e10:	ca 0a 60 0f 	ldub  [ %o1 + 0xf ], %g5
    3e14:	92 02 7f fe 	add  %o1, -2, %o1
    3e18:	ca 2a 20 0b 	stb  %g5, [ %o0 + 0xb ]
    3e1c:	90 02 3f fe 	add  %o0, -2, %o0
    3e20:	ca 0a 60 10 	ldub  [ %o1 + 0x10 ], %g5
    3e24:	ca 2a 20 0c 	stb  %g5, [ %o0 + 0xc ]
    3e28:	02 80 00 04 	be  3e38 <__GI_memmove+0x5a0>
    3e2c:	01 00 00 00 	nop 
    3e30:	ca 0a 60 0f 	ldub  [ %o1 + 0xf ], %g5
    3e34:	ca 2a 20 0b 	stb  %g5, [ %o0 + 0xb ]
    3e38:	81 c3 e0 08 	retl 
    3e3c:	d0 03 a0 40 	ld  [ %sp + 0x40 ], %o0
    3e40:	80 8a 60 01 	btst  1, %o1
    3e44:	02 80 00 08 	be  3e64 <__GI_memmove+0x5cc>
    3e48:	80 8a 60 02 	btst  2, %o1
    3e4c:	c4 0a 40 00 	ldub  [ %o1 ], %g2
    3e50:	92 02 60 01 	inc  %o1
    3e54:	c4 2a 00 00 	stb  %g2, [ %o0 ]
    3e58:	94 22 a0 01 	dec  %o2
    3e5c:	12 80 00 10 	bne  3e9c <__GI_memcpy+0x20>
    3e60:	90 02 20 01 	inc  %o0
    3e64:	c4 12 40 00 	lduh  [ %o1 ], %g2
    3e68:	92 02 60 02 	add  %o1, 2, %o1
    3e6c:	c4 32 00 00 	sth  %g2, [ %o0 ]
    3e70:	94 22 a0 02 	sub  %o2, 2, %o2
    3e74:	10 80 00 0a 	b  3e9c <__GI_memcpy+0x20>
    3e78:	90 02 20 02 	add  %o0, 2, %o0

00003e7c <__GI_memcpy>:
    3e7c:	98 22 00 09 	sub  %o0, %o1, %o4
    3e80:	d0 23 a0 40 	st  %o0, [ %sp + 0x40 ]
    3e84:	9a 8b 20 03 	andcc  %o4, 3, %o5
    3e88:	12 80 00 f4 	bne  4258 <__GI_memcpy+0x3dc>
    3e8c:	80 a2 a0 0f 	cmp  %o2, 0xf
    3e90:	08 80 04 08 	bleu  4eb0 <__GI_memcpy+0x1034>
    3e94:	80 8a 60 03 	btst  3, %o1
    3e98:	12 bf ff ea 	bne  3e40 <__GI_memmove+0x5a8>
    3e9c:	80 8a 60 04 	btst  4, %o1
    3ea0:	02 80 00 07 	be  3ebc <__GI_memcpy+0x40>
    3ea4:	82 10 00 0a 	mov  %o2, %g1
    3ea8:	d8 02 40 00 	ld  [ %o1 ], %o4
    3eac:	82 20 60 04 	sub  %g1, 4, %g1
    3eb0:	d8 22 00 00 	st  %o4, [ %o0 ]
    3eb4:	92 02 60 04 	add  %o1, 4, %o1
    3eb8:	90 02 20 04 	add  %o0, 4, %o0
    3ebc:	8c 88 7f 80 	andcc  %g1, -128, %g6
    3ec0:	02 80 00 37 	be  3f9c <__GI_memcpy+0x120>
    3ec4:	80 8a 20 04 	btst  4, %o0
    3ec8:	02 80 00 84 	be  40d8 <__GI_memcpy+0x25c>
    3ecc:	d4 1a 60 00 	ldd  [ %o1 ], %o2
    3ed0:	d8 1a 60 08 	ldd  [ %o1 + 8 ], %o4
    3ed4:	c4 1a 60 10 	ldd  [ %o1 + 0x10 ], %g2
    3ed8:	c8 1a 60 18 	ldd  [ %o1 + 0x18 ], %g4
    3edc:	d4 22 20 00 	st  %o2, [ %o0 ]
    3ee0:	d6 22 20 04 	st  %o3, [ %o0 + 4 ]
    3ee4:	d8 22 20 08 	st  %o4, [ %o0 + 8 ]
    3ee8:	da 22 20 0c 	st  %o5, [ %o0 + 0xc ]
    3eec:	c4 22 20 10 	st  %g2, [ %o0 + 0x10 ]
    3ef0:	c6 22 20 14 	st  %g3, [ %o0 + 0x14 ]
    3ef4:	c8 22 20 18 	st  %g4, [ %o0 + 0x18 ]
    3ef8:	ca 22 20 1c 	st  %g5, [ %o0 + 0x1c ]
    3efc:	d4 1a 60 20 	ldd  [ %o1 + 0x20 ], %o2
    3f00:	d8 1a 60 28 	ldd  [ %o1 + 0x28 ], %o4
    3f04:	c4 1a 60 30 	ldd  [ %o1 + 0x30 ], %g2
    3f08:	c8 1a 60 38 	ldd  [ %o1 + 0x38 ], %g4
    3f0c:	d4 22 20 20 	st  %o2, [ %o0 + 0x20 ]
    3f10:	d6 22 20 24 	st  %o3, [ %o0 + 0x24 ]
    3f14:	d8 22 20 28 	st  %o4, [ %o0 + 0x28 ]
    3f18:	da 22 20 2c 	st  %o5, [ %o0 + 0x2c ]
    3f1c:	c4 22 20 30 	st  %g2, [ %o0 + 0x30 ]
    3f20:	c6 22 20 34 	st  %g3, [ %o0 + 0x34 ]
    3f24:	c8 22 20 38 	st  %g4, [ %o0 + 0x38 ]
    3f28:	ca 22 20 3c 	st  %g5, [ %o0 + 0x3c ]
    3f2c:	d4 1a 60 40 	ldd  [ %o1 + 0x40 ], %o2
    3f30:	d8 1a 60 48 	ldd  [ %o1 + 0x48 ], %o4
    3f34:	c4 1a 60 50 	ldd  [ %o1 + 0x50 ], %g2
    3f38:	c8 1a 60 58 	ldd  [ %o1 + 0x58 ], %g4
    3f3c:	d4 22 20 40 	st  %o2, [ %o0 + 0x40 ]
    3f40:	d6 22 20 44 	st  %o3, [ %o0 + 0x44 ]
    3f44:	d8 22 20 48 	st  %o4, [ %o0 + 0x48 ]
    3f48:	da 22 20 4c 	st  %o5, [ %o0 + 0x4c ]
    3f4c:	c4 22 20 50 	st  %g2, [ %o0 + 0x50 ]
    3f50:	c6 22 20 54 	st  %g3, [ %o0 + 0x54 ]
    3f54:	c8 22 20 58 	st  %g4, [ %o0 + 0x58 ]
    3f58:	ca 22 20 5c 	st  %g5, [ %o0 + 0x5c ]
    3f5c:	d4 1a 60 60 	ldd  [ %o1 + 0x60 ], %o2
    3f60:	d8 1a 60 68 	ldd  [ %o1 + 0x68 ], %o4
    3f64:	c4 1a 60 70 	ldd  [ %o1 + 0x70 ], %g2
    3f68:	c8 1a 60 78 	ldd  [ %o1 + 0x78 ], %g4
    3f6c:	d4 22 20 60 	st  %o2, [ %o0 + 0x60 ]
    3f70:	d6 22 20 64 	st  %o3, [ %o0 + 0x64 ]
    3f74:	d8 22 20 68 	st  %o4, [ %o0 + 0x68 ]
    3f78:	da 22 20 6c 	st  %o5, [ %o0 + 0x6c ]
    3f7c:	c4 22 20 70 	st  %g2, [ %o0 + 0x70 ]
    3f80:	c6 22 20 74 	st  %g3, [ %o0 + 0x74 ]
    3f84:	c8 22 20 78 	st  %g4, [ %o0 + 0x78 ]
    3f88:	ca 22 20 7c 	st  %g5, [ %o0 + 0x7c ]
    3f8c:	8c a1 a0 80 	subcc  %g6, 0x80, %g6
    3f90:	92 02 60 80 	add  %o1, 0x80, %o1
    3f94:	12 bf ff ce 	bne  3ecc <__GI_memcpy+0x50>
    3f98:	90 02 20 80 	add  %o0, 0x80, %o0
    3f9c:	8c 88 60 70 	andcc  %g1, 0x70, %g6
    3fa0:	02 80 00 34 	be  4070 <__GI_memcpy+0x1f4>
    3fa4:	80 88 60 08 	btst  8, %g1
    3fa8:	99 31 a0 01 	srl  %g6, 1, %o4
    3fac:	84 10 00 0f 	mov  %o7, %g2
    3fb0:	98 01 80 0c 	add  %g6, %o4, %o4
    3fb4:	92 02 40 06 	add  %o1, %g6, %o1
    3fb8:	40 00 03 ca 	call  4ee0 <__GI_memcpy+0x1064>
    3fbc:	90 02 00 06 	add  %o0, %g6, %o0
    3fc0:	81 c3 60 b8 	jmp  %o5 + 0xb8
    3fc4:	9e 10 00 02 	mov  %g2, %o7
    3fc8:	c4 1a 7f 90 	ldd  [ %o1 + -112 ], %g2
    3fcc:	c8 1a 7f 98 	ldd  [ %o1 + -104 ], %g4
    3fd0:	c4 22 3f 90 	st  %g2, [ %o0 + -112 ]
    3fd4:	c6 22 3f 94 	st  %g3, [ %o0 + -108 ]
    3fd8:	c8 22 3f 98 	st  %g4, [ %o0 + -104 ]
    3fdc:	ca 22 3f 9c 	st  %g5, [ %o0 + -100 ]
    3fe0:	c4 1a 7f a0 	ldd  [ %o1 + -96 ], %g2
    3fe4:	c8 1a 7f a8 	ldd  [ %o1 + -88 ], %g4
    3fe8:	c4 22 3f a0 	st  %g2, [ %o0 + -96 ]
    3fec:	c6 22 3f a4 	st  %g3, [ %o0 + -92 ]
    3ff0:	c8 22 3f a8 	st  %g4, [ %o0 + -88 ]
    3ff4:	ca 22 3f ac 	st  %g5, [ %o0 + -84 ]
    3ff8:	c4 1a 7f b0 	ldd  [ %o1 + -80 ], %g2
    3ffc:	c8 1a 7f b8 	ldd  [ %o1 + -72 ], %g4
    4000:	c4 22 3f b0 	st  %g2, [ %o0 + -80 ]
    4004:	c6 22 3f b4 	st  %g3, [ %o0 + -76 ]
    4008:	c8 22 3f b8 	st  %g4, [ %o0 + -72 ]
    400c:	ca 22 3f bc 	st  %g5, [ %o0 + -68 ]
    4010:	c4 1a 7f c0 	ldd  [ %o1 + -64 ], %g2
    4014:	c8 1a 7f c8 	ldd  [ %o1 + -56 ], %g4
    4018:	c4 22 3f c0 	st  %g2, [ %o0 + -64 ]
    401c:	c6 22 3f c4 	st  %g3, [ %o0 + -60 ]
    4020:	c8 22 3f c8 	st  %g4, [ %o0 + -56 ]
    4024:	ca 22 3f cc 	st  %g5, [ %o0 + -52 ]
    4028:	c4 1a 7f d0 	ldd  [ %o1 + -48 ], %g2
    402c:	c8 1a 7f d8 	ldd  [ %o1 + -40 ], %g4
    4030:	c4 22 3f d0 	st  %g2, [ %o0 + -48 ]
    4034:	c6 22 3f d4 	st  %g3, [ %o0 + -44 ]
    4038:	c8 22 3f d8 	st  %g4, [ %o0 + -40 ]
    403c:	ca 22 3f dc 	st  %g5, [ %o0 + -36 ]
    4040:	c4 1a 7f e0 	ldd  [ %o1 + -32 ], %g2
    4044:	c8 1a 7f e8 	ldd  [ %o1 + -24 ], %g4
    4048:	c4 22 3f e0 	st  %g2, [ %o0 + -32 ]
    404c:	c6 22 3f e4 	st  %g3, [ %o0 + -28 ]
    4050:	c8 22 3f e8 	st  %g4, [ %o0 + -24 ]
    4054:	ca 22 3f ec 	st  %g5, [ %o0 + -20 ]
    4058:	c4 1a 7f f0 	ldd  [ %o1 + -16 ], %g2
    405c:	c8 1a 7f f8 	ldd  [ %o1 + -8 ], %g4
    4060:	c4 22 3f f0 	st  %g2, [ %o0 + -16 ]
    4064:	c6 22 3f f4 	st  %g3, [ %o0 + -12 ]
    4068:	c8 22 3f f8 	st  %g4, [ %o0 + -8 ]
    406c:	ca 22 3f fc 	st  %g5, [ %o0 + -4 ]
    4070:	02 80 00 07 	be  408c <__GI_memcpy+0x210>
    4074:	80 88 60 04 	btst  4, %g1
    4078:	c4 1a 40 00 	ldd  [ %o1 ], %g2
    407c:	90 02 20 08 	add  %o0, 8, %o0
    4080:	c4 22 3f f8 	st  %g2, [ %o0 + -8 ]
    4084:	92 02 60 08 	add  %o1, 8, %o1
    4088:	c6 22 3f fc 	st  %g3, [ %o0 + -4 ]
    408c:	02 80 00 06 	be  40a4 <__GI_memcpy+0x228>
    4090:	80 88 60 02 	btst  2, %g1
    4094:	c4 02 40 00 	ld  [ %o1 ], %g2
    4098:	92 02 60 04 	add  %o1, 4, %o1
    409c:	c4 22 00 00 	st  %g2, [ %o0 ]
    40a0:	90 02 20 04 	add  %o0, 4, %o0
    40a4:	02 80 00 06 	be  40bc <__GI_memcpy+0x240>
    40a8:	80 88 60 01 	btst  1, %g1
    40ac:	c4 12 40 00 	lduh  [ %o1 ], %g2
    40b0:	92 02 60 02 	add  %o1, 2, %o1
    40b4:	c4 32 00 00 	sth  %g2, [ %o0 ]
    40b8:	90 02 20 02 	add  %o0, 2, %o0
    40bc:	02 80 00 04 	be  40cc <__GI_memcpy+0x250>
    40c0:	01 00 00 00 	nop 
    40c4:	c4 0a 40 00 	ldub  [ %o1 ], %g2
    40c8:	c4 2a 00 00 	stb  %g2, [ %o0 ]
    40cc:	81 c3 e0 08 	retl 
    40d0:	d0 03 a0 40 	ld  [ %sp + 0x40 ], %o0
    40d4:	d4 1a 60 00 	ldd  [ %o1 ], %o2
    40d8:	d8 1a 60 08 	ldd  [ %o1 + 8 ], %o4
    40dc:	c4 1a 60 10 	ldd  [ %o1 + 0x10 ], %g2
    40e0:	c8 1a 60 18 	ldd  [ %o1 + 0x18 ], %g4
    40e4:	d4 3a 20 00 	std  %o2, [ %o0 ]
    40e8:	d8 3a 20 08 	std  %o4, [ %o0 + 8 ]
    40ec:	c4 3a 20 10 	std  %g2, [ %o0 + 0x10 ]
    40f0:	c8 3a 20 18 	std  %g4, [ %o0 + 0x18 ]
    40f4:	d4 1a 60 20 	ldd  [ %o1 + 0x20 ], %o2
    40f8:	d8 1a 60 28 	ldd  [ %o1 + 0x28 ], %o4
    40fc:	c4 1a 60 30 	ldd  [ %o1 + 0x30 ], %g2
    4100:	c8 1a 60 38 	ldd  [ %o1 + 0x38 ], %g4
    4104:	d4 3a 20 20 	std  %o2, [ %o0 + 0x20 ]
    4108:	d8 3a 20 28 	std  %o4, [ %o0 + 0x28 ]
    410c:	c4 3a 20 30 	std  %g2, [ %o0 + 0x30 ]
    4110:	c8 3a 20 38 	std  %g4, [ %o0 + 0x38 ]
    4114:	d4 1a 60 40 	ldd  [ %o1 + 0x40 ], %o2
    4118:	d8 1a 60 48 	ldd  [ %o1 + 0x48 ], %o4
    411c:	c4 1a 60 50 	ldd  [ %o1 + 0x50 ], %g2
    4120:	c8 1a 60 58 	ldd  [ %o1 + 0x58 ], %g4
    4124:	d4 3a 20 40 	std  %o2, [ %o0 + 0x40 ]
    4128:	d8 3a 20 48 	std  %o4, [ %o0 + 0x48 ]
    412c:	c4 3a 20 50 	std  %g2, [ %o0 + 0x50 ]
    4130:	c8 3a 20 58 	std  %g4, [ %o0 + 0x58 ]
    4134:	d4 1a 60 60 	ldd  [ %o1 + 0x60 ], %o2
    4138:	d8 1a 60 68 	ldd  [ %o1 + 0x68 ], %o4
    413c:	c4 1a 60 70 	ldd  [ %o1 + 0x70 ], %g2
    4140:	c8 1a 60 78 	ldd  [ %o1 + 0x78 ], %g4
    4144:	d4 3a 20 60 	std  %o2, [ %o0 + 0x60 ]
    4148:	d8 3a 20 68 	std  %o4, [ %o0 + 0x68 ]
    414c:	c4 3a 20 70 	std  %g2, [ %o0 + 0x70 ]
    4150:	c8 3a 20 78 	std  %g4, [ %o0 + 0x78 ]
    4154:	8c a1 a0 80 	subcc  %g6, 0x80, %g6
    4158:	92 02 60 80 	add  %o1, 0x80, %o1
    415c:	12 bf ff de 	bne  40d4 <__GI_memcpy+0x258>
    4160:	90 02 20 80 	add  %o0, 0x80, %o0
    4164:	8c 88 60 70 	andcc  %g1, 0x70, %g6
    4168:	02 80 00 24 	be  41f8 <__GI_memcpy+0x37c>
    416c:	80 88 60 08 	btst  8, %g1
    4170:	84 10 00 0f 	mov  %o7, %g2
    4174:	40 00 03 5d 	call  4ee8 <__GI_memcpy+0x106c>
    4178:	92 02 40 06 	add  %o1, %g6, %o1
    417c:	9e 10 00 02 	mov  %g2, %o7
    4180:	81 c3 60 84 	jmp  %o5 + 0x84
    4184:	90 02 00 06 	add  %o0, %g6, %o0
    4188:	c4 1a 7f 90 	ldd  [ %o1 + -112 ], %g2
    418c:	c8 1a 7f 98 	ldd  [ %o1 + -104 ], %g4
    4190:	c4 3a 3f 90 	std  %g2, [ %o0 + -112 ]
    4194:	c8 3a 3f 98 	std  %g4, [ %o0 + -104 ]
    4198:	c4 1a 7f a0 	ldd  [ %o1 + -96 ], %g2
    419c:	c8 1a 7f a8 	ldd  [ %o1 + -88 ], %g4
    41a0:	c4 3a 3f a0 	std  %g2, [ %o0 + -96 ]
    41a4:	c8 3a 3f a8 	std  %g4, [ %o0 + -88 ]
    41a8:	c4 1a 7f b0 	ldd  [ %o1 + -80 ], %g2
    41ac:	c8 1a 7f b8 	ldd  [ %o1 + -72 ], %g4
    41b0:	c4 3a 3f b0 	std  %g2, [ %o0 + -80 ]
    41b4:	c8 3a 3f b8 	std  %g4, [ %o0 + -72 ]
    41b8:	c4 1a 7f c0 	ldd  [ %o1 + -64 ], %g2
    41bc:	c8 1a 7f c8 	ldd  [ %o1 + -56 ], %g4
    41c0:	c4 3a 3f c0 	std  %g2, [ %o0 + -64 ]
    41c4:	c8 3a 3f c8 	std  %g4, [ %o0 + -56 ]
    41c8:	c4 1a 7f d0 	ldd  [ %o1 + -48 ], %g2
    41cc:	c8 1a 7f d8 	ldd  [ %o1 + -40 ], %g4
    41d0:	c4 3a 3f d0 	std  %g2, [ %o0 + -48 ]
    41d4:	c8 3a 3f d8 	std  %g4, [ %o0 + -40 ]
    41d8:	c4 1a 7f e0 	ldd  [ %o1 + -32 ], %g2
    41dc:	c8 1a 7f e8 	ldd  [ %o1 + -24 ], %g4
    41e0:	c4 3a 3f e0 	std  %g2, [ %o0 + -32 ]
    41e4:	c8 3a 3f e8 	std  %g4, [ %o0 + -24 ]
    41e8:	c4 1a 7f f0 	ldd  [ %o1 + -16 ], %g2
    41ec:	c8 1a 7f f8 	ldd  [ %o1 + -8 ], %g4
    41f0:	c4 3a 3f f0 	std  %g2, [ %o0 + -16 ]
    41f4:	c8 3a 3f f8 	std  %g4, [ %o0 + -8 ]
    41f8:	02 80 00 06 	be  4210 <__GI_memcpy+0x394>
    41fc:	80 88 60 04 	btst  4, %g1
    4200:	c4 1a 40 00 	ldd  [ %o1 ], %g2
    4204:	90 02 20 08 	add  %o0, 8, %o0
    4208:	c4 3a 3f f8 	std  %g2, [ %o0 + -8 ]
    420c:	92 02 60 08 	add  %o1, 8, %o1
    4210:	02 80 00 06 	be  4228 <__GI_memcpy+0x3ac>
    4214:	80 88 60 02 	btst  2, %g1
    4218:	c4 02 40 00 	ld  [ %o1 ], %g2
    421c:	92 02 60 04 	add  %o1, 4, %o1
    4220:	c4 22 00 00 	st  %g2, [ %o0 ]
    4224:	90 02 20 04 	add  %o0, 4, %o0
    4228:	02 80 00 06 	be  4240 <__GI_memcpy+0x3c4>
    422c:	80 88 60 01 	btst  1, %g1
    4230:	c4 12 40 00 	lduh  [ %o1 ], %g2
    4234:	92 02 60 02 	add  %o1, 2, %o1
    4238:	c4 32 00 00 	sth  %g2, [ %o0 ]
    423c:	90 02 20 02 	add  %o0, 2, %o0
    4240:	02 80 00 04 	be  4250 <__GI_memcpy+0x3d4>
    4244:	01 00 00 00 	nop 
    4248:	c4 0a 40 00 	ldub  [ %o1 ], %g2
    424c:	c4 2a 00 00 	stb  %g2, [ %o0 ]
    4250:	81 c3 e0 08 	retl 
    4254:	d0 03 a0 40 	ld  [ %sp + 0x40 ], %o0
    4258:	80 a2 a0 06 	cmp  %o2, 6
    425c:	08 80 02 ea 	bleu  4e04 <__GI_memcpy+0xf88>
    4260:	80 a2 a1 00 	cmp  %o2, 0x100
    4264:	1a 80 00 65 	bcc  43f8 <__GI_memcpy+0x57c>
    4268:	80 8a 20 03 	btst  3, %o0
    426c:	02 80 00 11 	be  42b0 <__GI_memcpy+0x434>
    4270:	80 8a 20 01 	btst  1, %o0
    4274:	02 80 00 08 	be  4294 <__GI_memcpy+0x418>
    4278:	80 8a 20 02 	btst  2, %o0
    427c:	ca 0a 40 00 	ldub  [ %o1 ], %g5
    4280:	92 02 60 01 	inc  %o1
    4284:	ca 2a 00 00 	stb  %g5, [ %o0 ]
    4288:	94 22 a0 01 	dec  %o2
    428c:	12 80 00 09 	bne  42b0 <__GI_memcpy+0x434>
    4290:	90 02 20 01 	inc  %o0
    4294:	c6 0a 40 00 	ldub  [ %o1 ], %g3
    4298:	92 02 60 02 	add  %o1, 2, %o1
    429c:	c6 2a 00 00 	stb  %g3, [ %o0 ]
    42a0:	94 22 a0 02 	sub  %o2, 2, %o2
    42a4:	c6 0a 7f ff 	ldub  [ %o1 + -1 ], %g3
    42a8:	90 02 20 02 	add  %o0, 2, %o0
    42ac:	c6 2a 3f ff 	stb  %g3, [ %o0 + -1 ]
    42b0:	84 0a 60 03 	and  %o1, 3, %g2
    42b4:	86 0a a0 0c 	and  %o2, 0xc, %g3
    42b8:	92 0a 7f fc 	and  %o1, -4, %o1
    42bc:	80 a0 e0 04 	cmp  %g3, 4
    42c0:	89 28 a0 03 	sll  %g2, 3, %g4
    42c4:	84 10 20 20 	mov  0x20, %g2
    42c8:	02 80 00 17 	be  4324 <__GI_memcpy+0x4a8>
    42cc:	8c 20 80 04 	sub  %g2, %g4, %g6
    42d0:	0a 80 00 0f 	bcs  430c <__GI_memcpy+0x490>
    42d4:	80 a0 e0 08 	cmp  %g3, 8
    42d8:	02 80 00 07 	be  42f4 <__GI_memcpy+0x478>
    42dc:	87 32 a0 02 	srl  %o2, 2, %g3
    42e0:	d6 02 40 00 	ld  [ %o1 ], %o3
    42e4:	90 02 3f f8 	add  %o0, -8, %o0
    42e8:	d8 02 60 04 	ld  [ %o1 + 4 ], %o4
    42ec:	10 80 00 1f 	b  4368 <__GI_memcpy+0x4ec>
    42f0:	86 00 e0 01 	inc  %g3
    42f4:	d8 02 40 00 	ld  [ %o1 ], %o4
    42f8:	90 02 3f f4 	add  %o0, -12, %o0
    42fc:	da 02 60 04 	ld  [ %o1 + 4 ], %o5
    4300:	86 00 e0 02 	add  %g3, 2, %g3
    4304:	10 80 00 1e 	b  437c <__GI_memcpy+0x500>
    4308:	92 02 7f fc 	add  %o1, -4, %o1
    430c:	c2 02 40 00 	ld  [ %o1 ], %g1
    4310:	90 02 3f fc 	add  %o0, -4, %o0
    4314:	d6 02 60 04 	ld  [ %o1 + 4 ], %o3
    4318:	87 32 a0 02 	srl  %o2, 2, %g3
    431c:	10 80 00 0e 	b  4354 <__GI_memcpy+0x4d8>
    4320:	92 02 60 04 	add  %o1, 4, %o1
    4324:	da 02 40 00 	ld  [ %o1 ], %o5
    4328:	80 a2 a0 07 	cmp  %o2, 7
    432c:	c2 02 60 04 	ld  [ %o1 + 4 ], %g1
    4330:	87 32 a0 02 	srl  %o2, 2, %g3
    4334:	08 80 00 1c 	bleu  43a4 <__GI_memcpy+0x528>
    4338:	92 02 60 08 	add  %o1, 8, %o1
    433c:	d6 02 40 00 	ld  [ %o1 ], %o3
    4340:	86 00 ff ff 	add  %g3, -1, %g3
    4344:	85 2b 40 04 	sll  %o5, %g4, %g2
    4348:	8b 30 40 06 	srl  %g1, %g6, %g5
    434c:	84 10 80 05 	or  %g2, %g5, %g2
    4350:	c4 22 00 00 	st  %g2, [ %o0 ]
    4354:	d8 02 60 04 	ld  [ %o1 + 4 ], %o4
    4358:	85 28 40 04 	sll  %g1, %g4, %g2
    435c:	8b 32 c0 06 	srl  %o3, %g6, %g5
    4360:	84 10 80 05 	or  %g2, %g5, %g2
    4364:	c4 22 20 04 	st  %g2, [ %o0 + 4 ]
    4368:	da 02 60 08 	ld  [ %o1 + 8 ], %o5
    436c:	85 2a c0 04 	sll  %o3, %g4, %g2
    4370:	8b 33 00 06 	srl  %o4, %g6, %g5
    4374:	84 10 80 05 	or  %g2, %g5, %g2
    4378:	c4 22 20 08 	st  %g2, [ %o0 + 8 ]
    437c:	c2 02 60 0c 	ld  [ %o1 + 0xc ], %g1
    4380:	85 2b 00 04 	sll  %o4, %g4, %g2
    4384:	8b 33 40 06 	srl  %o5, %g6, %g5
    4388:	86 80 ff fc 	addcc  %g3, -4, %g3
    438c:	84 10 80 05 	or  %g2, %g5, %g2
    4390:	92 02 60 10 	add  %o1, 0x10, %o1
    4394:	c4 22 20 0c 	st  %g2, [ %o0 + 0xc ]
    4398:	90 02 20 10 	add  %o0, 0x10, %o0
    439c:	32 bf ff ea 	bne,a   4344 <__GI_memcpy+0x4c8>
    43a0:	d6 02 40 00 	ld  [ %o1 ], %o3
    43a4:	85 2b 40 04 	sll  %o5, %g4, %g2
    43a8:	8b 30 40 06 	srl  %g1, %g6, %g5
    43ac:	87 31 a0 03 	srl  %g6, 3, %g3
    43b0:	84 10 80 05 	or  %g2, %g5, %g2
    43b4:	92 22 40 03 	sub  %o1, %g3, %o1
    43b8:	80 8a a0 02 	btst  2, %o2
    43bc:	c4 22 00 00 	st  %g2, [ %o0 ]
    43c0:	02 80 00 08 	be  43e0 <__GI_memcpy+0x564>
    43c4:	80 8a a0 01 	btst  1, %o2
    43c8:	c4 0a 40 00 	ldub  [ %o1 ], %g2
    43cc:	92 02 60 02 	add  %o1, 2, %o1
    43d0:	c4 2a 20 04 	stb  %g2, [ %o0 + 4 ]
    43d4:	90 02 20 02 	add  %o0, 2, %o0
    43d8:	c4 0a 7f ff 	ldub  [ %o1 + -1 ], %g2
    43dc:	c4 2a 20 03 	stb  %g2, [ %o0 + 3 ]
    43e0:	02 80 00 04 	be  43f0 <__GI_memcpy+0x574>
    43e4:	01 00 00 00 	nop 
    43e8:	c4 0a 40 00 	ldub  [ %o1 ], %g2
    43ec:	c4 2a 20 04 	stb  %g2, [ %o0 + 4 ]
    43f0:	81 c3 e0 08 	retl 
    43f4:	d0 03 a0 40 	ld  [ %sp + 0x40 ], %o0
    43f8:	80 8a 60 03 	btst  3, %o1
    43fc:	02 80 00 11 	be  4440 <__GI_memcpy+0x5c4>
    4400:	80 8a 60 01 	btst  1, %o1
    4404:	02 80 00 08 	be  4424 <__GI_memcpy+0x5a8>
    4408:	80 8a 60 02 	btst  2, %o1
    440c:	c4 0a 40 00 	ldub  [ %o1 ], %g2
    4410:	92 02 60 01 	inc  %o1
    4414:	c4 2a 00 00 	stb  %g2, [ %o0 ]
    4418:	94 22 a0 01 	dec  %o2
    441c:	12 80 00 09 	bne  4440 <__GI_memcpy+0x5c4>
    4420:	90 02 20 01 	inc  %o0
    4424:	c4 12 40 00 	lduh  [ %o1 ], %g2
    4428:	92 02 60 02 	add  %o1, 2, %o1
    442c:	87 30 a0 08 	srl  %g2, 8, %g3
    4430:	94 22 a0 02 	sub  %o2, 2, %o2
    4434:	c6 2a 00 00 	stb  %g3, [ %o0 ]
    4438:	90 02 20 02 	add  %o0, 2, %o0
    443c:	c4 2a 3f ff 	stb  %g2, [ %o0 + -1 ]
    4440:	80 8a 60 04 	btst  4, %o1
    4444:	12 80 00 0d 	bne  4478 <__GI_memcpy+0x5fc>
    4448:	80 a3 60 01 	cmp  %o5, 1
    444c:	d8 02 40 00 	ld  [ %o1 ], %o4
    4450:	85 33 20 18 	srl  %o4, 0x18, %g2
    4454:	c4 2a 00 00 	stb  %g2, [ %o0 ]
    4458:	87 33 20 10 	srl  %o4, 0x10, %g3
    445c:	c6 2a 20 01 	stb  %g3, [ %o0 + 1 ]
    4460:	85 33 20 08 	srl  %o4, 8, %g2
    4464:	c4 2a 20 02 	stb  %g2, [ %o0 + 2 ]
    4468:	94 22 a0 04 	sub  %o2, 4, %o2
    446c:	d8 2a 20 03 	stb  %o4, [ %o0 + 3 ]
    4470:	92 02 60 04 	add  %o1, 4, %o1
    4474:	90 02 20 04 	add  %o0, 4, %o0
    4478:	02 80 00 da 	be  47e0 <__GI_memcpy+0x964>
    447c:	80 a3 60 02 	cmp  %o5, 2
    4480:	02 80 00 6e 	be  4638 <__GI_memcpy+0x7bc>
    4484:	94 22 a0 04 	sub  %o2, 4, %o2
    4488:	c4 02 40 00 	ld  [ %o1 ], %g2
    448c:	92 02 60 04 	add  %o1, 4, %o1
    4490:	87 30 a0 18 	srl  %g2, 0x18, %g3
    4494:	8a 0a 20 07 	and  %o0, 7, %g5
    4498:	c6 2a 00 00 	stb  %g3, [ %o0 ]
    449c:	80 a1 60 07 	cmp  %g5, 7
    44a0:	83 28 a0 08 	sll  %g2, 8, %g1
    44a4:	90 02 20 04 	add  %o0, 4, %o0
    44a8:	02 80 01 3b 	be  4994 <__GI_memcpy+0xb18>
    44ac:	96 0a bf c0 	and  %o2, -64, %o3
    44b0:	d8 02 3f f9 	ld  [ %o0 + -7 ], %o4
    44b4:	c4 1a 60 00 	ldd  [ %o1 ], %g2
    44b8:	c8 1a 60 08 	ldd  [ %o1 + 8 ], %g4
    44bc:	9b 30 a0 18 	srl  %g2, 0x18, %o5
    44c0:	8d 30 e0 18 	srl  %g3, 0x18, %g6
    44c4:	85 28 a0 08 	sll  %g2, 8, %g2
    44c8:	9a 13 40 01 	or  %o5, %g1, %o5
    44cc:	83 28 e0 08 	sll  %g3, 8, %g1
    44d0:	84 11 80 02 	or  %g6, %g2, %g2
    44d4:	87 31 20 18 	srl  %g4, 0x18, %g3
    44d8:	8d 31 60 18 	srl  %g5, 0x18, %g6
    44dc:	89 29 20 08 	sll  %g4, 8, %g4
    44e0:	86 10 c0 01 	or  %g3, %g1, %g3
    44e4:	d8 3a 3f f9 	std  %o4, [ %o0 + -7 ]
    44e8:	c4 3a 20 01 	std  %g2, [ %o0 + 1 ]
    44ec:	83 29 60 08 	sll  %g5, 8, %g1
    44f0:	98 11 80 04 	or  %g6, %g4, %o4
    44f4:	c4 1a 60 10 	ldd  [ %o1 + 0x10 ], %g2
    44f8:	c8 1a 60 18 	ldd  [ %o1 + 0x18 ], %g4
    44fc:	9b 30 a0 18 	srl  %g2, 0x18, %o5
    4500:	8d 30 e0 18 	srl  %g3, 0x18, %g6
    4504:	85 28 a0 08 	sll  %g2, 8, %g2
    4508:	9a 13 40 01 	or  %o5, %g1, %o5
    450c:	83 28 e0 08 	sll  %g3, 8, %g1
    4510:	84 11 80 02 	or  %g6, %g2, %g2
    4514:	87 31 20 18 	srl  %g4, 0x18, %g3
    4518:	8d 31 60 18 	srl  %g5, 0x18, %g6
    451c:	89 29 20 08 	sll  %g4, 8, %g4
    4520:	86 10 c0 01 	or  %g3, %g1, %g3
    4524:	d8 3a 20 09 	std  %o4, [ %o0 + 9 ]
    4528:	c4 3a 20 11 	std  %g2, [ %o0 + 0x11 ]
    452c:	83 29 60 08 	sll  %g5, 8, %g1
    4530:	98 11 80 04 	or  %g6, %g4, %o4
    4534:	c4 1a 60 20 	ldd  [ %o1 + 0x20 ], %g2
    4538:	c8 1a 60 28 	ldd  [ %o1 + 0x28 ], %g4
    453c:	9b 30 a0 18 	srl  %g2, 0x18, %o5
    4540:	8d 30 e0 18 	srl  %g3, 0x18, %g6
    4544:	85 28 a0 08 	sll  %g2, 8, %g2
    4548:	9a 13 40 01 	or  %o5, %g1, %o5
    454c:	83 28 e0 08 	sll  %g3, 8, %g1
    4550:	84 11 80 02 	or  %g6, %g2, %g2
    4554:	87 31 20 18 	srl  %g4, 0x18, %g3
    4558:	8d 31 60 18 	srl  %g5, 0x18, %g6
    455c:	89 29 20 08 	sll  %g4, 8, %g4
    4560:	86 10 c0 01 	or  %g3, %g1, %g3
    4564:	d8 3a 20 19 	std  %o4, [ %o0 + 0x19 ]
    4568:	c4 3a 20 21 	std  %g2, [ %o0 + 0x21 ]
    456c:	83 29 60 08 	sll  %g5, 8, %g1
    4570:	98 11 80 04 	or  %g6, %g4, %o4
    4574:	c4 1a 60 30 	ldd  [ %o1 + 0x30 ], %g2
    4578:	c8 1a 60 38 	ldd  [ %o1 + 0x38 ], %g4
    457c:	9b 30 a0 18 	srl  %g2, 0x18, %o5
    4580:	8d 30 e0 18 	srl  %g3, 0x18, %g6
    4584:	85 28 a0 08 	sll  %g2, 8, %g2
    4588:	9a 13 40 01 	or  %o5, %g1, %o5
    458c:	83 28 e0 08 	sll  %g3, 8, %g1
    4590:	84 11 80 02 	or  %g6, %g2, %g2
    4594:	87 31 20 18 	srl  %g4, 0x18, %g3
    4598:	8d 31 60 18 	srl  %g5, 0x18, %g6
    459c:	89 29 20 08 	sll  %g4, 8, %g4
    45a0:	86 10 c0 01 	or  %g3, %g1, %g3
    45a4:	d8 3a 20 29 	std  %o4, [ %o0 + 0x29 ]
    45a8:	c4 3a 20 31 	std  %g2, [ %o0 + 0x31 ]
    45ac:	83 29 60 08 	sll  %g5, 8, %g1
    45b0:	98 11 80 04 	or  %g6, %g4, %o4
    45b4:	96 a2 e0 40 	subcc  %o3, 0x40, %o3
    45b8:	92 02 60 40 	add  %o1, 0x40, %o1
    45bc:	12 bf ff be 	bne  44b4 <__GI_memcpy+0x638>
    45c0:	90 02 20 40 	add  %o0, 0x40, %o0
    45c4:	96 8a a0 30 	andcc  %o2, 0x30, %o3
    45c8:	22 80 00 17 	be,a   4624 <__GI_memcpy+0x7a8>
    45cc:	85 30 60 10 	srl  %g1, 0x10, %g2
    45d0:	c4 1a 60 00 	ldd  [ %o1 ], %g2
    45d4:	c8 1a 60 08 	ldd  [ %o1 + 8 ], %g4
    45d8:	9b 30 a0 18 	srl  %g2, 0x18, %o5
    45dc:	8d 30 e0 18 	srl  %g3, 0x18, %g6
    45e0:	85 28 a0 08 	sll  %g2, 8, %g2
    45e4:	9a 13 40 01 	or  %o5, %g1, %o5
    45e8:	83 28 e0 08 	sll  %g3, 8, %g1
    45ec:	84 11 80 02 	or  %g6, %g2, %g2
    45f0:	87 31 20 18 	srl  %g4, 0x18, %g3
    45f4:	8d 31 60 18 	srl  %g5, 0x18, %g6
    45f8:	89 29 20 08 	sll  %g4, 8, %g4
    45fc:	86 10 c0 01 	or  %g3, %g1, %g3
    4600:	d8 3a 3f f9 	std  %o4, [ %o0 + -7 ]
    4604:	c4 3a 20 01 	std  %g2, [ %o0 + 1 ]
    4608:	83 29 60 08 	sll  %g5, 8, %g1
    460c:	98 11 80 04 	or  %g6, %g4, %o4
    4610:	96 a2 e0 10 	subcc  %o3, 0x10, %o3
    4614:	92 02 60 10 	add  %o1, 0x10, %o1
    4618:	12 bf ff ee 	bne  45d0 <__GI_memcpy+0x754>
    461c:	90 02 20 10 	add  %o0, 0x10, %o0
    4620:	85 30 60 10 	srl  %g1, 0x10, %g2
    4624:	d8 22 3f f9 	st  %o4, [ %o0 + -7 ]
    4628:	c4 32 3f fd 	sth  %g2, [ %o0 + -3 ]
    462c:	89 30 60 08 	srl  %g1, 8, %g4
    4630:	10 80 01 f5 	b  4e04 <__GI_memcpy+0xf88>
    4634:	c8 2a 3f ff 	stb  %g4, [ %o0 + -1 ]
    4638:	c4 02 40 00 	ld  [ %o1 ], %g2
    463c:	92 02 60 04 	add  %o1, 4, %o1
    4640:	87 30 a0 10 	srl  %g2, 0x10, %g3
    4644:	8a 0a 20 07 	and  %o0, 7, %g5
    4648:	c6 32 00 00 	sth  %g3, [ %o0 ]
    464c:	80 a1 60 06 	cmp  %g5, 6
    4650:	83 28 a0 10 	sll  %g2, 0x10, %g1
    4654:	90 02 20 04 	add  %o0, 4, %o0
    4658:	02 80 01 8e 	be  4c90 <__GI_memcpy+0xe14>
    465c:	96 0a bf c0 	and  %o2, -64, %o3
    4660:	d8 02 3f fa 	ld  [ %o0 + -6 ], %o4
    4664:	c4 1a 60 00 	ldd  [ %o1 ], %g2
    4668:	c8 1a 60 08 	ldd  [ %o1 + 8 ], %g4
    466c:	9b 30 a0 10 	srl  %g2, 0x10, %o5
    4670:	8d 30 e0 10 	srl  %g3, 0x10, %g6
    4674:	85 28 a0 10 	sll  %g2, 0x10, %g2
    4678:	9a 13 40 01 	or  %o5, %g1, %o5
    467c:	83 28 e0 10 	sll  %g3, 0x10, %g1
    4680:	84 11 80 02 	or  %g6, %g2, %g2
    4684:	87 31 20 10 	srl  %g4, 0x10, %g3
    4688:	8d 31 60 10 	srl  %g5, 0x10, %g6
    468c:	89 29 20 10 	sll  %g4, 0x10, %g4
    4690:	86 10 c0 01 	or  %g3, %g1, %g3
    4694:	d8 3a 3f fa 	std  %o4, [ %o0 + -6 ]
    4698:	c4 3a 20 02 	std  %g2, [ %o0 + 2 ]
    469c:	83 29 60 10 	sll  %g5, 0x10, %g1
    46a0:	98 11 80 04 	or  %g6, %g4, %o4
    46a4:	c4 1a 60 10 	ldd  [ %o1 + 0x10 ], %g2
    46a8:	c8 1a 60 18 	ldd  [ %o1 + 0x18 ], %g4
    46ac:	9b 30 a0 10 	srl  %g2, 0x10, %o5
    46b0:	8d 30 e0 10 	srl  %g3, 0x10, %g6
    46b4:	85 28 a0 10 	sll  %g2, 0x10, %g2
    46b8:	9a 13 40 01 	or  %o5, %g1, %o5
    46bc:	83 28 e0 10 	sll  %g3, 0x10, %g1
    46c0:	84 11 80 02 	or  %g6, %g2, %g2
    46c4:	87 31 20 10 	srl  %g4, 0x10, %g3
    46c8:	8d 31 60 10 	srl  %g5, 0x10, %g6
    46cc:	89 29 20 10 	sll  %g4, 0x10, %g4
    46d0:	86 10 c0 01 	or  %g3, %g1, %g3
    46d4:	d8 3a 20 0a 	std  %o4, [ %o0 + 0xa ]
    46d8:	c4 3a 20 12 	std  %g2, [ %o0 + 0x12 ]
    46dc:	83 29 60 10 	sll  %g5, 0x10, %g1
    46e0:	98 11 80 04 	or  %g6, %g4, %o4
    46e4:	c4 1a 60 20 	ldd  [ %o1 + 0x20 ], %g2
    46e8:	c8 1a 60 28 	ldd  [ %o1 + 0x28 ], %g4
    46ec:	9b 30 a0 10 	srl  %g2, 0x10, %o5
    46f0:	8d 30 e0 10 	srl  %g3, 0x10, %g6
    46f4:	85 28 a0 10 	sll  %g2, 0x10, %g2
    46f8:	9a 13 40 01 	or  %o5, %g1, %o5
    46fc:	83 28 e0 10 	sll  %g3, 0x10, %g1
    4700:	84 11 80 02 	or  %g6, %g2, %g2
    4704:	87 31 20 10 	srl  %g4, 0x10, %g3
    4708:	8d 31 60 10 	srl  %g5, 0x10, %g6
    470c:	89 29 20 10 	sll  %g4, 0x10, %g4
    4710:	86 10 c0 01 	or  %g3, %g1, %g3
    4714:	d8 3a 20 1a 	std  %o4, [ %o0 + 0x1a ]
    4718:	c4 3a 20 22 	std  %g2, [ %o0 + 0x22 ]
    471c:	83 29 60 10 	sll  %g5, 0x10, %g1
    4720:	98 11 80 04 	or  %g6, %g4, %o4
    4724:	c4 1a 60 30 	ldd  [ %o1 + 0x30 ], %g2
    4728:	c8 1a 60 38 	ldd  [ %o1 + 0x38 ], %g4
    472c:	9b 30 a0 10 	srl  %g2, 0x10, %o5
    4730:	8d 30 e0 10 	srl  %g3, 0x10, %g6
    4734:	85 28 a0 10 	sll  %g2, 0x10, %g2
    4738:	9a 13 40 01 	or  %o5, %g1, %o5
    473c:	83 28 e0 10 	sll  %g3, 0x10, %g1
    4740:	84 11 80 02 	or  %g6, %g2, %g2
    4744:	87 31 20 10 	srl  %g4, 0x10, %g3
    4748:	8d 31 60 10 	srl  %g5, 0x10, %g6
    474c:	89 29 20 10 	sll  %g4, 0x10, %g4
    4750:	86 10 c0 01 	or  %g3, %g1, %g3
    4754:	d8 3a 20 2a 	std  %o4, [ %o0 + 0x2a ]
    4758:	c4 3a 20 32 	std  %g2, [ %o0 + 0x32 ]
    475c:	83 29 60 10 	sll  %g5, 0x10, %g1
    4760:	98 11 80 04 	or  %g6, %g4, %o4
    4764:	96 a2 e0 40 	subcc  %o3, 0x40, %o3
    4768:	92 02 60 40 	add  %o1, 0x40, %o1
    476c:	12 bf ff be 	bne  4664 <__GI_memcpy+0x7e8>
    4770:	90 02 20 40 	add  %o0, 0x40, %o0
    4774:	96 8a a0 30 	andcc  %o2, 0x30, %o3
    4778:	22 80 00 17 	be,a   47d4 <__GI_memcpy+0x958>
    477c:	85 30 60 10 	srl  %g1, 0x10, %g2
    4780:	c4 1a 60 00 	ldd  [ %o1 ], %g2
    4784:	c8 1a 60 08 	ldd  [ %o1 + 8 ], %g4
    4788:	9b 30 a0 10 	srl  %g2, 0x10, %o5
    478c:	8d 30 e0 10 	srl  %g3, 0x10, %g6
    4790:	85 28 a0 10 	sll  %g2, 0x10, %g2
    4794:	9a 13 40 01 	or  %o5, %g1, %o5
    4798:	83 28 e0 10 	sll  %g3, 0x10, %g1
    479c:	84 11 80 02 	or  %g6, %g2, %g2
    47a0:	87 31 20 10 	srl  %g4, 0x10, %g3
    47a4:	8d 31 60 10 	srl  %g5, 0x10, %g6
    47a8:	89 29 20 10 	sll  %g4, 0x10, %g4
    47ac:	86 10 c0 01 	or  %g3, %g1, %g3
    47b0:	d8 3a 3f fa 	std  %o4, [ %o0 + -6 ]
    47b4:	c4 3a 20 02 	std  %g2, [ %o0 + 2 ]
    47b8:	83 29 60 10 	sll  %g5, 0x10, %g1
    47bc:	98 11 80 04 	or  %g6, %g4, %o4
    47c0:	96 a2 e0 10 	subcc  %o3, 0x10, %o3
    47c4:	92 02 60 10 	add  %o1, 0x10, %o1
    47c8:	12 bf ff ee 	bne  4780 <__GI_memcpy+0x904>
    47cc:	90 02 20 10 	add  %o0, 0x10, %o0
    47d0:	85 30 60 10 	srl  %g1, 0x10, %g2
    47d4:	d8 22 3f fa 	st  %o4, [ %o0 + -6 ]
    47d8:	10 80 01 8b 	b  4e04 <__GI_memcpy+0xf88>
    47dc:	c4 32 3f fe 	sth  %g2, [ %o0 + -2 ]
    47e0:	c4 02 40 00 	ld  [ %o1 ], %g2
    47e4:	94 22 a0 04 	sub  %o2, 4, %o2
    47e8:	87 30 a0 18 	srl  %g2, 0x18, %g3
    47ec:	8a 0a 20 07 	and  %o0, 7, %g5
    47f0:	c6 2a 00 00 	stb  %g3, [ %o0 ]
    47f4:	80 a1 60 05 	cmp  %g5, 5
    47f8:	89 30 a0 08 	srl  %g2, 8, %g4
    47fc:	83 28 a0 18 	sll  %g2, 0x18, %g1
    4800:	c8 32 20 01 	sth  %g4, [ %o0 + 1 ]
    4804:	92 02 60 04 	add  %o1, 4, %o1
    4808:	02 80 00 c3 	be  4b14 <__GI_memcpy+0xc98>
    480c:	96 0a bf c0 	and  %o2, -64, %o3
    4810:	d8 02 3f ff 	ld  [ %o0 + -1 ], %o4
    4814:	90 02 20 04 	add  %o0, 4, %o0
    4818:	c4 1a 60 00 	ldd  [ %o1 ], %g2
    481c:	c8 1a 60 08 	ldd  [ %o1 + 8 ], %g4
    4820:	9b 30 a0 08 	srl  %g2, 8, %o5
    4824:	8d 30 e0 08 	srl  %g3, 8, %g6
    4828:	85 28 a0 18 	sll  %g2, 0x18, %g2
    482c:	9a 13 40 01 	or  %o5, %g1, %o5
    4830:	83 28 e0 18 	sll  %g3, 0x18, %g1
    4834:	84 11 80 02 	or  %g6, %g2, %g2
    4838:	87 31 20 08 	srl  %g4, 8, %g3
    483c:	8d 31 60 08 	srl  %g5, 8, %g6
    4840:	89 29 20 18 	sll  %g4, 0x18, %g4
    4844:	86 10 c0 01 	or  %g3, %g1, %g3
    4848:	d8 3a 3f fb 	std  %o4, [ %o0 + -5 ]
    484c:	c4 3a 20 03 	std  %g2, [ %o0 + 3 ]
    4850:	83 29 60 18 	sll  %g5, 0x18, %g1
    4854:	98 11 80 04 	or  %g6, %g4, %o4
    4858:	c4 1a 60 10 	ldd  [ %o1 + 0x10 ], %g2
    485c:	c8 1a 60 18 	ldd  [ %o1 + 0x18 ], %g4
    4860:	9b 30 a0 08 	srl  %g2, 8, %o5
    4864:	8d 30 e0 08 	srl  %g3, 8, %g6
    4868:	85 28 a0 18 	sll  %g2, 0x18, %g2
    486c:	9a 13 40 01 	or  %o5, %g1, %o5
    4870:	83 28 e0 18 	sll  %g3, 0x18, %g1
    4874:	84 11 80 02 	or  %g6, %g2, %g2
    4878:	87 31 20 08 	srl  %g4, 8, %g3
    487c:	8d 31 60 08 	srl  %g5, 8, %g6
    4880:	89 29 20 18 	sll  %g4, 0x18, %g4
    4884:	86 10 c0 01 	or  %g3, %g1, %g3
    4888:	d8 3a 20 0b 	std  %o4, [ %o0 + 0xb ]
    488c:	c4 3a 20 13 	std  %g2, [ %o0 + 0x13 ]
    4890:	83 29 60 18 	sll  %g5, 0x18, %g1
    4894:	98 11 80 04 	or  %g6, %g4, %o4
    4898:	c4 1a 60 20 	ldd  [ %o1 + 0x20 ], %g2
    489c:	c8 1a 60 28 	ldd  [ %o1 + 0x28 ], %g4
    48a0:	9b 30 a0 08 	srl  %g2, 8, %o5
    48a4:	8d 30 e0 08 	srl  %g3, 8, %g6
    48a8:	85 28 a0 18 	sll  %g2, 0x18, %g2
    48ac:	9a 13 40 01 	or  %o5, %g1, %o5
    48b0:	83 28 e0 18 	sll  %g3, 0x18, %g1
    48b4:	84 11 80 02 	or  %g6, %g2, %g2
    48b8:	87 31 20 08 	srl  %g4, 8, %g3
    48bc:	8d 31 60 08 	srl  %g5, 8, %g6
    48c0:	89 29 20 18 	sll  %g4, 0x18, %g4
    48c4:	86 10 c0 01 	or  %g3, %g1, %g3
    48c8:	d8 3a 20 1b 	std  %o4, [ %o0 + 0x1b ]
    48cc:	c4 3a 20 23 	std  %g2, [ %o0 + 0x23 ]
    48d0:	83 29 60 18 	sll  %g5, 0x18, %g1
    48d4:	98 11 80 04 	or  %g6, %g4, %o4
    48d8:	c4 1a 60 30 	ldd  [ %o1 + 0x30 ], %g2
    48dc:	c8 1a 60 38 	ldd  [ %o1 + 0x38 ], %g4
    48e0:	9b 30 a0 08 	srl  %g2, 8, %o5
    48e4:	8d 30 e0 08 	srl  %g3, 8, %g6
    48e8:	85 28 a0 18 	sll  %g2, 0x18, %g2
    48ec:	9a 13 40 01 	or  %o5, %g1, %o5
    48f0:	83 28 e0 18 	sll  %g3, 0x18, %g1
    48f4:	84 11 80 02 	or  %g6, %g2, %g2
    48f8:	87 31 20 08 	srl  %g4, 8, %g3
    48fc:	8d 31 60 08 	srl  %g5, 8, %g6
    4900:	89 29 20 18 	sll  %g4, 0x18, %g4
    4904:	86 10 c0 01 	or  %g3, %g1, %g3
    4908:	d8 3a 20 2b 	std  %o4, [ %o0 + 0x2b ]
    490c:	c4 3a 20 33 	std  %g2, [ %o0 + 0x33 ]
    4910:	83 29 60 18 	sll  %g5, 0x18, %g1
    4914:	98 11 80 04 	or  %g6, %g4, %o4
    4918:	96 a2 e0 40 	subcc  %o3, 0x40, %o3
    491c:	92 02 60 40 	add  %o1, 0x40, %o1
    4920:	12 bf ff be 	bne  4818 <__GI_memcpy+0x99c>
    4924:	90 02 20 40 	add  %o0, 0x40, %o0
    4928:	96 8a a0 30 	andcc  %o2, 0x30, %o3
    492c:	22 80 00 17 	be,a   4988 <__GI_memcpy+0xb0c>
    4930:	85 30 60 18 	srl  %g1, 0x18, %g2
    4934:	c4 1a 60 00 	ldd  [ %o1 ], %g2
    4938:	c8 1a 60 08 	ldd  [ %o1 + 8 ], %g4
    493c:	9b 30 a0 08 	srl  %g2, 8, %o5
    4940:	8d 30 e0 08 	srl  %g3, 8, %g6
    4944:	85 28 a0 18 	sll  %g2, 0x18, %g2
    4948:	9a 13 40 01 	or  %o5, %g1, %o5
    494c:	83 28 e0 18 	sll  %g3, 0x18, %g1
    4950:	84 11 80 02 	or  %g6, %g2, %g2
    4954:	87 31 20 08 	srl  %g4, 8, %g3
    4958:	8d 31 60 08 	srl  %g5, 8, %g6
    495c:	89 29 20 18 	sll  %g4, 0x18, %g4
    4960:	86 10 c0 01 	or  %g3, %g1, %g3
    4964:	d8 3a 3f fb 	std  %o4, [ %o0 + -5 ]
    4968:	c4 3a 20 03 	std  %g2, [ %o0 + 3 ]
    496c:	83 29 60 18 	sll  %g5, 0x18, %g1
    4970:	98 11 80 04 	or  %g6, %g4, %o4
    4974:	96 a2 e0 10 	subcc  %o3, 0x10, %o3
    4978:	92 02 60 10 	add  %o1, 0x10, %o1
    497c:	12 bf ff ee 	bne  4934 <__GI_memcpy+0xab8>
    4980:	90 02 20 10 	add  %o0, 0x10, %o0
    4984:	85 30 60 18 	srl  %g1, 0x18, %g2
    4988:	d8 22 3f fb 	st  %o4, [ %o0 + -5 ]
    498c:	10 80 01 1e 	b  4e04 <__GI_memcpy+0xf88>
    4990:	c4 2a 3f ff 	stb  %g2, [ %o0 + -1 ]
    4994:	c4 1a 60 00 	ldd  [ %o1 ], %g2
    4998:	c8 1a 60 08 	ldd  [ %o1 + 8 ], %g4
    499c:	99 30 a0 18 	srl  %g2, 0x18, %o4
    49a0:	9b 30 e0 18 	srl  %g3, 0x18, %o5
    49a4:	8d 28 a0 08 	sll  %g2, 8, %g6
    49a8:	84 13 00 01 	or  %o4, %g1, %g2
    49ac:	83 28 e0 08 	sll  %g3, 8, %g1
    49b0:	86 13 40 06 	or  %o5, %g6, %g3
    49b4:	99 31 20 18 	srl  %g4, 0x18, %o4
    49b8:	9b 31 60 18 	srl  %g5, 0x18, %o5
    49bc:	8d 29 20 08 	sll  %g4, 8, %g6
    49c0:	88 13 00 01 	or  %o4, %g1, %g4
    49c4:	83 29 60 08 	sll  %g5, 8, %g1
    49c8:	8a 13 40 06 	or  %o5, %g6, %g5
    49cc:	c4 3a 3f fd 	std  %g2, [ %o0 + -3 ]
    49d0:	c8 3a 20 05 	std  %g4, [ %o0 + 5 ]
    49d4:	c4 1a 60 10 	ldd  [ %o1 + 0x10 ], %g2
    49d8:	c8 1a 60 18 	ldd  [ %o1 + 0x18 ], %g4
    49dc:	99 30 a0 18 	srl  %g2, 0x18, %o4
    49e0:	9b 30 e0 18 	srl  %g3, 0x18, %o5
    49e4:	8d 28 a0 08 	sll  %g2, 8, %g6
    49e8:	84 13 00 01 	or  %o4, %g1, %g2
    49ec:	83 28 e0 08 	sll  %g3, 8, %g1
    49f0:	86 13 40 06 	or  %o5, %g6, %g3
    49f4:	99 31 20 18 	srl  %g4, 0x18, %o4
    49f8:	9b 31 60 18 	srl  %g5, 0x18, %o5
    49fc:	8d 29 20 08 	sll  %g4, 8, %g6
    4a00:	88 13 00 01 	or  %o4, %g1, %g4
    4a04:	83 29 60 08 	sll  %g5, 8, %g1
    4a08:	8a 13 40 06 	or  %o5, %g6, %g5
    4a0c:	c4 3a 20 0d 	std  %g2, [ %o0 + 0xd ]
    4a10:	c8 3a 20 15 	std  %g4, [ %o0 + 0x15 ]
    4a14:	c4 1a 60 20 	ldd  [ %o1 + 0x20 ], %g2
    4a18:	c8 1a 60 28 	ldd  [ %o1 + 0x28 ], %g4
    4a1c:	99 30 a0 18 	srl  %g2, 0x18, %o4
    4a20:	9b 30 e0 18 	srl  %g3, 0x18, %o5
    4a24:	8d 28 a0 08 	sll  %g2, 8, %g6
    4a28:	84 13 00 01 	or  %o4, %g1, %g2
    4a2c:	83 28 e0 08 	sll  %g3, 8, %g1
    4a30:	86 13 40 06 	or  %o5, %g6, %g3
    4a34:	99 31 20 18 	srl  %g4, 0x18, %o4
    4a38:	9b 31 60 18 	srl  %g5, 0x18, %o5
    4a3c:	8d 29 20 08 	sll  %g4, 8, %g6
    4a40:	88 13 00 01 	or  %o4, %g1, %g4
    4a44:	83 29 60 08 	sll  %g5, 8, %g1
    4a48:	8a 13 40 06 	or  %o5, %g6, %g5
    4a4c:	c4 3a 20 1d 	std  %g2, [ %o0 + 0x1d ]
    4a50:	c8 3a 20 25 	std  %g4, [ %o0 + 0x25 ]
    4a54:	c4 1a 60 30 	ldd  [ %o1 + 0x30 ], %g2
    4a58:	c8 1a 60 38 	ldd  [ %o1 + 0x38 ], %g4
    4a5c:	99 30 a0 18 	srl  %g2, 0x18, %o4
    4a60:	9b 30 e0 18 	srl  %g3, 0x18, %o5
    4a64:	8d 28 a0 08 	sll  %g2, 8, %g6
    4a68:	84 13 00 01 	or  %o4, %g1, %g2
    4a6c:	83 28 e0 08 	sll  %g3, 8, %g1
    4a70:	86 13 40 06 	or  %o5, %g6, %g3
    4a74:	99 31 20 18 	srl  %g4, 0x18, %o4
    4a78:	9b 31 60 18 	srl  %g5, 0x18, %o5
    4a7c:	8d 29 20 08 	sll  %g4, 8, %g6
    4a80:	88 13 00 01 	or  %o4, %g1, %g4
    4a84:	83 29 60 08 	sll  %g5, 8, %g1
    4a88:	8a 13 40 06 	or  %o5, %g6, %g5
    4a8c:	c4 3a 20 2d 	std  %g2, [ %o0 + 0x2d ]
    4a90:	c8 3a 20 35 	std  %g4, [ %o0 + 0x35 ]
    4a94:	96 a2 e0 40 	subcc  %o3, 0x40, %o3
    4a98:	92 02 60 40 	add  %o1, 0x40, %o1
    4a9c:	12 bf ff be 	bne  4994 <__GI_memcpy+0xb18>
    4aa0:	90 02 20 40 	add  %o0, 0x40, %o0
    4aa4:	96 8a a0 30 	andcc  %o2, 0x30, %o3
    4aa8:	22 80 00 17 	be,a   4b04 <__GI_memcpy+0xc88>
    4aac:	85 30 60 10 	srl  %g1, 0x10, %g2
    4ab0:	c4 1a 60 00 	ldd  [ %o1 ], %g2
    4ab4:	c8 1a 60 08 	ldd  [ %o1 + 8 ], %g4
    4ab8:	99 30 a0 18 	srl  %g2, 0x18, %o4
    4abc:	9b 30 e0 18 	srl  %g3, 0x18, %o5
    4ac0:	8d 28 a0 08 	sll  %g2, 8, %g6
    4ac4:	84 13 00 01 	or  %o4, %g1, %g2
    4ac8:	83 28 e0 08 	sll  %g3, 8, %g1
    4acc:	86 13 40 06 	or  %o5, %g6, %g3
    4ad0:	99 31 20 18 	srl  %g4, 0x18, %o4
    4ad4:	9b 31 60 18 	srl  %g5, 0x18, %o5
    4ad8:	8d 29 20 08 	sll  %g4, 8, %g6
    4adc:	88 13 00 01 	or  %o4, %g1, %g4
    4ae0:	83 29 60 08 	sll  %g5, 8, %g1
    4ae4:	8a 13 40 06 	or  %o5, %g6, %g5
    4ae8:	c4 3a 3f fd 	std  %g2, [ %o0 + -3 ]
    4aec:	c8 3a 20 05 	std  %g4, [ %o0 + 5 ]
    4af0:	96 a2 e0 10 	subcc  %o3, 0x10, %o3
    4af4:	92 02 60 10 	add  %o1, 0x10, %o1
    4af8:	12 bf ff ee 	bne  4ab0 <__GI_memcpy+0xc34>
    4afc:	90 02 20 10 	add  %o0, 0x10, %o0
    4b00:	85 30 60 10 	srl  %g1, 0x10, %g2
    4b04:	c4 32 3f fd 	sth  %g2, [ %o0 + -3 ]
    4b08:	89 30 60 08 	srl  %g1, 8, %g4
    4b0c:	10 80 00 be 	b  4e04 <__GI_memcpy+0xf88>
    4b10:	c8 2a 3f ff 	stb  %g4, [ %o0 + -1 ]
    4b14:	c4 1a 60 00 	ldd  [ %o1 ], %g2
    4b18:	c8 1a 60 08 	ldd  [ %o1 + 8 ], %g4
    4b1c:	99 30 a0 08 	srl  %g2, 8, %o4
    4b20:	9b 30 e0 08 	srl  %g3, 8, %o5
    4b24:	8d 28 a0 18 	sll  %g2, 0x18, %g6
    4b28:	84 13 00 01 	or  %o4, %g1, %g2
    4b2c:	83 28 e0 18 	sll  %g3, 0x18, %g1
    4b30:	86 13 40 06 	or  %o5, %g6, %g3
    4b34:	99 31 20 08 	srl  %g4, 8, %o4
    4b38:	9b 31 60 08 	srl  %g5, 8, %o5
    4b3c:	8d 29 20 18 	sll  %g4, 0x18, %g6
    4b40:	88 13 00 01 	or  %o4, %g1, %g4
    4b44:	83 29 60 18 	sll  %g5, 0x18, %g1
    4b48:	8a 13 40 06 	or  %o5, %g6, %g5
    4b4c:	c4 3a 20 03 	std  %g2, [ %o0 + 3 ]
    4b50:	c8 3a 20 0b 	std  %g4, [ %o0 + 0xb ]
    4b54:	c4 1a 60 10 	ldd  [ %o1 + 0x10 ], %g2
    4b58:	c8 1a 60 18 	ldd  [ %o1 + 0x18 ], %g4
    4b5c:	99 30 a0 08 	srl  %g2, 8, %o4
    4b60:	9b 30 e0 08 	srl  %g3, 8, %o5
    4b64:	8d 28 a0 18 	sll  %g2, 0x18, %g6
    4b68:	84 13 00 01 	or  %o4, %g1, %g2
    4b6c:	83 28 e0 18 	sll  %g3, 0x18, %g1
    4b70:	86 13 40 06 	or  %o5, %g6, %g3
    4b74:	99 31 20 08 	srl  %g4, 8, %o4
    4b78:	9b 31 60 08 	srl  %g5, 8, %o5
    4b7c:	8d 29 20 18 	sll  %g4, 0x18, %g6
    4b80:	88 13 00 01 	or  %o4, %g1, %g4
    4b84:	83 29 60 18 	sll  %g5, 0x18, %g1
    4b88:	8a 13 40 06 	or  %o5, %g6, %g5
    4b8c:	c4 3a 20 13 	std  %g2, [ %o0 + 0x13 ]
    4b90:	c8 3a 20 1b 	std  %g4, [ %o0 + 0x1b ]
    4b94:	c4 1a 60 20 	ldd  [ %o1 + 0x20 ], %g2
    4b98:	c8 1a 60 28 	ldd  [ %o1 + 0x28 ], %g4
    4b9c:	99 30 a0 08 	srl  %g2, 8, %o4
    4ba0:	9b 30 e0 08 	srl  %g3, 8, %o5
    4ba4:	8d 28 a0 18 	sll  %g2, 0x18, %g6
    4ba8:	84 13 00 01 	or  %o4, %g1, %g2
    4bac:	83 28 e0 18 	sll  %g3, 0x18, %g1
    4bb0:	86 13 40 06 	or  %o5, %g6, %g3
    4bb4:	99 31 20 08 	srl  %g4, 8, %o4
    4bb8:	9b 31 60 08 	srl  %g5, 8, %o5
    4bbc:	8d 29 20 18 	sll  %g4, 0x18, %g6
    4bc0:	88 13 00 01 	or  %o4, %g1, %g4
    4bc4:	83 29 60 18 	sll  %g5, 0x18, %g1
    4bc8:	8a 13 40 06 	or  %o5, %g6, %g5
    4bcc:	c4 3a 20 23 	std  %g2, [ %o0 + 0x23 ]
    4bd0:	c8 3a 20 2b 	std  %g4, [ %o0 + 0x2b ]
    4bd4:	c4 1a 60 30 	ldd  [ %o1 + 0x30 ], %g2
    4bd8:	c8 1a 60 38 	ldd  [ %o1 + 0x38 ], %g4
    4bdc:	99 30 a0 08 	srl  %g2, 8, %o4
    4be0:	9b 30 e0 08 	srl  %g3, 8, %o5
    4be4:	8d 28 a0 18 	sll  %g2, 0x18, %g6
    4be8:	84 13 00 01 	or  %o4, %g1, %g2
    4bec:	83 28 e0 18 	sll  %g3, 0x18, %g1
    4bf0:	86 13 40 06 	or  %o5, %g6, %g3
    4bf4:	99 31 20 08 	srl  %g4, 8, %o4
    4bf8:	9b 31 60 08 	srl  %g5, 8, %o5
    4bfc:	8d 29 20 18 	sll  %g4, 0x18, %g6
    4c00:	88 13 00 01 	or  %o4, %g1, %g4
    4c04:	83 29 60 18 	sll  %g5, 0x18, %g1
    4c08:	8a 13 40 06 	or  %o5, %g6, %g5
    4c0c:	c4 3a 20 33 	std  %g2, [ %o0 + 0x33 ]
    4c10:	c8 3a 20 3b 	std  %g4, [ %o0 + 0x3b ]
    4c14:	96 a2 e0 40 	subcc  %o3, 0x40, %o3
    4c18:	92 02 60 40 	add  %o1, 0x40, %o1
    4c1c:	12 bf ff be 	bne  4b14 <__GI_memcpy+0xc98>
    4c20:	90 02 20 40 	add  %o0, 0x40, %o0
    4c24:	96 8a a0 30 	andcc  %o2, 0x30, %o3
    4c28:	22 80 00 17 	be,a   4c84 <__GI_memcpy+0xe08>
    4c2c:	85 30 60 18 	srl  %g1, 0x18, %g2
    4c30:	c4 1a 60 00 	ldd  [ %o1 ], %g2
    4c34:	c8 1a 60 08 	ldd  [ %o1 + 8 ], %g4
    4c38:	99 30 a0 08 	srl  %g2, 8, %o4
    4c3c:	9b 30 e0 08 	srl  %g3, 8, %o5
    4c40:	8d 28 a0 18 	sll  %g2, 0x18, %g6
    4c44:	84 13 00 01 	or  %o4, %g1, %g2
    4c48:	83 28 e0 18 	sll  %g3, 0x18, %g1
    4c4c:	86 13 40 06 	or  %o5, %g6, %g3
    4c50:	99 31 20 08 	srl  %g4, 8, %o4
    4c54:	9b 31 60 08 	srl  %g5, 8, %o5
    4c58:	8d 29 20 18 	sll  %g4, 0x18, %g6
    4c5c:	88 13 00 01 	or  %o4, %g1, %g4
    4c60:	83 29 60 18 	sll  %g5, 0x18, %g1
    4c64:	8a 13 40 06 	or  %o5, %g6, %g5
    4c68:	c4 3a 20 03 	std  %g2, [ %o0 + 3 ]
    4c6c:	c8 3a 20 0b 	std  %g4, [ %o0 + 0xb ]
    4c70:	96 a2 e0 10 	subcc  %o3, 0x10, %o3
    4c74:	92 02 60 10 	add  %o1, 0x10, %o1
    4c78:	12 bf ff ee 	bne  4c30 <__GI_memcpy+0xdb4>
    4c7c:	90 02 20 10 	add  %o0, 0x10, %o0
    4c80:	85 30 60 18 	srl  %g1, 0x18, %g2
    4c84:	c4 2a 20 03 	stb  %g2, [ %o0 + 3 ]
    4c88:	10 80 00 5f 	b  4e04 <__GI_memcpy+0xf88>
    4c8c:	90 02 20 04 	add  %o0, 4, %o0
    4c90:	c4 1a 60 00 	ldd  [ %o1 ], %g2
    4c94:	c8 1a 60 08 	ldd  [ %o1 + 8 ], %g4
    4c98:	99 30 a0 10 	srl  %g2, 0x10, %o4
    4c9c:	9b 30 e0 10 	srl  %g3, 0x10, %o5
    4ca0:	8d 28 a0 10 	sll  %g2, 0x10, %g6
    4ca4:	84 13 00 01 	or  %o4, %g1, %g2
    4ca8:	83 28 e0 10 	sll  %g3, 0x10, %g1
    4cac:	86 13 40 06 	or  %o5, %g6, %g3
    4cb0:	99 31 20 10 	srl  %g4, 0x10, %o4
    4cb4:	9b 31 60 10 	srl  %g5, 0x10, %o5
    4cb8:	8d 29 20 10 	sll  %g4, 0x10, %g6
    4cbc:	88 13 00 01 	or  %o4, %g1, %g4
    4cc0:	83 29 60 10 	sll  %g5, 0x10, %g1
    4cc4:	8a 13 40 06 	or  %o5, %g6, %g5
    4cc8:	c4 3a 3f fe 	std  %g2, [ %o0 + -2 ]
    4ccc:	c8 3a 20 06 	std  %g4, [ %o0 + 6 ]
    4cd0:	c4 1a 60 10 	ldd  [ %o1 + 0x10 ], %g2
    4cd4:	c8 1a 60 18 	ldd  [ %o1 + 0x18 ], %g4
    4cd8:	99 30 a0 10 	srl  %g2, 0x10, %o4
    4cdc:	9b 30 e0 10 	srl  %g3, 0x10, %o5
    4ce0:	8d 28 a0 10 	sll  %g2, 0x10, %g6
    4ce4:	84 13 00 01 	or  %o4, %g1, %g2
    4ce8:	83 28 e0 10 	sll  %g3, 0x10, %g1
    4cec:	86 13 40 06 	or  %o5, %g6, %g3
    4cf0:	99 31 20 10 	srl  %g4, 0x10, %o4
    4cf4:	9b 31 60 10 	srl  %g5, 0x10, %o5
    4cf8:	8d 29 20 10 	sll  %g4, 0x10, %g6
    4cfc:	88 13 00 01 	or  %o4, %g1, %g4
    4d00:	83 29 60 10 	sll  %g5, 0x10, %g1
    4d04:	8a 13 40 06 	or  %o5, %g6, %g5
    4d08:	c4 3a 20 0e 	std  %g2, [ %o0 + 0xe ]
    4d0c:	c8 3a 20 16 	std  %g4, [ %o0 + 0x16 ]
    4d10:	c4 1a 60 20 	ldd  [ %o1 + 0x20 ], %g2
    4d14:	c8 1a 60 28 	ldd  [ %o1 + 0x28 ], %g4
    4d18:	99 30 a0 10 	srl  %g2, 0x10, %o4
    4d1c:	9b 30 e0 10 	srl  %g3, 0x10, %o5
    4d20:	8d 28 a0 10 	sll  %g2, 0x10, %g6
    4d24:	84 13 00 01 	or  %o4, %g1, %g2
    4d28:	83 28 e0 10 	sll  %g3, 0x10, %g1
    4d2c:	86 13 40 06 	or  %o5, %g6, %g3
    4d30:	99 31 20 10 	srl  %g4, 0x10, %o4
    4d34:	9b 31 60 10 	srl  %g5, 0x10, %o5
    4d38:	8d 29 20 10 	sll  %g4, 0x10, %g6
    4d3c:	88 13 00 01 	or  %o4, %g1, %g4
    4d40:	83 29 60 10 	sll  %g5, 0x10, %g1
    4d44:	8a 13 40 06 	or  %o5, %g6, %g5
    4d48:	c4 3a 20 1e 	std  %g2, [ %o0 + 0x1e ]
    4d4c:	c8 3a 20 26 	std  %g4, [ %o0 + 0x26 ]
    4d50:	c4 1a 60 30 	ldd  [ %o1 + 0x30 ], %g2
    4d54:	c8 1a 60 38 	ldd  [ %o1 + 0x38 ], %g4
    4d58:	99 30 a0 10 	srl  %g2, 0x10, %o4
    4d5c:	9b 30 e0 10 	srl  %g3, 0x10, %o5
    4d60:	8d 28 a0 10 	sll  %g2, 0x10, %g6
    4d64:	84 13 00 01 	or  %o4, %g1, %g2
    4d68:	83 28 e0 10 	sll  %g3, 0x10, %g1
    4d6c:	86 13 40 06 	or  %o5, %g6, %g3
    4d70:	99 31 20 10 	srl  %g4, 0x10, %o4
    4d74:	9b 31 60 10 	srl  %g5, 0x10, %o5
    4d78:	8d 29 20 10 	sll  %g4, 0x10, %g6
    4d7c:	88 13 00 01 	or  %o4, %g1, %g4
    4d80:	83 29 60 10 	sll  %g5, 0x10, %g1
    4d84:	8a 13 40 06 	or  %o5, %g6, %g5
    4d88:	c4 3a 20 2e 	std  %g2, [ %o0 + 0x2e ]
    4d8c:	c8 3a 20 36 	std  %g4, [ %o0 + 0x36 ]
    4d90:	96 a2 e0 40 	subcc  %o3, 0x40, %o3
    4d94:	92 02 60 40 	add  %o1, 0x40, %o1
    4d98:	12 bf ff be 	bne  4c90 <__GI_memcpy+0xe14>
    4d9c:	90 02 20 40 	add  %o0, 0x40, %o0
    4da0:	96 8a a0 30 	andcc  %o2, 0x30, %o3
    4da4:	22 80 00 17 	be,a   4e00 <__GI_memcpy+0xf84>
    4da8:	85 30 60 10 	srl  %g1, 0x10, %g2
    4dac:	c4 1a 60 00 	ldd  [ %o1 ], %g2
    4db0:	c8 1a 60 08 	ldd  [ %o1 + 8 ], %g4
    4db4:	99 30 a0 10 	srl  %g2, 0x10, %o4
    4db8:	9b 30 e0 10 	srl  %g3, 0x10, %o5
    4dbc:	8d 28 a0 10 	sll  %g2, 0x10, %g6
    4dc0:	84 13 00 01 	or  %o4, %g1, %g2
    4dc4:	83 28 e0 10 	sll  %g3, 0x10, %g1
    4dc8:	86 13 40 06 	or  %o5, %g6, %g3
    4dcc:	99 31 20 10 	srl  %g4, 0x10, %o4
    4dd0:	9b 31 60 10 	srl  %g5, 0x10, %o5
    4dd4:	8d 29 20 10 	sll  %g4, 0x10, %g6
    4dd8:	88 13 00 01 	or  %o4, %g1, %g4
    4ddc:	83 29 60 10 	sll  %g5, 0x10, %g1
    4de0:	8a 13 40 06 	or  %o5, %g6, %g5
    4de4:	c4 3a 3f fe 	std  %g2, [ %o0 + -2 ]
    4de8:	c8 3a 20 06 	std  %g4, [ %o0 + 6 ]
    4dec:	96 a2 e0 10 	subcc  %o3, 0x10, %o3
    4df0:	92 02 60 10 	add  %o1, 0x10, %o1
    4df4:	12 bf ff ee 	bne  4dac <__GI_memcpy+0xf30>
    4df8:	90 02 20 10 	add  %o0, 0x10, %o0
    4dfc:	85 30 60 10 	srl  %g1, 0x10, %g2
    4e00:	c4 32 3f fe 	sth  %g2, [ %o0 + -2 ]
    4e04:	96 0a a0 0e 	and  %o2, 0xe, %o3
    4e08:	84 10 00 0f 	mov  %o7, %g2
    4e0c:	99 2a e0 03 	sll  %o3, 3, %o4
    4e10:	90 02 00 0b 	add  %o0, %o3, %o0
    4e14:	40 00 00 33 	call  4ee0 <__GI_memcpy+0x1064>
    4e18:	92 02 40 0b 	add  %o1, %o3, %o1
    4e1c:	9e 10 00 02 	mov  %g2, %o7
    4e20:	81 c3 60 84 	jmp  %o5 + 0x84
    4e24:	80 8a a0 01 	btst  1, %o2
    4e28:	c4 0a 7f f2 	ldub  [ %o1 + -14 ], %g2
    4e2c:	c6 0a 7f f3 	ldub  [ %o1 + -13 ], %g3
    4e30:	c4 2a 3f f2 	stb  %g2, [ %o0 + -14 ]
    4e34:	c6 2a 3f f3 	stb  %g3, [ %o0 + -13 ]
    4e38:	c4 0a 7f f4 	ldub  [ %o1 + -12 ], %g2
    4e3c:	c6 0a 7f f5 	ldub  [ %o1 + -11 ], %g3
    4e40:	c4 2a 3f f4 	stb  %g2, [ %o0 + -12 ]
    4e44:	c6 2a 3f f5 	stb  %g3, [ %o0 + -11 ]
    4e48:	c4 0a 7f f6 	ldub  [ %o1 + -10 ], %g2
    4e4c:	c6 0a 7f f7 	ldub  [ %o1 + -9 ], %g3
    4e50:	c4 2a 3f f6 	stb  %g2, [ %o0 + -10 ]
    4e54:	c6 2a 3f f7 	stb  %g3, [ %o0 + -9 ]
    4e58:	c4 0a 7f f8 	ldub  [ %o1 + -8 ], %g2
    4e5c:	c6 0a 7f f9 	ldub  [ %o1 + -7 ], %g3
    4e60:	c4 2a 3f f8 	stb  %g2, [ %o0 + -8 ]
    4e64:	c6 2a 3f f9 	stb  %g3, [ %o0 + -7 ]
    4e68:	c4 0a 7f fa 	ldub  [ %o1 + -6 ], %g2
    4e6c:	c6 0a 7f fb 	ldub  [ %o1 + -5 ], %g3
    4e70:	c4 2a 3f fa 	stb  %g2, [ %o0 + -6 ]
    4e74:	c6 2a 3f fb 	stb  %g3, [ %o0 + -5 ]
    4e78:	c4 0a 7f fc 	ldub  [ %o1 + -4 ], %g2
    4e7c:	c6 0a 7f fd 	ldub  [ %o1 + -3 ], %g3
    4e80:	c4 2a 3f fc 	stb  %g2, [ %o0 + -4 ]
    4e84:	c6 2a 3f fd 	stb  %g3, [ %o0 + -3 ]
    4e88:	c4 0a 7f fe 	ldub  [ %o1 + -2 ], %g2
    4e8c:	c6 0a 7f ff 	ldub  [ %o1 + -1 ], %g3
    4e90:	c4 2a 3f fe 	stb  %g2, [ %o0 + -2 ]
    4e94:	c6 2a 3f ff 	stb  %g3, [ %o0 + -1 ]
    4e98:	02 80 00 04 	be  4ea8 <__GI_memcpy+0x102c>
    4e9c:	01 00 00 00 	nop 
    4ea0:	c4 0a 40 00 	ldub  [ %o1 ], %g2
    4ea4:	c4 2a 00 00 	stb  %g2, [ %o0 ]
    4ea8:	81 c3 e0 08 	retl 
    4eac:	d0 03 a0 40 	ld  [ %sp + 0x40 ], %o0
    4eb0:	12 bf ff d5 	bne  4e04 <__GI_memcpy+0xf88>
    4eb4:	80 8a a0 08 	btst  8, %o2
    4eb8:	02 80 00 08 	be  4ed8 <__GI_memcpy+0x105c>
    4ebc:	80 8a a0 04 	btst  4, %o2
    4ec0:	c4 02 60 00 	ld  [ %o1 ], %g2
    4ec4:	c6 02 60 04 	ld  [ %o1 + 4 ], %g3
    4ec8:	92 02 60 08 	add  %o1, 8, %o1
    4ecc:	c4 22 20 00 	st  %g2, [ %o0 ]
    4ed0:	c6 22 20 04 	st  %g3, [ %o0 + 4 ]
    4ed4:	90 02 20 08 	add  %o0, 8, %o0
    4ed8:	10 bf fc 6d 	b  408c <__GI_memcpy+0x210>
    4edc:	82 10 00 0a 	mov  %o2, %g1
    4ee0:	81 c3 e0 08 	retl 
    4ee4:	9a 23 c0 0c 	sub  %o7, %o4, %o5
    4ee8:	81 c3 e0 08 	retl 
    4eec:	9a 23 c0 06 	sub  %o7, %g6, %o5

00004ef0 <__udivdi3>:
    4ef0:	9d e3 bf a0 	save  %sp, -96, %sp
    4ef4:	2f 00 00 25 	sethi  %hi(0x9400), %l7
    4ef8:	40 00 10 c6 	call  9210 <__sparc_get_pc_thunk.l7>
    4efc:	ae 05 e3 70 	add  %l7, 0x370, %l7	! 9770 <__sparc_get_pc_thunk.l7+0x560>
    4f00:	80 a6 a0 00 	cmp  %i2, 0
    4f04:	12 80 00 50 	bne  5044 <__udivdi3+0x154>
    4f08:	84 10 00 1b 	mov  %i3, %g2
    4f0c:	80 a6 c0 18 	cmp  %i3, %i0
    4f10:	08 80 00 1a 	bleu  4f78 <__udivdi3+0x88>
    4f14:	80 a6 e0 00 	cmp  %i3, 0
    4f18:	84 10 00 19 	mov  %i1, %g2
    4f1c:	82 10 20 20 	mov  0x20, %g1
    4f20:	80 a6 00 1b 	cmp  %i0, %i3
    4f24:	0a 80 00 0c 	bcs  4f54 <__udivdi3+0x64>
    4f28:	84 c0 80 02 	addxcc  %g2, %g2, %g2
    4f2c:	b0 26 00 1b 	sub  %i0, %i3, %i0
    4f30:	b0 46 00 18 	addx  %i0, %i0, %i0
    4f34:	82 a0 60 01 	deccc  %g1
    4f38:	12 bf ff fb 	bne  4f24 <__udivdi3+0x34>
    4f3c:	80 a6 00 1b 	cmp  %i0, %i3
    4f40:	0a 80 00 0b 	bcs  4f6c <__udivdi3+0x7c>
    4f44:	84 c0 80 02 	addxcc  %g2, %g2, %g2
    4f48:	10 80 00 09 	b  4f6c <__udivdi3+0x7c>
    4f4c:	b0 26 00 1b 	sub  %i0, %i3, %i0
    4f50:	b0 26 00 1b 	sub  %i0, %i3, %i0
    4f54:	b0 c6 00 18 	addxcc  %i0, %i0, %i0
    4f58:	1a bf ff f8 	bcc  4f38 <__udivdi3+0x48>
    4f5c:	82 a0 60 01 	deccc  %g1
    4f60:	12 bf ff fc 	bne  4f50 <__udivdi3+0x60>
    4f64:	84 80 80 02 	addcc  %g2, %g2, %g2
    4f68:	b0 26 00 1b 	sub  %i0, %i3, %i0
    4f6c:	84 38 a0 00 	xnor  %g2, 0, %g2
    4f70:	10 80 00 aa 	b  5218 <__udivdi3+0x328>
    4f74:	b0 10 20 00 	clr  %i0
    4f78:	12 80 00 05 	bne  4f8c <__udivdi3+0x9c>
    4f7c:	90 10 20 01 	mov  1, %o0
    4f80:	40 00 01 65 	call  5514 <.udiv>
    4f84:	92 10 20 00 	clr  %o1
    4f88:	b6 10 00 08 	mov  %o0, %i3
    4f8c:	84 10 20 00 	clr  %g2
    4f90:	82 10 20 20 	mov  0x20, %g1
    4f94:	80 a0 80 1b 	cmp  %g2, %i3
    4f98:	0a 80 00 0c 	bcs  4fc8 <__udivdi3+0xd8>
    4f9c:	b0 c6 00 18 	addxcc  %i0, %i0, %i0
    4fa0:	84 20 80 1b 	sub  %g2, %i3, %g2
    4fa4:	84 40 80 02 	addx  %g2, %g2, %g2
    4fa8:	82 a0 60 01 	deccc  %g1
    4fac:	12 bf ff fb 	bne  4f98 <__udivdi3+0xa8>
    4fb0:	80 a0 80 1b 	cmp  %g2, %i3
    4fb4:	0a 80 00 0b 	bcs  4fe0 <__udivdi3+0xf0>
    4fb8:	b0 c6 00 18 	addxcc  %i0, %i0, %i0
    4fbc:	10 80 00 09 	b  4fe0 <__udivdi3+0xf0>
    4fc0:	84 20 80 1b 	sub  %g2, %i3, %g2
    4fc4:	84 20 80 1b 	sub  %g2, %i3, %g2
    4fc8:	84 c0 80 02 	addxcc  %g2, %g2, %g2
    4fcc:	1a bf ff f8 	bcc  4fac <__udivdi3+0xbc>
    4fd0:	82 a0 60 01 	deccc  %g1
    4fd4:	12 bf ff fc 	bne  4fc4 <__udivdi3+0xd4>
    4fd8:	b0 86 00 18 	addcc  %i0, %i0, %i0
    4fdc:	84 20 80 1b 	sub  %g2, %i3, %g2
    4fe0:	b0 3e 20 00 	xnor  %i0, 0, %i0
    4fe4:	86 10 00 02 	mov  %g2, %g3
    4fe8:	84 10 00 19 	mov  %i1, %g2
    4fec:	82 10 20 20 	mov  0x20, %g1
    4ff0:	80 a0 c0 1b 	cmp  %g3, %i3
    4ff4:	0a 80 00 0c 	bcs  5024 <__udivdi3+0x134>
    4ff8:	84 c0 80 02 	addxcc  %g2, %g2, %g2
    4ffc:	86 20 c0 1b 	sub  %g3, %i3, %g3
    5000:	86 40 c0 03 	addx  %g3, %g3, %g3
    5004:	82 a0 60 01 	deccc  %g1
    5008:	12 bf ff fb 	bne  4ff4 <__udivdi3+0x104>
    500c:	80 a0 c0 1b 	cmp  %g3, %i3
    5010:	0a 80 00 0b 	bcs  503c <__udivdi3+0x14c>
    5014:	84 c0 80 02 	addxcc  %g2, %g2, %g2
    5018:	10 80 00 09 	b  503c <__udivdi3+0x14c>
    501c:	86 20 c0 1b 	sub  %g3, %i3, %g3
    5020:	86 20 c0 1b 	sub  %g3, %i3, %g3
    5024:	86 c0 c0 03 	addxcc  %g3, %g3, %g3
    5028:	1a bf ff f8 	bcc  5008 <__udivdi3+0x118>
    502c:	82 a0 60 01 	deccc  %g1
    5030:	12 bf ff fc 	bne  5020 <__udivdi3+0x130>
    5034:	84 80 80 02 	addcc  %g2, %g2, %g2
    5038:	86 20 c0 1b 	sub  %g3, %i3, %g3
    503c:	84 38 a0 00 	xnor  %g2, 0, %g2
    5040:	30 80 00 76 	b,a   5218 <__udivdi3+0x328>
    5044:	80 a6 80 18 	cmp  %i2, %i0
    5048:	18 80 00 70 	bgu  5208 <__udivdi3+0x318>
    504c:	03 00 00 3f 	sethi  %hi(0xfc00), %g1
    5050:	82 10 63 ff 	or  %g1, 0x3ff, %g1	! ffff <ajit_global_interrupt_handlers+0xd57>
    5054:	80 a6 80 01 	cmp  %i2, %g1
    5058:	38 80 00 07 	bgu,a   5074 <__udivdi3+0x184>
    505c:	03 00 3f ff 	sethi  %hi(0xfffc00), %g1
    5060:	80 a6 a0 ff 	cmp  %i2, 0xff
    5064:	18 80 00 09 	bgu  5088 <__udivdi3+0x198>
    5068:	82 10 20 08 	mov  8, %g1
    506c:	10 80 00 07 	b  5088 <__udivdi3+0x198>
    5070:	82 10 20 00 	clr  %g1
    5074:	82 10 63 ff 	or  %g1, 0x3ff, %g1
    5078:	80 a0 40 1a 	cmp  %g1, %i2
    507c:	82 60 20 00 	subx  %g0, 0, %g1
    5080:	82 08 60 08 	and  %g1, 8, %g1
    5084:	82 00 60 10 	add  %g1, 0x10, %g1
    5088:	89 36 80 01 	srl  %i2, %g1, %g4
    508c:	07 00 00 01 	sethi  %hi(0x400), %g3
    5090:	86 18 fd 98 	xor  %g3, -616, %g3
    5094:	86 05 c0 03 	add  %l7, %g3, %g3
    5098:	c6 08 c0 04 	ldub  [ %g3 + %g4 ], %g3
    509c:	88 10 20 20 	mov  0x20, %g4
    50a0:	82 00 c0 01 	add  %g3, %g1, %g1
    50a4:	88 a1 00 01 	subcc  %g4, %g1, %g4
    50a8:	32 80 00 0a 	bne,a   50d0 <__udivdi3+0x1e0>
    50ac:	87 30 80 01 	srl  %g2, %g1, %g3
    50b0:	80 a6 40 02 	cmp  %i1, %g2
    50b4:	3a 80 00 05 	bcc,a   50c8 <__udivdi3+0x1d8>
    50b8:	b0 10 20 00 	clr  %i0
    50bc:	80 a6 80 18 	cmp  %i2, %i0
    50c0:	1a 80 00 53 	bcc  520c <__udivdi3+0x31c>
    50c4:	b0 10 20 00 	clr  %i0
    50c8:	10 80 00 54 	b  5218 <__udivdi3+0x328>
    50cc:	84 10 20 01 	mov  1, %g2
    50d0:	bb 28 80 04 	sll  %g2, %g4, %i5
    50d4:	b5 2e 80 04 	sll  %i2, %g4, %i2
    50d8:	b4 16 80 03 	or  %i2, %g3, %i2
    50dc:	87 36 00 01 	srl  %i0, %g1, %g3
    50e0:	83 36 40 01 	srl  %i1, %g1, %g1
    50e4:	b1 2e 00 04 	sll  %i0, %g4, %i0
    50e8:	b0 16 00 01 	or  %i0, %g1, %i0
    50ec:	82 10 20 20 	mov  0x20, %g1
    50f0:	80 a0 c0 1a 	cmp  %g3, %i2
    50f4:	0a 80 00 0c 	bcs  5124 <__udivdi3+0x234>
    50f8:	b0 c6 00 18 	addxcc  %i0, %i0, %i0
    50fc:	86 20 c0 1a 	sub  %g3, %i2, %g3
    5100:	86 40 c0 03 	addx  %g3, %g3, %g3
    5104:	82 a0 60 01 	deccc  %g1
    5108:	12 bf ff fb 	bne  50f4 <__udivdi3+0x204>
    510c:	80 a0 c0 1a 	cmp  %g3, %i2
    5110:	0a 80 00 0b 	bcs  513c <__udivdi3+0x24c>
    5114:	b0 c6 00 18 	addxcc  %i0, %i0, %i0
    5118:	10 80 00 09 	b  513c <__udivdi3+0x24c>
    511c:	86 20 c0 1a 	sub  %g3, %i2, %g3
    5120:	86 20 c0 1a 	sub  %g3, %i2, %g3
    5124:	86 c0 c0 03 	addxcc  %g3, %g3, %g3
    5128:	1a bf ff f8 	bcc  5108 <__udivdi3+0x218>
    512c:	82 a0 60 01 	deccc  %g1
    5130:	12 bf ff fc 	bne  5120 <__udivdi3+0x230>
    5134:	b0 86 00 18 	addcc  %i0, %i0, %i0
    5138:	86 20 c0 1a 	sub  %g3, %i2, %g3
    513c:	b0 3e 20 00 	xnor  %i0, 0, %i0
    5140:	81 80 00 18 	mov  %i0, %y
    5144:	9b 3f 60 1f 	sra  %i5, 0x1f, %o5
    5148:	9a 0e 00 0d 	and  %i0, %o5, %o5
    514c:	82 88 20 00 	andcc  %g0, 0, %g1
    5150:	83 20 40 1d 	mulscc  %g1, %i5, %g1
    5154:	83 20 40 1d 	mulscc  %g1, %i5, %g1
    5158:	83 20 40 1d 	mulscc  %g1, %i5, %g1
    515c:	83 20 40 1d 	mulscc  %g1, %i5, %g1
    5160:	83 20 40 1d 	mulscc  %g1, %i5, %g1
    5164:	83 20 40 1d 	mulscc  %g1, %i5, %g1
    5168:	83 20 40 1d 	mulscc  %g1, %i5, %g1
    516c:	83 20 40 1d 	mulscc  %g1, %i5, %g1
    5170:	83 20 40 1d 	mulscc  %g1, %i5, %g1
    5174:	83 20 40 1d 	mulscc  %g1, %i5, %g1
    5178:	83 20 40 1d 	mulscc  %g1, %i5, %g1
    517c:	83 20 40 1d 	mulscc  %g1, %i5, %g1
    5180:	83 20 40 1d 	mulscc  %g1, %i5, %g1
    5184:	83 20 40 1d 	mulscc  %g1, %i5, %g1
    5188:	83 20 40 1d 	mulscc  %g1, %i5, %g1
    518c:	83 20 40 1d 	mulscc  %g1, %i5, %g1
    5190:	83 20 40 1d 	mulscc  %g1, %i5, %g1
    5194:	83 20 40 1d 	mulscc  %g1, %i5, %g1
    5198:	83 20 40 1d 	mulscc  %g1, %i5, %g1
    519c:	83 20 40 1d 	mulscc  %g1, %i5, %g1
    51a0:	83 20 40 1d 	mulscc  %g1, %i5, %g1
    51a4:	83 20 40 1d 	mulscc  %g1, %i5, %g1
    51a8:	83 20 40 1d 	mulscc  %g1, %i5, %g1
    51ac:	83 20 40 1d 	mulscc  %g1, %i5, %g1
    51b0:	83 20 40 1d 	mulscc  %g1, %i5, %g1
    51b4:	83 20 40 1d 	mulscc  %g1, %i5, %g1
    51b8:	83 20 40 1d 	mulscc  %g1, %i5, %g1
    51bc:	83 20 40 1d 	mulscc  %g1, %i5, %g1
    51c0:	83 20 40 1d 	mulscc  %g1, %i5, %g1
    51c4:	83 20 40 1d 	mulscc  %g1, %i5, %g1
    51c8:	83 20 40 1d 	mulscc  %g1, %i5, %g1
    51cc:	83 20 40 1d 	mulscc  %g1, %i5, %g1
    51d0:	83 20 60 00 	mulscc  %g1, 0, %g1
    51d4:	ba 00 40 0d 	add  %g1, %o5, %i5
    51d8:	b9 40 00 00 	rd  %y, %i4
    51dc:	80 a7 40 03 	cmp  %i5, %g3
    51e0:	18 80 00 08 	bgu  5200 <__udivdi3+0x310>
    51e4:	84 10 00 18 	mov  %i0, %g2
    51e8:	b3 2e 40 04 	sll  %i1, %g4, %i1
    51ec:	80 a6 40 1c 	cmp  %i1, %i4
    51f0:	1a 80 00 09 	bcc  5214 <__udivdi3+0x324>
    51f4:	80 a7 40 03 	cmp  %i5, %g3
    51f8:	32 80 00 08 	bne,a   5218 <__udivdi3+0x328>
    51fc:	b0 10 20 00 	clr  %i0
    5200:	10 80 00 05 	b  5214 <__udivdi3+0x324>
    5204:	84 06 3f ff 	add  %i0, -1, %g2
    5208:	b0 10 20 00 	clr  %i0
    520c:	10 80 00 03 	b  5218 <__udivdi3+0x328>
    5210:	84 10 20 00 	clr  %g2
    5214:	b0 10 20 00 	clr  %i0
    5218:	b2 10 00 02 	mov  %g2, %i1
    521c:	81 c7 e0 08 	ret 
    5220:	81 e8 00 00 	restore 

00005224 <__umoddi3>:
    5224:	9d e3 bf a0 	save  %sp, -96, %sp
    5228:	2f 00 00 25 	sethi  %hi(0x9400), %l7
    522c:	40 00 0f f9 	call  9210 <__sparc_get_pc_thunk.l7>
    5230:	ae 05 e0 3c 	add  %l7, 0x3c, %l7	! 943c <__sparc_get_pc_thunk.l7+0x22c>
    5234:	b8 10 00 1b 	mov  %i3, %i4
    5238:	84 10 00 19 	mov  %i1, %g2
    523c:	80 a6 a0 00 	cmp  %i2, 0
    5240:	12 80 00 39 	bne  5324 <__umoddi3+0x100>
    5244:	86 10 00 18 	mov  %i0, %g3
    5248:	80 a6 c0 18 	cmp  %i3, %i0
    524c:	18 80 00 1f 	bgu  52c8 <__umoddi3+0xa4>
    5250:	84 10 00 18 	mov  %i0, %g2
    5254:	80 a6 e0 00 	cmp  %i3, 0
    5258:	32 80 00 07 	bne,a   5274 <__umoddi3+0x50>
    525c:	84 10 20 00 	clr  %g2
    5260:	90 10 20 01 	mov  1, %o0
    5264:	40 00 00 ac 	call  5514 <.udiv>
    5268:	92 10 20 00 	clr  %o1
    526c:	b6 10 00 08 	mov  %o0, %i3
    5270:	84 10 20 00 	clr  %g2
    5274:	82 10 20 20 	mov  0x20, %g1
    5278:	80 a0 80 1b 	cmp  %g2, %i3
    527c:	0a 80 00 0c 	bcs  52ac <__umoddi3+0x88>
    5280:	b0 c6 00 18 	addxcc  %i0, %i0, %i0
    5284:	84 20 80 1b 	sub  %g2, %i3, %g2
    5288:	84 40 80 02 	addx  %g2, %g2, %g2
    528c:	82 a0 60 01 	deccc  %g1
    5290:	12 bf ff fb 	bne  527c <__umoddi3+0x58>
    5294:	80 a0 80 1b 	cmp  %g2, %i3
    5298:	0a 80 00 0b 	bcs  52c4 <__umoddi3+0xa0>
    529c:	b0 c6 00 18 	addxcc  %i0, %i0, %i0
    52a0:	10 80 00 09 	b  52c4 <__umoddi3+0xa0>
    52a4:	84 20 80 1b 	sub  %g2, %i3, %g2
    52a8:	84 20 80 1b 	sub  %g2, %i3, %g2
    52ac:	84 c0 80 02 	addxcc  %g2, %g2, %g2
    52b0:	1a bf ff f8 	bcc  5290 <__umoddi3+0x6c>
    52b4:	82 a0 60 01 	deccc  %g1
    52b8:	12 bf ff fc 	bne  52a8 <__umoddi3+0x84>
    52bc:	b0 86 00 18 	addcc  %i0, %i0, %i0
    52c0:	84 20 80 1b 	sub  %g2, %i3, %g2
    52c4:	b0 3e 20 00 	xnor  %i0, 0, %i0
    52c8:	82 10 20 20 	mov  0x20, %g1
    52cc:	80 a0 80 1b 	cmp  %g2, %i3
    52d0:	0a 80 00 0c 	bcs  5300 <__umoddi3+0xdc>
    52d4:	b2 c6 40 19 	addxcc  %i1, %i1, %i1
    52d8:	84 20 80 1b 	sub  %g2, %i3, %g2
    52dc:	84 40 80 02 	addx  %g2, %g2, %g2
    52e0:	82 a0 60 01 	deccc  %g1
    52e4:	12 bf ff fb 	bne  52d0 <__umoddi3+0xac>
    52e8:	80 a0 80 1b 	cmp  %g2, %i3
    52ec:	0a 80 00 0b 	bcs  5318 <__umoddi3+0xf4>
    52f0:	b2 c6 40 19 	addxcc  %i1, %i1, %i1
    52f4:	10 80 00 09 	b  5318 <__umoddi3+0xf4>
    52f8:	84 20 80 1b 	sub  %g2, %i3, %g2
    52fc:	84 20 80 1b 	sub  %g2, %i3, %g2
    5300:	84 c0 80 02 	addxcc  %g2, %g2, %g2
    5304:	1a bf ff f8 	bcc  52e4 <__umoddi3+0xc0>
    5308:	82 a0 60 01 	deccc  %g1
    530c:	12 bf ff fc 	bne  52fc <__umoddi3+0xd8>
    5310:	b2 86 40 19 	addcc  %i1, %i1, %i1
    5314:	84 20 80 1b 	sub  %g2, %i3, %g2
    5318:	b2 3e 60 00 	xnor  %i1, 0, %i1
    531c:	10 80 00 25 	b  53b0 <__umoddi3+0x18c>
    5320:	b0 10 20 00 	clr  %i0
    5324:	80 a6 80 18 	cmp  %i2, %i0
    5328:	18 80 00 79 	bgu  550c <__umoddi3+0x2e8>
    532c:	03 00 00 3f 	sethi  %hi(0xfc00), %g1
    5330:	82 10 63 ff 	or  %g1, 0x3ff, %g1	! ffff <ajit_global_interrupt_handlers+0xd57>
    5334:	80 a6 80 01 	cmp  %i2, %g1
    5338:	38 80 00 07 	bgu,a   5354 <__umoddi3+0x130>
    533c:	03 00 3f ff 	sethi  %hi(0xfffc00), %g1
    5340:	80 a6 a0 ff 	cmp  %i2, 0xff
    5344:	18 80 00 09 	bgu  5368 <__umoddi3+0x144>
    5348:	82 10 20 08 	mov  8, %g1
    534c:	10 80 00 07 	b  5368 <__umoddi3+0x144>
    5350:	82 10 20 00 	clr  %g1
    5354:	82 10 63 ff 	or  %g1, 0x3ff, %g1
    5358:	80 a0 40 1a 	cmp  %g1, %i2
    535c:	82 60 20 00 	subx  %g0, 0, %g1
    5360:	82 08 60 08 	and  %g1, 8, %g1
    5364:	82 00 60 10 	add  %g1, 0x10, %g1
    5368:	89 36 80 01 	srl  %i2, %g1, %g4
    536c:	37 00 00 01 	sethi  %hi(0x400), %i3
    5370:	b6 1e fd 98 	xor  %i3, -616, %i3
    5374:	b6 05 c0 1b 	add  %l7, %i3, %i3
    5378:	fa 0e c0 04 	ldub  [ %i3 + %g4 ], %i5
    537c:	88 10 20 20 	mov  0x20, %g4
    5380:	ba 07 40 01 	add  %i5, %g1, %i5
    5384:	88 a1 00 1d 	subcc  %g4, %i5, %g4
    5388:	32 80 00 0c 	bne,a   53b8 <__umoddi3+0x194>
    538c:	83 37 00 1d 	srl  %i4, %i5, %g1
    5390:	80 a6 40 1c 	cmp  %i1, %i4
    5394:	1a 80 00 04 	bcc  53a4 <__umoddi3+0x180>
    5398:	80 a6 80 18 	cmp  %i2, %i0
    539c:	3a 80 00 05 	bcc,a   53b0 <__umoddi3+0x18c>
    53a0:	b0 10 00 03 	mov  %g3, %i0
    53a4:	84 a6 40 1c 	subcc  %i1, %i4, %g2
    53a8:	86 66 00 1a 	subx  %i0, %i2, %g3
    53ac:	b0 10 00 03 	mov  %g3, %i0
    53b0:	10 80 00 57 	b  550c <__umoddi3+0x2e8>
    53b4:	b2 10 00 02 	mov  %g2, %i1
    53b8:	b5 2e 80 04 	sll  %i2, %g4, %i2
    53bc:	b4 16 80 01 	or  %i2, %g1, %i2
    53c0:	83 36 40 1d 	srl  %i1, %i5, %g1
    53c4:	87 36 00 1d 	srl  %i0, %i5, %g3
    53c8:	85 2e 00 04 	sll  %i0, %g4, %g2
    53cc:	b9 2f 00 04 	sll  %i4, %g4, %i4
    53d0:	84 10 80 01 	or  %g2, %g1, %g2
    53d4:	b3 2e 40 04 	sll  %i1, %g4, %i1
    53d8:	82 10 20 20 	mov  0x20, %g1
    53dc:	80 a0 c0 1a 	cmp  %g3, %i2
    53e0:	0a 80 00 0c 	bcs  5410 <__umoddi3+0x1ec>
    53e4:	84 c0 80 02 	addxcc  %g2, %g2, %g2
    53e8:	86 20 c0 1a 	sub  %g3, %i2, %g3
    53ec:	86 40 c0 03 	addx  %g3, %g3, %g3
    53f0:	82 a0 60 01 	deccc  %g1
    53f4:	12 bf ff fb 	bne  53e0 <__umoddi3+0x1bc>
    53f8:	80 a0 c0 1a 	cmp  %g3, %i2
    53fc:	0a 80 00 0b 	bcs  5428 <__umoddi3+0x204>
    5400:	84 c0 80 02 	addxcc  %g2, %g2, %g2
    5404:	10 80 00 09 	b  5428 <__umoddi3+0x204>
    5408:	86 20 c0 1a 	sub  %g3, %i2, %g3
    540c:	86 20 c0 1a 	sub  %g3, %i2, %g3
    5410:	86 c0 c0 03 	addxcc  %g3, %g3, %g3
    5414:	1a bf ff f8 	bcc  53f4 <__umoddi3+0x1d0>
    5418:	82 a0 60 01 	deccc  %g1
    541c:	12 bf ff fc 	bne  540c <__umoddi3+0x1e8>
    5420:	84 80 80 02 	addcc  %g2, %g2, %g2
    5424:	86 20 c0 1a 	sub  %g3, %i2, %g3
    5428:	84 38 a0 00 	xnor  %g2, 0, %g2
    542c:	81 80 00 02 	mov  %g2, %y
    5430:	9b 3f 20 1f 	sra  %i4, 0x1f, %o5
    5434:	9a 08 80 0d 	and  %g2, %o5, %o5
    5438:	82 88 20 00 	andcc  %g0, 0, %g1
    543c:	83 20 40 1c 	mulscc  %g1, %i4, %g1
    5440:	83 20 40 1c 	mulscc  %g1, %i4, %g1
    5444:	83 20 40 1c 	mulscc  %g1, %i4, %g1
    5448:	83 20 40 1c 	mulscc  %g1, %i4, %g1
    544c:	83 20 40 1c 	mulscc  %g1, %i4, %g1
    5450:	83 20 40 1c 	mulscc  %g1, %i4, %g1
    5454:	83 20 40 1c 	mulscc  %g1, %i4, %g1
    5458:	83 20 40 1c 	mulscc  %g1, %i4, %g1
    545c:	83 20 40 1c 	mulscc  %g1, %i4, %g1
    5460:	83 20 40 1c 	mulscc  %g1, %i4, %g1
    5464:	83 20 40 1c 	mulscc  %g1, %i4, %g1
    5468:	83 20 40 1c 	mulscc  %g1, %i4, %g1
    546c:	83 20 40 1c 	mulscc  %g1, %i4, %g1
    5470:	83 20 40 1c 	mulscc  %g1, %i4, %g1
    5474:	83 20 40 1c 	mulscc  %g1, %i4, %g1
    5478:	83 20 40 1c 	mulscc  %g1, %i4, %g1
    547c:	83 20 40 1c 	mulscc  %g1, %i4, %g1
    5480:	83 20 40 1c 	mulscc  %g1, %i4, %g1
    5484:	83 20 40 1c 	mulscc  %g1, %i4, %g1
    5488:	83 20 40 1c 	mulscc  %g1, %i4, %g1
    548c:	83 20 40 1c 	mulscc  %g1, %i4, %g1
    5490:	83 20 40 1c 	mulscc  %g1, %i4, %g1
    5494:	83 20 40 1c 	mulscc  %g1, %i4, %g1
    5498:	83 20 40 1c 	mulscc  %g1, %i4, %g1
    549c:	83 20 40 1c 	mulscc  %g1, %i4, %g1
    54a0:	83 20 40 1c 	mulscc  %g1, %i4, %g1
    54a4:	83 20 40 1c 	mulscc  %g1, %i4, %g1
    54a8:	83 20 40 1c 	mulscc  %g1, %i4, %g1
    54ac:	83 20 40 1c 	mulscc  %g1, %i4, %g1
    54b0:	83 20 40 1c 	mulscc  %g1, %i4, %g1
    54b4:	83 20 40 1c 	mulscc  %g1, %i4, %g1
    54b8:	83 20 40 1c 	mulscc  %g1, %i4, %g1
    54bc:	83 20 60 00 	mulscc  %g1, 0, %g1
    54c0:	84 00 40 0d 	add  %g1, %o5, %g2
    54c4:	b7 40 00 00 	rd  %y, %i3
    54c8:	82 10 00 02 	mov  %g2, %g1
    54cc:	80 a0 80 03 	cmp  %g2, %g3
    54d0:	18 80 00 07 	bgu  54ec <__umoddi3+0x2c8>
    54d4:	b0 10 00 1b 	mov  %i3, %i0
    54d8:	80 a6 40 1b 	cmp  %i1, %i3
    54dc:	1a 80 00 06 	bcc  54f4 <__umoddi3+0x2d0>
    54e0:	80 a0 80 03 	cmp  %g2, %g3
    54e4:	12 80 00 04 	bne  54f4 <__umoddi3+0x2d0>
    54e8:	01 00 00 00 	nop 
    54ec:	b0 a6 c0 1c 	subcc  %i3, %i4, %i0
    54f0:	82 60 80 1a 	subx  %g2, %i2, %g1
    54f4:	84 a6 40 18 	subcc  %i1, %i0, %g2
    54f8:	b0 60 c0 01 	subx  %g3, %g1, %i0
    54fc:	bb 2e 00 1d 	sll  %i0, %i5, %i5
    5500:	b3 30 80 04 	srl  %g2, %g4, %i1
    5504:	b1 36 00 04 	srl  %i0, %g4, %i0
    5508:	b2 16 40 1d 	or  %i1, %i5, %i1
    550c:	81 c7 e0 08 	ret 
    5510:	81 e8 00 00 	restore 

00005514 <.udiv>:
    5514:	10 80 00 0b 	b  5540 <ready_to_divide>
    5518:	86 10 20 00 	clr  %g3

0000551c <.div>:
    551c:	80 92 40 08 	orcc  %o1, %o0, %g0
    5520:	16 80 00 08 	bge  5540 <ready_to_divide>
    5524:	86 1a 40 08 	xor  %o1, %o0, %g3
    5528:	80 92 40 00 	tst  %o1
    552c:	16 80 00 04 	bge  553c <.div+0x20>
    5530:	80 92 00 00 	tst  %o0
    5534:	16 80 00 03 	bge  5540 <ready_to_divide>
    5538:	92 20 00 09 	neg  %o1
    553c:	90 20 00 08 	neg  %o0

00005540 <ready_to_divide>:
    5540:	9a 92 40 00 	orcc  %o1, %g0, %o5
    5544:	12 80 00 05 	bne  5558 <ready_to_divide+0x18>
    5548:	96 10 00 08 	mov  %o0, %o3
    554c:	91 d0 20 02 	ta  2
    5550:	81 c3 e0 08 	retl 
    5554:	90 10 00 00 	mov  %g0, %o0
    5558:	80 a2 c0 0d 	cmp  %o3, %o5
    555c:	0a 80 00 95 	bcs  57b0 <got_result>
    5560:	94 10 00 00 	mov  %g0, %o2
    5564:	03 02 00 00 	sethi  %hi(0x8000000), %g1
    5568:	80 a2 c0 01 	cmp  %o3, %g1
    556c:	0a 80 00 28 	bcs  560c <not_really_big>
    5570:	98 10 00 00 	mov  %g0, %o4
    5574:	80 a3 40 01 	cmp  %o5, %g1
    5578:	1a 80 00 0d 	bcc  55ac <not_too_big>
    557c:	84 10 20 01 	mov  1, %g2
    5580:	9b 2b 60 04 	sll  %o5, 4, %o5
    5584:	10 bf ff fc 	b  5574 <ready_to_divide+0x34>
    5588:	98 03 20 01 	inc  %o4
    558c:	9a 83 40 0d 	addcc  %o5, %o5, %o5
    5590:	1a 80 00 07 	bcc  55ac <not_too_big>
    5594:	84 00 a0 01 	inc  %g2
    5598:	83 28 60 04 	sll  %g1, 4, %g1
    559c:	9b 33 60 01 	srl  %o5, 1, %o5
    55a0:	9a 03 40 01 	add  %o5, %g1, %o5
    55a4:	10 80 00 07 	b  55c0 <do_single_div>
    55a8:	84 20 a0 01 	dec  %g2

000055ac <not_too_big>:
    55ac:	80 a3 40 0b 	cmp  %o5, %o3
    55b0:	0a bf ff f7 	bcs  558c <ready_to_divide+0x4c>
    55b4:	01 00 00 00 	nop 
    55b8:	02 80 00 02 	be  55c0 <do_single_div>
    55bc:	01 00 00 00 	nop 

000055c0 <do_single_div>:
    55c0:	84 a0 a0 01 	deccc  %g2
    55c4:	06 80 00 76 	bl  579c <end_regular_divide>
    55c8:	01 00 00 00 	nop 
    55cc:	96 22 c0 0d 	sub  %o3, %o5, %o3
    55d0:	94 10 20 01 	mov  1, %o2
    55d4:	10 80 00 0a 	b  55fc <end_single_divloop>
    55d8:	01 00 00 00 	nop 

000055dc <single_divloop>:
    55dc:	95 2a a0 01 	sll  %o2, 1, %o2
    55e0:	06 80 00 05 	bl  55f4 <single_divloop+0x18>
    55e4:	9b 33 60 01 	srl  %o5, 1, %o5
    55e8:	96 22 c0 0d 	sub  %o3, %o5, %o3
    55ec:	10 80 00 04 	b  55fc <end_single_divloop>
    55f0:	94 02 a0 01 	inc  %o2
    55f4:	96 02 c0 0d 	add  %o3, %o5, %o3
    55f8:	94 22 a0 01 	dec  %o2

000055fc <end_single_divloop>:
    55fc:	84 a0 a0 01 	deccc  %g2
    5600:	16 bf ff f7 	bge  55dc <single_divloop>
    5604:	80 92 c0 00 	tst  %o3
    5608:	30 80 00 65 	b,a   579c <end_regular_divide>

0000560c <not_really_big>:
    560c:	9b 2b 60 04 	sll  %o5, 4, %o5
    5610:	80 a3 40 0b 	cmp  %o5, %o3
    5614:	08 bf ff fe 	bleu  560c <not_really_big>
    5618:	98 83 20 01 	inccc  %o4
    561c:	02 80 00 65 	be  57b0 <got_result>
    5620:	98 23 20 01 	dec  %o4
    5624:	80 92 c0 00 	tst  %o3

00005628 <divloop>:
    5628:	95 2a a0 04 	sll  %o2, 4, %o2
    562c:	06 80 00 2f 	bl  56e8 <L1.16>
    5630:	9b 33 60 01 	srl  %o5, 1, %o5
    5634:	96 a2 c0 0d 	subcc  %o3, %o5, %o3
    5638:	06 80 00 17 	bl  5694 <L2.17>
    563c:	9b 33 60 01 	srl  %o5, 1, %o5
    5640:	96 a2 c0 0d 	subcc  %o3, %o5, %o3
    5644:	06 80 00 0b 	bl  5670 <L3.19>
    5648:	9b 33 60 01 	srl  %o5, 1, %o5
    564c:	96 a2 c0 0d 	subcc  %o3, %o5, %o3
    5650:	06 80 00 05 	bl  5664 <L4.23>
    5654:	9b 33 60 01 	srl  %o5, 1, %o5
    5658:	96 a2 c0 0d 	subcc  %o3, %o5, %o3
    565c:	10 80 00 50 	b  579c <end_regular_divide>
    5660:	94 02 a0 0f 	add  %o2, 0xf, %o2

00005664 <L4.23>:
    5664:	96 82 c0 0d 	addcc  %o3, %o5, %o3
    5668:	10 80 00 4d 	b  579c <end_regular_divide>
    566c:	94 02 a0 0d 	add  %o2, 0xd, %o2

00005670 <L3.19>:
    5670:	96 82 c0 0d 	addcc  %o3, %o5, %o3
    5674:	06 80 00 05 	bl  5688 <L4.21>
    5678:	9b 33 60 01 	srl  %o5, 1, %o5
    567c:	96 a2 c0 0d 	subcc  %o3, %o5, %o3
    5680:	10 80 00 47 	b  579c <end_regular_divide>
    5684:	94 02 a0 0b 	add  %o2, 0xb, %o2

00005688 <L4.21>:
    5688:	96 82 c0 0d 	addcc  %o3, %o5, %o3
    568c:	10 80 00 44 	b  579c <end_regular_divide>
    5690:	94 02 a0 09 	add  %o2, 9, %o2

00005694 <L2.17>:
    5694:	96 82 c0 0d 	addcc  %o3, %o5, %o3
    5698:	06 80 00 0b 	bl  56c4 <L3.17>
    569c:	9b 33 60 01 	srl  %o5, 1, %o5
    56a0:	96 a2 c0 0d 	subcc  %o3, %o5, %o3
    56a4:	06 80 00 05 	bl  56b8 <L4.19>
    56a8:	9b 33 60 01 	srl  %o5, 1, %o5
    56ac:	96 a2 c0 0d 	subcc  %o3, %o5, %o3
    56b0:	10 80 00 3b 	b  579c <end_regular_divide>
    56b4:	94 02 a0 07 	add  %o2, 7, %o2

000056b8 <L4.19>:
    56b8:	96 82 c0 0d 	addcc  %o3, %o5, %o3
    56bc:	10 80 00 38 	b  579c <end_regular_divide>
    56c0:	94 02 a0 05 	add  %o2, 5, %o2

000056c4 <L3.17>:
    56c4:	96 82 c0 0d 	addcc  %o3, %o5, %o3
    56c8:	06 80 00 05 	bl  56dc <L4.17>
    56cc:	9b 33 60 01 	srl  %o5, 1, %o5
    56d0:	96 a2 c0 0d 	subcc  %o3, %o5, %o3
    56d4:	10 80 00 32 	b  579c <end_regular_divide>
    56d8:	94 02 a0 03 	add  %o2, 3, %o2

000056dc <L4.17>:
    56dc:	96 82 c0 0d 	addcc  %o3, %o5, %o3
    56e0:	10 80 00 2f 	b  579c <end_regular_divide>
    56e4:	94 02 a0 01 	inc  %o2

000056e8 <L1.16>:
    56e8:	96 82 c0 0d 	addcc  %o3, %o5, %o3
    56ec:	06 80 00 17 	bl  5748 <L2.15>
    56f0:	9b 33 60 01 	srl  %o5, 1, %o5
    56f4:	96 a2 c0 0d 	subcc  %o3, %o5, %o3
    56f8:	06 80 00 0b 	bl  5724 <L3.15>
    56fc:	9b 33 60 01 	srl  %o5, 1, %o5
    5700:	96 a2 c0 0d 	subcc  %o3, %o5, %o3
    5704:	06 80 00 05 	bl  5718 <L4.15>
    5708:	9b 33 60 01 	srl  %o5, 1, %o5
    570c:	96 a2 c0 0d 	subcc  %o3, %o5, %o3
    5710:	10 80 00 23 	b  579c <end_regular_divide>
    5714:	94 02 bf ff 	add  %o2, -1, %o2

00005718 <L4.15>:
    5718:	96 82 c0 0d 	addcc  %o3, %o5, %o3
    571c:	10 80 00 20 	b  579c <end_regular_divide>
    5720:	94 02 bf fd 	add  %o2, -3, %o2

00005724 <L3.15>:
    5724:	96 82 c0 0d 	addcc  %o3, %o5, %o3
    5728:	06 80 00 05 	bl  573c <L4.13>
    572c:	9b 33 60 01 	srl  %o5, 1, %o5
    5730:	96 a2 c0 0d 	subcc  %o3, %o5, %o3
    5734:	10 80 00 1a 	b  579c <end_regular_divide>
    5738:	94 02 bf fb 	add  %o2, -5, %o2

0000573c <L4.13>:
    573c:	96 82 c0 0d 	addcc  %o3, %o5, %o3
    5740:	10 80 00 17 	b  579c <end_regular_divide>
    5744:	94 02 bf f9 	add  %o2, -7, %o2

00005748 <L2.15>:
    5748:	96 82 c0 0d 	addcc  %o3, %o5, %o3
    574c:	06 80 00 0b 	bl  5778 <L3.13>
    5750:	9b 33 60 01 	srl  %o5, 1, %o5
    5754:	96 a2 c0 0d 	subcc  %o3, %o5, %o3
    5758:	06 80 00 05 	bl  576c <L4.11>
    575c:	9b 33 60 01 	srl  %o5, 1, %o5
    5760:	96 a2 c0 0d 	subcc  %o3, %o5, %o3
    5764:	10 80 00 0e 	b  579c <end_regular_divide>
    5768:	94 02 bf f7 	add  %o2, -9, %o2

0000576c <L4.11>:
    576c:	96 82 c0 0d 	addcc  %o3, %o5, %o3
    5770:	10 80 00 0b 	b  579c <end_regular_divide>
    5774:	94 02 bf f5 	add  %o2, -11, %o2

00005778 <L3.13>:
    5778:	96 82 c0 0d 	addcc  %o3, %o5, %o3
    577c:	06 80 00 05 	bl  5790 <L4.9>
    5780:	9b 33 60 01 	srl  %o5, 1, %o5
    5784:	96 a2 c0 0d 	subcc  %o3, %o5, %o3
    5788:	10 80 00 05 	b  579c <end_regular_divide>
    578c:	94 02 bf f3 	add  %o2, -13, %o2

00005790 <L4.9>:
    5790:	96 82 c0 0d 	addcc  %o3, %o5, %o3
    5794:	10 80 00 02 	b  579c <end_regular_divide>
    5798:	94 02 bf f1 	add  %o2, -15, %o2

0000579c <end_regular_divide>:
    579c:	98 a3 20 01 	deccc  %o4
    57a0:	16 bf ff a2 	bge  5628 <divloop>
    57a4:	80 92 c0 00 	tst  %o3
    57a8:	26 80 00 02 	bl,a   57b0 <got_result>
    57ac:	94 22 a0 01 	dec  %o2

000057b0 <got_result>:
    57b0:	80 90 c0 00 	tst  %g3
    57b4:	26 80 00 02 	bl,a   57bc <got_result+0xc>
    57b8:	94 20 00 0a 	neg  %o2
    57bc:	81 c3 e0 08 	retl 
